---
triple:          'arm64-apple-darwin'
binary-path:     'bin/app'
relocations:
  - { offsetInCU: 0x26, offset: 0x26, size: 0x8, addend: 0x0, symName: __ZN3App3RunEv, symObjAddr: 0x0, symBinAddr: 0x100004F10, symSize: 0x820 }
  - { offsetInCU: 0x39, offset: 0x39, size: 0x8, addend: 0x0, symName: __ZN3App10s_instanceE, symObjAddr: 0x1D400, symBinAddr: 0x1005A7FA0, symSize: 0x0 }
  - { offsetInCU: 0x4C82, offset: 0x4C82, size: 0x8, addend: 0x0, symName: __ZNSt3__1neB8ue170006IPP5LayerEEbRKNS_11__wrap_iterIT_EES8_, symObjAddr: 0xE40, symBinAddr: 0x100005D50, symSize: 0x34 }
  - { offsetInCU: 0x4CC5, offset: 0x4CC5, size: 0x8, addend: 0x0, symName: __ZNSt3__1eqB8ue170006IPP5LayerEEbRKNS_11__wrap_iterIT_EES8_, symObjAddr: 0x1994, symBinAddr: 0x1000068A4, symSize: 0x48 }
  - { offsetInCU: 0x9AF4, offset: 0x9AF4, size: 0x8, addend: 0x0, symName: __ZN3App3RunEv, symObjAddr: 0x0, symBinAddr: 0x100004F10, symSize: 0x820 }
  - { offsetInCU: 0x9BCC, offset: 0x9BCC, size: 0x8, addend: 0x0, symName: __ZNKSt3__110shared_ptrI6WindowEptB8ue170006Ev, symObjAddr: 0x820, symBinAddr: 0x100005730, symSize: 0x60 }
  - { offsetInCU: 0x9BF0, offset: 0x9BF0, size: 0x8, addend: 0x0, symName: __ZNK6Window9IsRunningEv, symObjAddr: 0x880, symBinAddr: 0x100005790, symSize: 0x8C }
  - { offsetInCU: 0x9C14, offset: 0x9C14, size: 0x8, addend: 0x0, symName: __ZNKSt3__110shared_ptrI11FramebufferEptB8ue170006Ev, symObjAddr: 0x90C, symBinAddr: 0x10000581C, symSize: 0x60 }
  - { offsetInCU: 0x9C38, offset: 0x9C38, size: 0x8, addend: 0x0, symName: __ZNKSt3__110unique_ptrI10LayerStackNS_14default_deleteIS1_EEE3getB8ue170006Ev, symObjAddr: 0x96C, symBinAddr: 0x10000587C, symSize: 0x6C }
  - { offsetInCU: 0x9C5C, offset: 0x9C5C, size: 0x8, addend: 0x0, symName: __ZN10LayerStack5beginEv, symObjAddr: 0x9D8, symBinAddr: 0x1000058E8, symSize: 0x234 }
  - { offsetInCU: 0x9C81, offset: 0x9C81, size: 0x8, addend: 0x0, symName: __ZN10LayerStack3endEv, symObjAddr: 0xC0C, symBinAddr: 0x100005B1C, symSize: 0x234 }
  - { offsetInCU: 0x9CA6, offset: 0x9CA6, size: 0x8, addend: 0x0, symName: __ZNKSt3__111__wrap_iterIPP5LayerEdeB8ue170006Ev, symObjAddr: 0xE74, symBinAddr: 0x100005D84, symSize: 0x60 }
  - { offsetInCU: 0x9CCA, offset: 0x9CCA, size: 0x8, addend: 0x0, symName: __ZNSt3__111__wrap_iterIPP5LayerEppB8ue170006Ev, symObjAddr: 0xED4, symBinAddr: 0x100005DE4, symSize: 0x68 }
  - { offsetInCU: 0x9CEE, offset: 0x9CEE, size: 0x8, addend: 0x0, symName: __ZNKSt3__110unique_ptrI10LayerStackNS_14default_deleteIS1_EEEptB8ue170006Ev, symObjAddr: 0xF3C, symBinAddr: 0x100005E4C, symSize: 0x6C }
  - { offsetInCU: 0x9D12, offset: 0x9D12, size: 0x8, addend: 0x0, symName: __ZNK10LayerStack10GetOverlayEv, symObjAddr: 0xFA8, symBinAddr: 0x100005EB8, symSize: 0x64 }
  - { offsetInCU: 0x9DB2, offset: 0x9DB2, size: 0x8, addend: 0x0, symName: __ZN9ReachCore4Time6UpdateEv, symObjAddr: 0x100C, symBinAddr: 0x100005F1C, symSize: 0x1AC }
  - { offsetInCU: 0x9DC5, offset: 0x9DC5, size: 0x8, addend: 0x0, symName: __ZN3App9PushLayerEP5Layer, symObjAddr: 0x11B8, symBinAddr: 0x1000060C8, symSize: 0x34 }
  - { offsetInCU: 0x9DF9, offset: 0x9DF9, size: 0x8, addend: 0x0, symName: __ZN3App11PushOverlayEP5Layer, symObjAddr: 0x11EC, symBinAddr: 0x1000060FC, symSize: 0x34 }
  - { offsetInCU: 0x9E2D, offset: 0x9E2D, size: 0x8, addend: 0x0, symName: __ZNSt3__16vectorIP5LayerNS_9allocatorIS2_EEE5beginB8ue170006Ev, symObjAddr: 0x1220, symBinAddr: 0x100006130, symSize: 0x268 }
  - { offsetInCU: 0x9E54, offset: 0x9E54, size: 0x8, addend: 0x0, symName: __ZNSt3__16vectorIP5LayerNS_9allocatorIS2_EEE11__make_iterB8ue170006EPS2_, symObjAddr: 0x1488, symBinAddr: 0x100006398, symSize: 0x1FC }
  - { offsetInCU: 0x9E89, offset: 0x9E89, size: 0x8, addend: 0x0, symName: __ZNSt3__111__wrap_iterIPP5LayerEC1B8ue170006ES3_, symObjAddr: 0x1684, symBinAddr: 0x100006594, symSize: 0x34 }
  - { offsetInCU: 0x9EBF, offset: 0x9EBF, size: 0x8, addend: 0x0, symName: __ZNSt3__111__wrap_iterIPP5LayerEC2B8ue170006ES3_, symObjAddr: 0x16B8, symBinAddr: 0x1000065C8, symSize: 0x70 }
  - { offsetInCU: 0x9EF5, offset: 0x9EF5, size: 0x8, addend: 0x0, symName: __ZNSt3__16vectorIP5LayerNS_9allocatorIS2_EEE3endB8ue170006Ev, symObjAddr: 0x1728, symBinAddr: 0x100006638, symSize: 0x26C }
  - { offsetInCU: 0x9F1C, offset: 0x9F1C, size: 0x8, addend: 0x0, symName: __ZNKSt3__111__wrap_iterIPP5LayerE4baseB8ue170006Ev, symObjAddr: 0x19DC, symBinAddr: 0x1000068EC, symSize: 0x60 }
  - { offsetInCU: 0x9F40, offset: 0x9F40, size: 0x8, addend: 0x0, symName: __ZN9ReachCore4Time14GetElapsedTimeEv, symObjAddr: 0x1A3C, symBinAddr: 0x10000694C, symSize: 0x18 }
  - { offsetInCU: 0x9F53, offset: 0x9F53, size: 0x8, addend: 0x0, symName: __ZNKSt3__117__compressed_pairIP10LayerStackNS_14default_deleteIS1_EEE5firstB8ue170006Ev, symObjAddr: 0x1A54, symBinAddr: 0x100006964, symSize: 0x24 }
  - { offsetInCU: 0x9F77, offset: 0x9F77, size: 0x8, addend: 0x0, symName: __ZNKSt3__122__compressed_pair_elemIP10LayerStackLi0ELb0EE5__getB8ue170006Ev, symObjAddr: 0x1A78, symBinAddr: 0x100006988, symSize: 0x14 }
  - { offsetInCU: 0x39, offset: 0xA00B, size: 0x8, addend: 0x0, symName: __ZN9ReachCore4Time14m_currentFrameE, symObjAddr: 0x3AD60, symBinAddr: 0x1005A7FE0, symSize: 0x0 }
  - { offsetInCU: 0x58, offset: 0xA02A, size: 0x8, addend: 0x0, symName: __ZN9ReachCore4Time15m_previousFrameE, symObjAddr: 0x3AD80, symBinAddr: 0x1005A8000, symSize: 0x0 }
  - { offsetInCU: 0x6B, offset: 0xA03D, size: 0x8, addend: 0x0, symName: __ZN9ReachCore4Time11m_deltaTimeE, symObjAddr: 0x3ADA0, symBinAddr: 0x1005A8020, symSize: 0x0 }
  - { offsetInCU: 0x84, offset: 0xA056, size: 0x8, addend: 0x0, symName: _square_vertices, symObjAddr: 0x3ADC0, symBinAddr: 0x1005A8040, symSize: 0x0 }
  - { offsetInCU: 0x545C, offset: 0xF42E, size: 0x8, addend: 0x0, symName: __ZNSt3__122__make_exception_guardB8ue170006INS_6vectorIfNS_9allocatorIfEEE16__destroy_vectorEEENS_28__exception_guard_exceptionsIT_EES7_, symObjAddr: 0x15F4, symBinAddr: 0x100008028, symSize: 0x278 }
  - { offsetInCU: 0x5495, offset: 0xF467, size: 0x8, addend: 0x0, symName: __ZNSt3__119__allocate_at_leastB8ue170006INS_9allocatorIfEEEENS_19__allocation_resultINS_16allocator_traitsIT_E7pointerEEERS5_m, symObjAddr: 0x2B9C, symBinAddr: 0x1000095D0, symSize: 0x28C }
  - { offsetInCU: 0x54DA, offset: 0xF4AC, size: 0x8, addend: 0x0, symName: __ZNSt3__13minB8ue170006ImEERKT_S3_S3_, symObjAddr: 0x2F38, symBinAddr: 0x10000996C, symSize: 0x2C }
  - { offsetInCU: 0x5707, offset: 0xF6D9, size: 0x8, addend: 0x0, symName: __ZNSt3__13minB8ue170006ImNS_6__lessIvvEEEERKT_S5_S5_T0_, symObjAddr: 0x2FD0, symBinAddr: 0x100009A04, symSize: 0x1E8 }
  - { offsetInCU: 0x57AC, offset: 0xF77E, size: 0x8, addend: 0x0, symName: __ZNSt3__120__throw_length_errorB8ue170006EPKc, symObjAddr: 0x32C8, symBinAddr: 0x100009CFC, symSize: 0x68 }
  - { offsetInCU: 0x57D6, offset: 0xF7A8, size: 0x8, addend: 0x0, symName: __ZNSt3__117__libcpp_allocateB8ue170006Emm, symObjAddr: 0x3484, symBinAddr: 0x100009EB8, symSize: 0x60 }
  - { offsetInCU: 0x5831, offset: 0xF803, size: 0x8, addend: 0x0, symName: __ZNSt3__124__is_overaligned_for_newB8ue170006Em, symObjAddr: 0x34E4, symBinAddr: 0x100009F18, symSize: 0x20 }
  - { offsetInCU: 0x5860, offset: 0xF832, size: 0x8, addend: 0x0, symName: __ZNSt3__121__libcpp_operator_newB8ue170006IJmSt11align_val_tEEEPvDpT_, symObjAddr: 0x3504, symBinAddr: 0x100009F38, symSize: 0x2C }
  - { offsetInCU: 0x58AD, offset: 0xF87F, size: 0x8, addend: 0x0, symName: __ZNSt3__121__libcpp_operator_newB8ue170006IJmEEEPvDpT_, symObjAddr: 0x3530, symBinAddr: 0x100009F64, symSize: 0x24 }
  - { offsetInCU: 0x58E6, offset: 0xF8B8, size: 0x8, addend: 0x0, symName: __ZNSt3__112__to_addressB8ue170006IfEEPT_S2_, symObjAddr: 0x373C, symBinAddr: 0x10000A170, symSize: 0x14 }
  - { offsetInCU: 0x591C, offset: 0xF8EE, size: 0x8, addend: 0x0, symName: __ZNSt3__130__uninitialized_allocator_copyB8ue170006INS_9allocatorIfEEPKfS4_PfEET2_RT_T0_T1_S6_, symObjAddr: 0x37EC, symBinAddr: 0x10000A220, symSize: 0x2DC }
  - { offsetInCU: 0x59C4, offset: 0xF996, size: 0x8, addend: 0x0, symName: __ZNSt3__114__unwrap_rangeB8ue170006IPKfS2_EENS_4pairIT0_S4_EET_S6_, symObjAddr: 0x3D9C, symBinAddr: 0x10000A7D0, symSize: 0x350 }
  - { offsetInCU: 0x5A12, offset: 0xF9E4, size: 0x8, addend: 0x0, symName: __ZNSt3__135__uninitialized_allocator_copy_implB8ue170006INS_9allocatorIfEEKfffLPv0EEEPT2_RT_PT0_SA_S6_, symObjAddr: 0x40EC, symBinAddr: 0x10000AB20, symSize: 0x38 }
  - { offsetInCU: 0x5A95, offset: 0xFA67, size: 0x8, addend: 0x0, symName: __ZNSt3__113__unwrap_iterB8ue170006IPfNS_18__unwrap_iter_implIS1_Lb1EEELi0EEEDTclsrT0_8__unwrapclsr3stdE7declvalIT_EEEES5_, symObjAddr: 0x4124, symBinAddr: 0x10000AB58, symSize: 0x24 }
  - { offsetInCU: 0x5ADA, offset: 0xFAAC, size: 0x8, addend: 0x0, symName: __ZNSt3__113__rewrap_iterB8ue170006IPfS1_NS_18__unwrap_iter_implIS1_Lb1EEEEET_S4_T0_, symObjAddr: 0x4148, symBinAddr: 0x10000AB7C, symSize: 0x48 }
  - { offsetInCU: 0x5B2F, offset: 0xFB01, size: 0x8, addend: 0x0, symName: __ZNSt3__19make_pairB8ue170006IPKfS2_EENS_4pairINS_18__unwrap_ref_decayIT_E4typeENS4_IT0_E4typeEEEOS5_OS8_, symObjAddr: 0x4190, symBinAddr: 0x10000ABC4, symSize: 0x20C }
  - { offsetInCU: 0x5B80, offset: 0xFB52, size: 0x8, addend: 0x0, symName: __ZNSt3__113__unwrap_iterB8ue170006IPKfNS_18__unwrap_iter_implIS2_Lb1EEELi0EEEDTclsrT0_8__unwrapclsr3stdE7declvalIT_EEEES6_, symObjAddr: 0x439C, symBinAddr: 0x10000ADD0, symSize: 0x24 }
  - { offsetInCU: 0x5CED, offset: 0xFCBF, size: 0x8, addend: 0x0, symName: __ZNSt3__112__to_addressB8ue170006IKfEEPT_S3_, symObjAddr: 0x4558, symBinAddr: 0x10000AF8C, symSize: 0x14 }
  - { offsetInCU: 0x5D23, offset: 0xFCF5, size: 0x8, addend: 0x0, symName: __ZNSt3__14copyB8ue170006IPKfPfEET0_T_S5_S4_, symObjAddr: 0x456C, symBinAddr: 0x10000AFA0, symSize: 0x26C }
  - { offsetInCU: 0x5D80, offset: 0xFD52, size: 0x8, addend: 0x0, symName: __ZNSt3__16__copyB8ue170006INS_17_ClassicAlgPolicyEPKfS3_PfEENS_4pairIT0_T2_EES6_T1_S7_, symObjAddr: 0x47D8, symBinAddr: 0x10000B20C, symSize: 0x22C }
  - { offsetInCU: 0x5DEF, offset: 0xFDC1, size: 0x8, addend: 0x0, symName: __ZNSt3__123__dispatch_copy_or_moveB8ue170006INS_17_ClassicAlgPolicyENS_11__copy_loopIS1_EENS_14__copy_trivialEPKfS6_PfEENS_4pairIT2_T4_EES9_T3_SA_, symObjAddr: 0x4A04, symBinAddr: 0x10000B438, symSize: 0x22C }
  - { offsetInCU: 0x5E70, offset: 0xFE42, size: 0x8, addend: 0x0, symName: __ZNSt3__121__unwrap_and_dispatchB8ue170006INS_10__overloadINS_11__copy_loopINS_17_ClassicAlgPolicyEEENS_14__copy_trivialEEEPKfS8_PfLi0EEENS_4pairIT0_T2_EESB_T1_SC_, symObjAddr: 0x4C30, symBinAddr: 0x10000B664, symSize: 0x5A4 }
  - { offsetInCU: 0x6056, offset: 0x10028, size: 0x8, addend: 0x0, symName: __ZNSt3__19make_pairB8ue170006IPKfPfEENS_4pairINS_18__unwrap_ref_decayIT_E4typeENS5_IT0_E4typeEEEOS6_OS9_, symObjAddr: 0x5404, symBinAddr: 0x10000BE38, symSize: 0x20C }
  - { offsetInCU: 0x60A7, offset: 0x10079, size: 0x8, addend: 0x0, symName: __ZNSt3__114__rewrap_rangeB8ue170006IPKfS2_EET_S3_T0_, symObjAddr: 0x5610, symBinAddr: 0x10000C044, symSize: 0x2C }
  - { offsetInCU: 0x60F3, offset: 0x100C5, size: 0x8, addend: 0x0, symName: __ZNSt3__119__copy_trivial_implB8ue170006IKffEENS_4pairIPT_PT0_EES4_S4_S6_, symObjAddr: 0x563C, symBinAddr: 0x10000C070, symSize: 0x3B4 }
  - { offsetInCU: 0x6162, offset: 0x10134, size: 0x8, addend: 0x0, symName: __ZNSt3__119__constexpr_memmoveB8ue170006IfKfLi0EEEPT_S3_PT0_NS_15__element_countE, symObjAddr: 0x59F0, symBinAddr: 0x10000C424, symSize: 0x64 }
  - { offsetInCU: 0x61D1, offset: 0x101A3, size: 0x8, addend: 0x0, symName: __ZNSt3__19make_pairB8ue170006IRPKfPfEENS_4pairINS_18__unwrap_ref_decayIT_E4typeENS6_IT0_E4typeEEEOS7_OSA_, symObjAddr: 0x5A54, symBinAddr: 0x10000C488, symSize: 0x20C }
  - { offsetInCU: 0x6222, offset: 0x101F4, size: 0x8, addend: 0x0, symName: __ZNSt3__113__rewrap_iterB8ue170006IPKfS2_NS_18__unwrap_iter_implIS2_Lb1EEEEET_S5_T0_, symObjAddr: 0x5F48, symBinAddr: 0x10000C97C, symSize: 0x48 }
  - { offsetInCU: 0x62CA, offset: 0x1029C, size: 0x8, addend: 0x0, symName: __ZNSt3__119__libcpp_deallocateB8ue170006EPvmm, symObjAddr: 0x697C, symBinAddr: 0x10000D3B0, symSize: 0x60 }
  - { offsetInCU: 0x6331, offset: 0x10303, size: 0x8, addend: 0x0, symName: __ZNSt3__127__do_deallocate_handle_sizeB8ue170006IJSt11align_val_tEEEvPvmDpT_, symObjAddr: 0x69DC, symBinAddr: 0x10000D410, symSize: 0x30 }
  - { offsetInCU: 0x6385, offset: 0x10357, size: 0x8, addend: 0x0, symName: __ZNSt3__127__do_deallocate_handle_sizeB8ue170006IJEEEvPvmDpT_, symObjAddr: 0x6A0C, symBinAddr: 0x10000D440, symSize: 0x28 }
  - { offsetInCU: 0x63C5, offset: 0x10397, size: 0x8, addend: 0x0, symName: __ZNSt3__124__libcpp_operator_deleteB8ue170006IJPvSt11align_val_tEEEvDpT_, symObjAddr: 0x6A34, symBinAddr: 0x10000D468, symSize: 0x2C }
  - { offsetInCU: 0x640F, offset: 0x103E1, size: 0x8, addend: 0x0, symName: __ZNSt3__124__libcpp_operator_deleteB8ue170006IJPvEEEvDpT_, symObjAddr: 0x6A60, symBinAddr: 0x10000D494, symSize: 0x24 }
  - { offsetInCU: 0x6445, offset: 0x10417, size: 0x8, addend: 0x0, symName: __ZNSt3__112__to_addressB8ue170006I6VertexEEPT_S3_, symObjAddr: 0x78F8, symBinAddr: 0x10000E32C, symSize: 0x14 }
  - { offsetInCU: 0x647B, offset: 0x1044D, size: 0x8, addend: 0x0, symName: __ZNSt3__13maxB8ue170006ImEERKT_S3_S3_, symObjAddr: 0x9630, symBinAddr: 0x100010064, symSize: 0x2C }
  - { offsetInCU: 0x64BE, offset: 0x10490, size: 0x8, addend: 0x0, symName: __ZNSt3__13maxB8ue170006ImNS_6__lessIvvEEEERKT_S5_S5_T0_, symObjAddr: 0x96F4, symBinAddr: 0x100010128, symSize: 0x1E8 }
  - { offsetInCU: 0x651E, offset: 0x104F0, size: 0x8, addend: 0x0, symName: __ZNSt3__119__allocate_at_leastB8ue170006INS_9allocatorI6VertexEEEENS_19__allocation_resultINS_16allocator_traitsIT_E7pointerEEERS6_m, symObjAddr: 0x9E38, symBinAddr: 0x10001086C, symSize: 0x28C }
  - { offsetInCU: 0x6563, offset: 0x10535, size: 0x8, addend: 0x0, symName: __ZNSt3__142__uninitialized_allocator_move_if_noexceptB8ue170006INS_9allocatorI6VertexEENS_16reverse_iteratorIPS2_EES6_S2_vEET1_RT_T0_SA_S7_, symObjAddr: 0xA2D4, symBinAddr: 0x100010D08, symSize: 0x4A8 }
  - { offsetInCU: 0x65EE, offset: 0x105C0, size: 0x8, addend: 0x0, symName: __ZNSt3__14swapB8ue170006IP6VertexEENS_9enable_ifIXaasr21is_move_constructibleIT_EE5valuesr18is_move_assignableIS4_EE5valueEvE4typeERS4_S7_, symObjAddr: 0xA814, symBinAddr: 0x100011248, symSize: 0x134 }
  - { offsetInCU: 0x663F, offset: 0x10611, size: 0x8, addend: 0x0, symName: __ZNSt3__14moveB8ue170006INS_16reverse_iteratorIP6VertexEES4_EET0_T_S6_S5_, symObjAddr: 0xAA08, symBinAddr: 0x10001143C, symSize: 0x4B0 }
  - { offsetInCU: 0x66A6, offset: 0x10678, size: 0x8, addend: 0x0, symName: __ZNSt3__16__moveB8ue170006INS_17_ClassicAlgPolicyENS_16reverse_iteratorIP6VertexEES5_S5_EENS_4pairIT0_T2_EES7_T1_S8_, symObjAddr: 0xAEB8, symBinAddr: 0x1000118EC, symSize: 0x424 }
  - { offsetInCU: 0x671E, offset: 0x106F0, size: 0x8, addend: 0x0, symName: __ZNSt3__123__dispatch_copy_or_moveB8ue170006INS_17_ClassicAlgPolicyENS_11__move_loopIS1_EENS_14__move_trivialENS_16reverse_iteratorIP6VertexEES8_S8_EENS_4pairIT2_T4_EESA_T3_SB_, symObjAddr: 0xB2DC, symBinAddr: 0x100011D10, symSize: 0x424 }
  - { offsetInCU: 0x67A8, offset: 0x1077A, size: 0x8, addend: 0x0, symName: __ZNSt3__121__unwrap_and_dispatchB8ue170006INS_10__overloadINS_11__move_loopINS_17_ClassicAlgPolicyEEENS_14__move_trivialEEENS_16reverse_iteratorIP6VertexEESA_SA_Li0EEENS_4pairIT0_T2_EESC_T1_SD_, symObjAddr: 0xB700, symBinAddr: 0x100012134, symSize: 0x880 }
  - { offsetInCU: 0x684D, offset: 0x1081F, size: 0x8, addend: 0x0, symName: __ZNSt3__114__unwrap_rangeB8ue170006INS_16reverse_iteratorIP6VertexEES4_EENS_4pairIT0_S6_EET_S8_, symObjAddr: 0xBF80, symBinAddr: 0x1000129B4, symSize: 0x448 }
  - { offsetInCU: 0x69D1, offset: 0x109A3, size: 0x8, addend: 0x0, symName: __ZNSt3__113__unwrap_iterB8ue170006INS_16reverse_iteratorIP6VertexEENS_18__unwrap_iter_implIS4_Lb0EEELi0EEEDTclsrT0_8__unwrapclsr3stdE7declvalIT_EEEES8_, symObjAddr: 0xC70C, symBinAddr: 0x100013140, symSize: 0x2EC }
  - { offsetInCU: 0x6A1A, offset: 0x109EC, size: 0x8, addend: 0x0, symName: __ZNSt3__19make_pairB8ue170006INS_16reverse_iteratorIP6VertexEES4_EENS_4pairINS_18__unwrap_ref_decayIT_E4typeENS6_IT0_E4typeEEEOS7_OSA_, symObjAddr: 0xC9F8, symBinAddr: 0x10001342C, symSize: 0x38 }
  - { offsetInCU: 0x6A69, offset: 0x10A3B, size: 0x8, addend: 0x0, symName: __ZNSt3__114__rewrap_rangeB8ue170006INS_16reverse_iteratorIP6VertexEES4_EET_S5_T0_, symObjAddr: 0xCA30, symBinAddr: 0x100013464, symSize: 0x3D4 }
  - { offsetInCU: 0x6ABD, offset: 0x10A8F, size: 0x8, addend: 0x0, symName: __ZNSt3__113__rewrap_iterB8ue170006INS_16reverse_iteratorIP6VertexEES4_NS_18__unwrap_iter_implIS4_Lb0EEEEET_S7_T0_, symObjAddr: 0xCE04, symBinAddr: 0x100013838, symSize: 0x3E8 }
  - { offsetInCU: 0x6B1A, offset: 0x10AEC, size: 0x8, addend: 0x0, symName: __ZNSt3__1neB8ue170006IP6VertexS2_EEbRKNS_16reverse_iteratorIT_EERKNS3_IT0_EE, symObjAddr: 0xD1EC, symBinAddr: 0x100013C20, symSize: 0x48 }
  - { offsetInCU: 0x6FAF, offset: 0x10F81, size: 0x8, addend: 0x0, symName: __ZSt28__throw_bad_array_new_lengthB8ue170006v, symObjAddr: 0x344C, symBinAddr: 0x100009E80, symSize: 0x38 }
  - { offsetInCU: 0x70F5, offset: 0x110C7, size: 0x8, addend: 0x0, symName: _cube_vertices, symObjAddr: 0x3AE00, symBinAddr: 0x1005A8080, symSize: 0x0 }
  - { offsetInCU: 0x710A, offset: 0x110DC, size: 0x8, addend: 0x0, symName: _square_indices, symObjAddr: 0xEDC0, symBinAddr: 0x1005358E0, symSize: 0x0 }
  - { offsetInCU: 0x7136, offset: 0x11108, size: 0x8, addend: 0x0, symName: _.str, symObjAddr: 0xEE00, symBinAddr: 0x100491000, symSize: 0x0 }
  - { offsetInCU: 0x746D, offset: 0x1143F, size: 0x8, addend: 0x0, symName: __ZNSt3__16vectorI6VertexNS_9allocatorIS1_EEE26__swap_out_circular_bufferERNS_14__split_bufferIS1_RS3_EE, symObjAddr: 0x8D7C, symBinAddr: 0x10000F7B0, symSize: 0x56C }
  - { offsetInCU: 0x927C, offset: 0x1324E, size: 0x8, addend: 0x0, symName: __ZNSt3__16vectorIfNS_9allocatorIfEEEC1B8ue170006ESt16initializer_listIfE, symObjAddr: 0x0, symBinAddr: 0x100006A34, symSize: 0x248 }
  - { offsetInCU: 0x92BC, offset: 0x1328E, size: 0x8, addend: 0x0, symName: __ZNSt3__16vectorIfNS_9allocatorIfEEED1B8ue170006Ev, symObjAddr: 0x248, symBinAddr: 0x100006C7C, symSize: 0x2C }
  - { offsetInCU: 0x92E3, offset: 0x132B5, size: 0x8, addend: 0x0, symName: __Z19MakeVertexFromFloatNSt3__16vectorIfNS_9allocatorIfEEEE, symObjAddr: 0x274, symBinAddr: 0x100006CA8, symSize: 0x8C0 }
  - { offsetInCU: 0x9358, offset: 0x1332A, size: 0x8, addend: 0x0, symName: __ZNSt3__16vectorI6VertexNS_9allocatorIS1_EEEC1B8ue170006Ev, symObjAddr: 0xB34, symBinAddr: 0x100007568, symSize: 0x2C }
  - { offsetInCU: 0x9380, offset: 0x13352, size: 0x8, addend: 0x0, symName: __ZNKSt3__16vectorIfNS_9allocatorIfEEE4sizeB8ue170006Ev, symObjAddr: 0xB60, symBinAddr: 0x100007594, symSize: 0xB0 }
  - { offsetInCU: 0x93A3, offset: 0x13375, size: 0x8, addend: 0x0, symName: __ZNSt3__16vectorIfNS_9allocatorIfEEEixB8ue170006Em, symObjAddr: 0xC10, symBinAddr: 0x100007644, symSize: 0x6C }
  - { offsetInCU: 0x93D9, offset: 0x133AB, size: 0x8, addend: 0x0, symName: __ZN3glm3vecILi3EfLNS_9qualifierE0EEC1Efff, symObjAddr: 0xC7C, symBinAddr: 0x1000076B0, symSize: 0x44 }
  - { offsetInCU: 0x942E, offset: 0x13400, size: 0x8, addend: 0x0, symName: __ZN3glm3vecILi2EfLNS_9qualifierE0EEC1Eff, symObjAddr: 0xCC0, symBinAddr: 0x1000076F4, symSize: 0x3C }
  - { offsetInCU: 0x9474, offset: 0x13446, size: 0x8, addend: 0x0, symName: __ZNSt3__16vectorI6VertexNS_9allocatorIS1_EEE9push_backB8ue170006ERKS1_, symObjAddr: 0xCFC, symBinAddr: 0x100007730, symSize: 0xE0 }
  - { offsetInCU: 0x94AA, offset: 0x1347C, size: 0x8, addend: 0x0, symName: __ZNSt3__16vectorI6VertexNS_9allocatorIS1_EEED1B8ue170006Ev, symObjAddr: 0xDDC, symBinAddr: 0x100007810, symSize: 0x2C }
  - { offsetInCU: 0x94D2, offset: 0x134A4, size: 0x8, addend: 0x0, symName: __ZN3glm3vecILi3EfLNS_9qualifierE0EEC2Efff, symObjAddr: 0xE08, symBinAddr: 0x10000783C, symSize: 0x17C }
  - { offsetInCU: 0x9527, offset: 0x134F9, size: 0x8, addend: 0x0, symName: __ZN3glm3vecILi2EfLNS_9qualifierE0EEC2Eff, symObjAddr: 0xF84, symBinAddr: 0x1000079B8, symSize: 0x10C }
  - { offsetInCU: 0x956D, offset: 0x1353F, size: 0x8, addend: 0x0, symName: __ZNSt3__16vectorIfNS_9allocatorIfEEEC2B8ue170006ESt16initializer_listIfE, symObjAddr: 0x1090, symBinAddr: 0x100007AC4, symSize: 0x528 }
  - { offsetInCU: 0x95D2, offset: 0x135A4, size: 0x8, addend: 0x0, symName: __ZNSt3__117__compressed_pairIPfNS_9allocatorIfEEEC1B8ue170006IDnNS_18__default_init_tagEEEOT_OT0_, symObjAddr: 0x15B8, symBinAddr: 0x100007FEC, symSize: 0x3C }
  - { offsetInCU: 0x9628, offset: 0x135FA, size: 0x8, addend: 0x0, symName: __ZNSt3__16vectorIfNS_9allocatorIfEEE16__destroy_vectorC1B8ue170006ERS3_, symObjAddr: 0x186C, symBinAddr: 0x1000082A0, symSize: 0x34 }
  - { offsetInCU: 0x965F, offset: 0x13631, size: 0x8, addend: 0x0, symName: __ZNKSt16initializer_listIfE4sizeB8ue170006Ev, symObjAddr: 0x18A0, symBinAddr: 0x1000082D4, symSize: 0x64 }
  - { offsetInCU: 0x9683, offset: 0x13655, size: 0x8, addend: 0x0, symName: __ZNSt3__16vectorIfNS_9allocatorIfEEE11__vallocateB8ue170006Em, symObjAddr: 0x1904, symBinAddr: 0x100008338, symSize: 0x420 }
  - { offsetInCU: 0x96CB, offset: 0x1369D, size: 0x8, addend: 0x0, symName: __ZNSt3__16vectorIfNS_9allocatorIfEEE18__construct_at_endIPKfS6_EEvT_T0_m, symObjAddr: 0x1D24, symBinAddr: 0x100008758, symSize: 0x380 }
  - { offsetInCU: 0x9749, offset: 0x1371B, size: 0x8, addend: 0x0, symName: __ZNKSt16initializer_listIfE5beginB8ue170006Ev, symObjAddr: 0x20A4, symBinAddr: 0x100008AD8, symSize: 0x60 }
  - { offsetInCU: 0x976D, offset: 0x1373F, size: 0x8, addend: 0x0, symName: __ZNKSt16initializer_listIfE3endB8ue170006Ev, symObjAddr: 0x2104, symBinAddr: 0x100008B38, symSize: 0xA8 }
  - { offsetInCU: 0x9791, offset: 0x13763, size: 0x8, addend: 0x0, symName: __ZNSt3__128__exception_guard_exceptionsINS_6vectorIfNS_9allocatorIfEEE16__destroy_vectorEE10__completeB8ue170006Ev, symObjAddr: 0x21AC, symBinAddr: 0x100008BE0, symSize: 0x8C }
  - { offsetInCU: 0x97B5, offset: 0x13787, size: 0x8, addend: 0x0, symName: __ZNSt3__128__exception_guard_exceptionsINS_6vectorIfNS_9allocatorIfEEE16__destroy_vectorEED1B8ue170006Ev, symObjAddr: 0x2238, symBinAddr: 0x100008C6C, symSize: 0x2C }
  - { offsetInCU: 0x97DD, offset: 0x137AF, size: 0x8, addend: 0x0, symName: __ZNSt3__117__compressed_pairIPfNS_9allocatorIfEEEC2B8ue170006IDnNS_18__default_init_tagEEEOT_OT0_, symObjAddr: 0x2264, symBinAddr: 0x100008C98, symSize: 0x40 }
  - { offsetInCU: 0x9833, offset: 0x13805, size: 0x8, addend: 0x0, symName: __ZNSt3__122__compressed_pair_elemIPfLi0ELb0EEC2B8ue170006IDnvEEOT_, symObjAddr: 0x22A4, symBinAddr: 0x100008CD8, symSize: 0x64 }
  - { offsetInCU: 0x9873, offset: 0x13845, size: 0x8, addend: 0x0, symName: __ZNSt3__122__compressed_pair_elemINS_9allocatorIfEELi1ELb1EEC2B8ue170006ENS_18__default_init_tagE, symObjAddr: 0x2308, symBinAddr: 0x100008D3C, symSize: 0x2C }
  - { offsetInCU: 0x98A6, offset: 0x13878, size: 0x8, addend: 0x0, symName: __ZNSt3__19allocatorIfEC2B8ue170006Ev, symObjAddr: 0x2334, symBinAddr: 0x100008D68, symSize: 0x2C }
  - { offsetInCU: 0x98CE, offset: 0x138A0, size: 0x8, addend: 0x0, symName: __ZNSt3__116__non_trivial_ifILb1ENS_9allocatorIfEEEC2B8ue170006Ev, symObjAddr: 0x2360, symBinAddr: 0x100008D94, symSize: 0x14 }
  - { offsetInCU: 0x98F7, offset: 0x138C9, size: 0x8, addend: 0x0, symName: __ZNSt3__128__exception_guard_exceptionsINS_6vectorIfNS_9allocatorIfEEE16__destroy_vectorEEC1B8ue170006ES5_, symObjAddr: 0x2374, symBinAddr: 0x100008DA8, symSize: 0x238 }
  - { offsetInCU: 0x9932, offset: 0x13904, size: 0x8, addend: 0x0, symName: __ZNSt3__128__exception_guard_exceptionsINS_6vectorIfNS_9allocatorIfEEE16__destroy_vectorEEC2B8ue170006ES5_, symObjAddr: 0x25AC, symBinAddr: 0x100008FE0, symSize: 0x264 }
  - { offsetInCU: 0x996D, offset: 0x1393F, size: 0x8, addend: 0x0, symName: __ZNSt3__16vectorIfNS_9allocatorIfEEE16__destroy_vectorC2B8ue170006ERS3_, symObjAddr: 0x2810, symBinAddr: 0x100009244, symSize: 0x70 }
  - { offsetInCU: 0x99A3, offset: 0x13975, size: 0x8, addend: 0x0, symName: __ZNKSt3__16vectorIfNS_9allocatorIfEEE8max_sizeEv, symObjAddr: 0x2880, symBinAddr: 0x1000092B4, symSize: 0x2FC }
  - { offsetInCU: 0x99CB, offset: 0x1399D, size: 0x8, addend: 0x0, symName: __ZNKSt3__16vectorIfNS_9allocatorIfEEE20__throw_length_errorB8ue170006Ev, symObjAddr: 0x2B7C, symBinAddr: 0x1000095B0, symSize: 0x20 }
  - { offsetInCU: 0x99EF, offset: 0x139C1, size: 0x8, addend: 0x0, symName: __ZNSt3__16vectorIfNS_9allocatorIfEEE7__allocB8ue170006Ev, symObjAddr: 0x2E28, symBinAddr: 0x10000985C, symSize: 0x28 }
  - { offsetInCU: 0x9A13, offset: 0x139E5, size: 0x8, addend: 0x0, symName: __ZNSt3__16vectorIfNS_9allocatorIfEEE9__end_capB8ue170006Ev, symObjAddr: 0x2E50, symBinAddr: 0x100009884, symSize: 0x28 }
  - { offsetInCU: 0x9A37, offset: 0x13A09, size: 0x8, addend: 0x0, symName: __ZNKSt3__16vectorIfNS_9allocatorIfEEE14__annotate_newB8ue170006Em, symObjAddr: 0x2E78, symBinAddr: 0x1000098AC, symSize: 0xC0 }
  - { offsetInCU: 0x9A74, offset: 0x13A46, size: 0x8, addend: 0x0, symName: __ZNSt3__116allocator_traitsINS_9allocatorIfEEE8max_sizeB8ue170006IS2_vEEmRKS2_, symObjAddr: 0x2F64, symBinAddr: 0x100009998, symSize: 0x24 }
  - { offsetInCU: 0x9AA2, offset: 0x13A74, size: 0x8, addend: 0x0, symName: __ZNKSt3__16vectorIfNS_9allocatorIfEEE7__allocB8ue170006Ev, symObjAddr: 0x2F88, symBinAddr: 0x1000099BC, symSize: 0x28 }
  - { offsetInCU: 0x9AC6, offset: 0x13A98, size: 0x8, addend: 0x0, symName: __ZNSt3__114numeric_limitsIlE3maxB8ue170006Ev, symObjAddr: 0x2FB0, symBinAddr: 0x1000099E4, symSize: 0x14 }
  - { offsetInCU: 0x9AED, offset: 0x13ABF, size: 0x8, addend: 0x0, symName: __ZNKSt3__16__lessIvvEclB8ue170006ImmEEbRKT_RKT0_, symObjAddr: 0x31B8, symBinAddr: 0x100009BEC, symSize: 0xBC }
  - { offsetInCU: 0x9B3F, offset: 0x13B11, size: 0x8, addend: 0x0, symName: __ZNKSt3__19allocatorIfE8max_sizeB8ue170006Ev, symObjAddr: 0x3274, symBinAddr: 0x100009CA8, symSize: 0x14 }
  - { offsetInCU: 0x9B63, offset: 0x13B35, size: 0x8, addend: 0x0, symName: __ZNKSt3__117__compressed_pairIPfNS_9allocatorIfEEE6secondB8ue170006Ev, symObjAddr: 0x3288, symBinAddr: 0x100009CBC, symSize: 0x24 }
  - { offsetInCU: 0x9B87, offset: 0x13B59, size: 0x8, addend: 0x0, symName: __ZNKSt3__122__compressed_pair_elemINS_9allocatorIfEELi1ELb1EE5__getB8ue170006Ev, symObjAddr: 0x32AC, symBinAddr: 0x100009CE0, symSize: 0x14 }
  - { offsetInCU: 0x9BAB, offset: 0x13B7D, size: 0x8, addend: 0x0, symName: __ZNSt3__123__libcpp_numeric_limitsIlLb1EE3maxB8ue170006Ev, symObjAddr: 0x32C0, symBinAddr: 0x100009CF4, symSize: 0x8 }
  - { offsetInCU: 0x9BBF, offset: 0x13B91, size: 0x8, addend: 0x0, symName: __ZNSt12length_errorC1B8ue170006EPKc, symObjAddr: 0x3330, symBinAddr: 0x100009D64, symSize: 0x34 }
  - { offsetInCU: 0x9BF5, offset: 0x13BC7, size: 0x8, addend: 0x0, symName: __ZNSt12length_errorC2B8ue170006EPKc, symObjAddr: 0x3364, symBinAddr: 0x100009D98, symSize: 0x8C }
  - { offsetInCU: 0x9C2B, offset: 0x13BFD, size: 0x8, addend: 0x0, symName: __ZNSt3__19allocatorIfE8allocateB8ue170006Em, symObjAddr: 0x33F0, symBinAddr: 0x100009E24, symSize: 0x5C }
  - { offsetInCU: 0x9C5D, offset: 0x13C2F, size: 0x8, addend: 0x0, symName: __ZNSt3__117__compressed_pairIPfNS_9allocatorIfEEE6secondB8ue170006Ev, symObjAddr: 0x3554, symBinAddr: 0x100009F88, symSize: 0x24 }
  - { offsetInCU: 0x9C81, offset: 0x13C53, size: 0x8, addend: 0x0, symName: __ZNSt3__122__compressed_pair_elemINS_9allocatorIfEELi1ELb1EE5__getB8ue170006Ev, symObjAddr: 0x3578, symBinAddr: 0x100009FAC, symSize: 0x14 }
  - { offsetInCU: 0x9CA5, offset: 0x13C77, size: 0x8, addend: 0x0, symName: __ZNSt3__117__compressed_pairIPfNS_9allocatorIfEEE5firstB8ue170006Ev, symObjAddr: 0x358C, symBinAddr: 0x100009FC0, symSize: 0x24 }
  - { offsetInCU: 0x9CC9, offset: 0x13C9B, size: 0x8, addend: 0x0, symName: __ZNSt3__122__compressed_pair_elemIPfLi0ELb0EE5__getB8ue170006Ev, symObjAddr: 0x35B0, symBinAddr: 0x100009FE4, symSize: 0x14 }
  - { offsetInCU: 0x9CED, offset: 0x13CBF, size: 0x8, addend: 0x0, symName: __ZNKSt3__16vectorIfNS_9allocatorIfEEE31__annotate_contiguous_containerEPKvS5_S5_S5_, symObjAddr: 0x35C4, symBinAddr: 0x100009FF8, symSize: 0x58 }
  - { offsetInCU: 0x9D4D, offset: 0x13D1F, size: 0x8, addend: 0x0, symName: __ZNKSt3__16vectorIfNS_9allocatorIfEEE4dataB8ue170006Ev, symObjAddr: 0x361C, symBinAddr: 0x10000A050, symSize: 0x64 }
  - { offsetInCU: 0x9D71, offset: 0x13D43, size: 0x8, addend: 0x0, symName: __ZNKSt3__16vectorIfNS_9allocatorIfEEE8capacityB8ue170006Ev, symObjAddr: 0x3680, symBinAddr: 0x10000A0B4, symSize: 0xBC }
  - { offsetInCU: 0x9D95, offset: 0x13D67, size: 0x8, addend: 0x0, symName: __ZNKSt3__16vectorIfNS_9allocatorIfEEE9__end_capB8ue170006Ev, symObjAddr: 0x3750, symBinAddr: 0x10000A184, symSize: 0x28 }
  - { offsetInCU: 0x9DB9, offset: 0x13D8B, size: 0x8, addend: 0x0, symName: __ZNKSt3__117__compressed_pairIPfNS_9allocatorIfEEE5firstB8ue170006Ev, symObjAddr: 0x3778, symBinAddr: 0x10000A1AC, symSize: 0x24 }
  - { offsetInCU: 0x9DDD, offset: 0x13DAF, size: 0x8, addend: 0x0, symName: __ZNKSt3__122__compressed_pair_elemIPfLi0ELb0EE5__getB8ue170006Ev, symObjAddr: 0x379C, symBinAddr: 0x10000A1D0, symSize: 0x14 }
  - { offsetInCU: 0x9E1A, offset: 0x13DEC, size: 0x8, addend: 0x0, symName: __ZNSt3__16vectorIfNS_9allocatorIfEEE21_ConstructTransactionC1B8ue170006ERS3_m, symObjAddr: 0x37B0, symBinAddr: 0x10000A1E4, symSize: 0x3C }
  - { offsetInCU: 0x9E60, offset: 0x13E32, size: 0x8, addend: 0x0, symName: __ZNSt3__16vectorIfNS_9allocatorIfEEE21_ConstructTransactionD1B8ue170006Ev, symObjAddr: 0x3AC8, symBinAddr: 0x10000A4FC, symSize: 0x2C }
  - { offsetInCU: 0x9E88, offset: 0x13E5A, size: 0x8, addend: 0x0, symName: __ZNSt3__16vectorIfNS_9allocatorIfEEE21_ConstructTransactionC2B8ue170006ERS3_m, symObjAddr: 0x3AF4, symBinAddr: 0x10000A528, symSize: 0x1D0 }
  - { offsetInCU: 0x9ECE, offset: 0x13EA0, size: 0x8, addend: 0x0, symName: __ZNKSt3__16vectorIfNS_9allocatorIfEEE19__annotate_increaseB8ue170006Em, symObjAddr: 0x3CC4, symBinAddr: 0x10000A6F8, symSize: 0xD8 }
  - { offsetInCU: 0x9F1F, offset: 0x13EF1, size: 0x8, addend: 0x0, symName: __ZNSt3__14pairIPKfS2_EC1B8ue170006IS2_S2_LPv0EEEOT_OT0_, symObjAddr: 0x43C0, symBinAddr: 0x10000ADF4, symSize: 0x3C }
  - { offsetInCU: 0x9F7C, offset: 0x13F4E, size: 0x8, addend: 0x0, symName: __ZNSt3__14pairIPKfS2_EC2B8ue170006IS2_S2_LPv0EEEOT_OT0_, symObjAddr: 0x43FC, symBinAddr: 0x10000AE30, symSize: 0x138 }
  - { offsetInCU: 0x9FD9, offset: 0x13FAB, size: 0x8, addend: 0x0, symName: __ZNSt3__118__unwrap_iter_implIPKfLb1EE8__unwrapB8ue170006ES2_, symObjAddr: 0x4534, symBinAddr: 0x10000AF68, symSize: 0x24 }
  - { offsetInCU: 0xA01F, offset: 0x13FF1, size: 0x8, addend: 0x0, symName: __ZNKSt3__114__copy_trivialclB8ue170006IKffLi0EEENS_4pairIPT_PT0_EES5_S5_S7_, symObjAddr: 0x51D4, symBinAddr: 0x10000BC08, symSize: 0x230 }
  - { offsetInCU: 0xA094, offset: 0x14066, size: 0x8, addend: 0x0, symName: __ZNSt3__14pairIPKfPfEC1B8ue170006IRS2_S3_LPv0EEEOT_OT0_, symObjAddr: 0x5C60, symBinAddr: 0x10000C694, symSize: 0x3C }
  - { offsetInCU: 0xA0F1, offset: 0x140C3, size: 0x8, addend: 0x0, symName: __ZNSt3__14pairIPKfPfEC2B8ue170006IRS2_S3_LPv0EEEOT_OT0_, symObjAddr: 0x5C9C, symBinAddr: 0x10000C6D0, symSize: 0x138 }
  - { offsetInCU: 0xA14E, offset: 0x14120, size: 0x8, addend: 0x0, symName: __ZNSt3__14pairIPKfPfEC1B8ue170006IS2_S3_LPv0EEEOT_OT0_, symObjAddr: 0x5DD4, symBinAddr: 0x10000C808, symSize: 0x3C }
  - { offsetInCU: 0xA1AB, offset: 0x1417D, size: 0x8, addend: 0x0, symName: __ZNSt3__14pairIPKfPfEC2B8ue170006IS2_S3_LPv0EEEOT_OT0_, symObjAddr: 0x5E10, symBinAddr: 0x10000C844, symSize: 0x138 }
  - { offsetInCU: 0xA208, offset: 0x141DA, size: 0x8, addend: 0x0, symName: __ZNSt3__118__unwrap_iter_implIPKfLb1EE8__rewrapB8ue170006ES2_S2_, symObjAddr: 0x5F90, symBinAddr: 0x10000C9C4, symSize: 0x50 }
  - { offsetInCU: 0xA239, offset: 0x1420B, size: 0x8, addend: 0x0, symName: __ZNSt3__118__unwrap_iter_implIPfLb1EE8__unwrapB8ue170006ES1_, symObjAddr: 0x5FE0, symBinAddr: 0x10000CA14, symSize: 0x24 }
  - { offsetInCU: 0xA25C, offset: 0x1422E, size: 0x8, addend: 0x0, symName: __ZNSt3__118__unwrap_iter_implIPfLb1EE8__rewrapB8ue170006ES1_S1_, symObjAddr: 0x6004, symBinAddr: 0x10000CA38, symSize: 0x50 }
  - { offsetInCU: 0xA28D, offset: 0x1425F, size: 0x8, addend: 0x0, symName: __ZNSt3__16vectorIfNS_9allocatorIfEEE21_ConstructTransactionD2B8ue170006Ev, symObjAddr: 0x6054, symBinAddr: 0x10000CA88, symSize: 0x278 }
  - { offsetInCU: 0xA2B5, offset: 0x14287, size: 0x8, addend: 0x0, symName: __ZNKSt3__16vectorIfNS_9allocatorIfEEE17__annotate_shrinkB8ue170006Em, symObjAddr: 0x62CC, symBinAddr: 0x10000CD00, symSize: 0xC8 }
  - { offsetInCU: 0xA2E8, offset: 0x142BA, size: 0x8, addend: 0x0, symName: __ZNSt3__128__exception_guard_exceptionsINS_6vectorIfNS_9allocatorIfEEE16__destroy_vectorEED2B8ue170006Ev, symObjAddr: 0x6394, symBinAddr: 0x10000CDC8, symSize: 0xBC }
  - { offsetInCU: 0xA310, offset: 0x142E2, size: 0x8, addend: 0x0, symName: __ZNSt3__16vectorIfNS_9allocatorIfEEE16__destroy_vectorclB8ue170006Ev, symObjAddr: 0x6450, symBinAddr: 0x10000CE84, symSize: 0x228 }
  - { offsetInCU: 0xA334, offset: 0x14306, size: 0x8, addend: 0x0, symName: __ZNSt3__16vectorIfNS_9allocatorIfEEE7__clearB8ue170006Ev, symObjAddr: 0x6678, symBinAddr: 0x10000D0AC, symSize: 0x64 }
  - { offsetInCU: 0xA358, offset: 0x1432A, size: 0x8, addend: 0x0, symName: __ZNKSt3__16vectorIfNS_9allocatorIfEEE17__annotate_deleteB8ue170006Ev, symObjAddr: 0x66DC, symBinAddr: 0x10000D110, symSize: 0xCC }
  - { offsetInCU: 0xA37C, offset: 0x1434E, size: 0x8, addend: 0x0, symName: __ZNSt3__116allocator_traitsINS_9allocatorIfEEE10deallocateB8ue170006ERS2_Pfm, symObjAddr: 0x67A8, symBinAddr: 0x10000D1DC, symSize: 0x34 }
  - { offsetInCU: 0xA3BE, offset: 0x14390, size: 0x8, addend: 0x0, symName: __ZNSt3__16vectorIfNS_9allocatorIfEEE22__base_destruct_at_endB8ue170006EPf, symObjAddr: 0x67DC, symBinAddr: 0x10000D210, symSize: 0x114 }
  - { offsetInCU: 0xA401, offset: 0x143D3, size: 0x8, addend: 0x0, symName: __ZNSt3__116allocator_traitsINS_9allocatorIfEEE7destroyB8ue170006IfvEEvRS2_PT_, symObjAddr: 0x68F0, symBinAddr: 0x10000D324, symSize: 0x2C }
  - { offsetInCU: 0xA43E, offset: 0x14410, size: 0x8, addend: 0x0, symName: __ZNSt3__19allocatorIfE7destroyB8ue170006EPf, symObjAddr: 0x691C, symBinAddr: 0x10000D350, symSize: 0x14 }
  - { offsetInCU: 0xA470, offset: 0x14442, size: 0x8, addend: 0x0, symName: __ZNSt3__19allocatorIfE10deallocateB8ue170006EPfm, symObjAddr: 0x6930, symBinAddr: 0x10000D364, symSize: 0x4C }
  - { offsetInCU: 0xA4B0, offset: 0x14482, size: 0x8, addend: 0x0, symName: __ZNSt3__16vectorIfNS_9allocatorIfEEED2B8ue170006Ev, symObjAddr: 0x6A84, symBinAddr: 0x10000D4B8, symSize: 0x1F4 }
  - { offsetInCU: 0xA4D9, offset: 0x144AB, size: 0x8, addend: 0x0, symName: __ZNSt3__16vectorI6VertexNS_9allocatorIS1_EEEC2B8ue170006Ev, symObjAddr: 0x6C78, symBinAddr: 0x10000D6AC, symSize: 0x2E8 }
  - { offsetInCU: 0xA502, offset: 0x144D4, size: 0x8, addend: 0x0, symName: __ZNSt3__117__compressed_pairIP6VertexNS_9allocatorIS1_EEEC1B8ue170006IDnNS_18__default_init_tagEEEOT_OT0_, symObjAddr: 0x6F60, symBinAddr: 0x10000D994, symSize: 0x3C }
  - { offsetInCU: 0xA558, offset: 0x1452A, size: 0x8, addend: 0x0, symName: __ZNSt3__117__compressed_pairIP6VertexNS_9allocatorIS1_EEEC2B8ue170006IDnNS_18__default_init_tagEEEOT_OT0_, symObjAddr: 0x6F9C, symBinAddr: 0x10000D9D0, symSize: 0x40 }
  - { offsetInCU: 0xA5AE, offset: 0x14580, size: 0x8, addend: 0x0, symName: __ZNSt3__122__compressed_pair_elemIP6VertexLi0ELb0EEC2B8ue170006IDnvEEOT_, symObjAddr: 0x6FDC, symBinAddr: 0x10000DA10, symSize: 0x64 }
  - { offsetInCU: 0xA5EE, offset: 0x145C0, size: 0x8, addend: 0x0, symName: __ZNSt3__122__compressed_pair_elemINS_9allocatorI6VertexEELi1ELb1EEC2B8ue170006ENS_18__default_init_tagE, symObjAddr: 0x7040, symBinAddr: 0x10000DA74, symSize: 0x2C }
  - { offsetInCU: 0xA621, offset: 0x145F3, size: 0x8, addend: 0x0, symName: __ZNSt3__19allocatorI6VertexEC2B8ue170006Ev, symObjAddr: 0x706C, symBinAddr: 0x10000DAA0, symSize: 0x2C }
  - { offsetInCU: 0xA649, offset: 0x1461B, size: 0x8, addend: 0x0, symName: __ZNSt3__116__non_trivial_ifILb1ENS_9allocatorI6VertexEEEC2B8ue170006Ev, symObjAddr: 0x7098, symBinAddr: 0x10000DACC, symSize: 0x14 }
  - { offsetInCU: 0xA672, offset: 0x14644, size: 0x8, addend: 0x0, symName: __ZNSt3__16vectorI6VertexNS_9allocatorIS1_EEED2B8ue170006Ev, symObjAddr: 0x70AC, symBinAddr: 0x10000DAE0, symSize: 0x1F8 }
  - { offsetInCU: 0xA69B, offset: 0x1466D, size: 0x8, addend: 0x0, symName: __ZNSt3__16vectorI6VertexNS_9allocatorIS1_EEE16__destroy_vectorC1B8ue170006ERS4_, symObjAddr: 0x72A4, symBinAddr: 0x10000DCD8, symSize: 0x34 }
  - { offsetInCU: 0xA6D2, offset: 0x146A4, size: 0x8, addend: 0x0, symName: __ZNSt3__16vectorI6VertexNS_9allocatorIS1_EEE16__destroy_vectorclB8ue170006Ev, symObjAddr: 0x72D8, symBinAddr: 0x10000DD0C, symSize: 0x228 }
  - { offsetInCU: 0xA6F6, offset: 0x146C8, size: 0x8, addend: 0x0, symName: __ZNSt3__16vectorI6VertexNS_9allocatorIS1_EEE16__destroy_vectorC2B8ue170006ERS4_, symObjAddr: 0x7500, symBinAddr: 0x10000DF34, symSize: 0x70 }
  - { offsetInCU: 0xA72D, offset: 0x146FF, size: 0x8, addend: 0x0, symName: __ZNSt3__16vectorI6VertexNS_9allocatorIS1_EEE7__clearB8ue170006Ev, symObjAddr: 0x7570, symBinAddr: 0x10000DFA4, symSize: 0x64 }
  - { offsetInCU: 0xA751, offset: 0x14723, size: 0x8, addend: 0x0, symName: __ZNKSt3__16vectorI6VertexNS_9allocatorIS1_EEE17__annotate_deleteB8ue170006Ev, symObjAddr: 0x75D4, symBinAddr: 0x10000E008, symSize: 0xCC }
  - { offsetInCU: 0xA775, offset: 0x14747, size: 0x8, addend: 0x0, symName: __ZNSt3__116allocator_traitsINS_9allocatorI6VertexEEE10deallocateB8ue170006ERS3_PS2_m, symObjAddr: 0x76A0, symBinAddr: 0x10000E0D4, symSize: 0x34 }
  - { offsetInCU: 0xA7B7, offset: 0x14789, size: 0x8, addend: 0x0, symName: __ZNSt3__16vectorI6VertexNS_9allocatorIS1_EEE7__allocB8ue170006Ev, symObjAddr: 0x76D4, symBinAddr: 0x10000E108, symSize: 0x28 }
  - { offsetInCU: 0xA7DB, offset: 0x147AD, size: 0x8, addend: 0x0, symName: __ZNKSt3__16vectorI6VertexNS_9allocatorIS1_EEE8capacityB8ue170006Ev, symObjAddr: 0x76FC, symBinAddr: 0x10000E130, symSize: 0xBC }
  - { offsetInCU: 0xA7FF, offset: 0x147D1, size: 0x8, addend: 0x0, symName: __ZNSt3__16vectorI6VertexNS_9allocatorIS1_EEE22__base_destruct_at_endB8ue170006EPS1_, symObjAddr: 0x77B8, symBinAddr: 0x10000E1EC, symSize: 0x114 }
  - { offsetInCU: 0xA842, offset: 0x14814, size: 0x8, addend: 0x0, symName: __ZNSt3__116allocator_traitsINS_9allocatorI6VertexEEE7destroyB8ue170006IS2_vEEvRS3_PT_, symObjAddr: 0x78CC, symBinAddr: 0x10000E300, symSize: 0x2C }
  - { offsetInCU: 0xA87F, offset: 0x14851, size: 0x8, addend: 0x0, symName: __ZNSt3__19allocatorI6VertexE7destroyB8ue170006EPS1_, symObjAddr: 0x790C, symBinAddr: 0x10000E340, symSize: 0x14 }
  - { offsetInCU: 0xA8B1, offset: 0x14883, size: 0x8, addend: 0x0, symName: __ZNKSt3__16vectorI6VertexNS_9allocatorIS1_EEE31__annotate_contiguous_containerEPKvS6_S6_S6_, symObjAddr: 0x7920, symBinAddr: 0x10000E354, symSize: 0x58 }
  - { offsetInCU: 0xA911, offset: 0x148E3, size: 0x8, addend: 0x0, symName: __ZNKSt3__16vectorI6VertexNS_9allocatorIS1_EEE4dataB8ue170006Ev, symObjAddr: 0x7978, symBinAddr: 0x10000E3AC, symSize: 0x64 }
  - { offsetInCU: 0xA935, offset: 0x14907, size: 0x8, addend: 0x0, symName: __ZNKSt3__16vectorI6VertexNS_9allocatorIS1_EEE4sizeB8ue170006Ev, symObjAddr: 0x79DC, symBinAddr: 0x10000E410, symSize: 0xB0 }
  - { offsetInCU: 0xA959, offset: 0x1492B, size: 0x8, addend: 0x0, symName: __ZNSt3__19allocatorI6VertexE10deallocateB8ue170006EPS1_m, symObjAddr: 0x7A8C, symBinAddr: 0x10000E4C0, symSize: 0x4C }
  - { offsetInCU: 0xA999, offset: 0x1496B, size: 0x8, addend: 0x0, symName: __ZNSt3__117__compressed_pairIP6VertexNS_9allocatorIS1_EEE6secondB8ue170006Ev, symObjAddr: 0x7AD8, symBinAddr: 0x10000E50C, symSize: 0x24 }
  - { offsetInCU: 0xA9BD, offset: 0x1498F, size: 0x8, addend: 0x0, symName: __ZNSt3__122__compressed_pair_elemINS_9allocatorI6VertexEELi1ELb1EE5__getB8ue170006Ev, symObjAddr: 0x7AFC, symBinAddr: 0x10000E530, symSize: 0x14 }
  - { offsetInCU: 0xA9E1, offset: 0x149B3, size: 0x8, addend: 0x0, symName: __ZNKSt3__16vectorI6VertexNS_9allocatorIS1_EEE9__end_capB8ue170006Ev, symObjAddr: 0x7B10, symBinAddr: 0x10000E544, symSize: 0x28 }
  - { offsetInCU: 0xAA05, offset: 0x149D7, size: 0x8, addend: 0x0, symName: __ZNKSt3__117__compressed_pairIP6VertexNS_9allocatorIS1_EEE5firstB8ue170006Ev, symObjAddr: 0x7B38, symBinAddr: 0x10000E56C, symSize: 0x24 }
  - { offsetInCU: 0xAA29, offset: 0x149FB, size: 0x8, addend: 0x0, symName: __ZNKSt3__122__compressed_pair_elemIP6VertexLi0ELb0EE5__getB8ue170006Ev, symObjAddr: 0x7B5C, symBinAddr: 0x10000E590, symSize: 0x14 }
  - { offsetInCU: 0xAA4D, offset: 0x14A1F, size: 0x8, addend: 0x0, symName: __ZNSt3__16vectorI6VertexNS_9allocatorIS1_EEE9__end_capB8ue170006Ev, symObjAddr: 0x7B70, symBinAddr: 0x10000E5A4, symSize: 0x28 }
  - { offsetInCU: 0xAA71, offset: 0x14A43, size: 0x8, addend: 0x0, symName: __ZNSt3__16vectorI6VertexNS_9allocatorIS1_EEE22__construct_one_at_endB8ue170006IJRKS1_EEEvDpOT_, symObjAddr: 0x7B98, symBinAddr: 0x10000E5CC, symSize: 0x36C }
  - { offsetInCU: 0xAAC4, offset: 0x14A96, size: 0x8, addend: 0x0, symName: __ZNSt3__16vectorI6VertexNS_9allocatorIS1_EEE21__push_back_slow_pathIRKS1_EEvOT_, symObjAddr: 0x7F04, symBinAddr: 0x10000E938, symSize: 0x3C0 }
  - { offsetInCU: 0xAB2A, offset: 0x14AFC, size: 0x8, addend: 0x0, symName: __ZNSt3__117__compressed_pairIP6VertexNS_9allocatorIS1_EEE5firstB8ue170006Ev, symObjAddr: 0x82C4, symBinAddr: 0x10000ECF8, symSize: 0x24 }
  - { offsetInCU: 0xAB4E, offset: 0x14B20, size: 0x8, addend: 0x0, symName: __ZNSt3__122__compressed_pair_elemIP6VertexLi0ELb0EE5__getB8ue170006Ev, symObjAddr: 0x82E8, symBinAddr: 0x10000ED1C, symSize: 0x14 }
  - { offsetInCU: 0xAB8B, offset: 0x14B5D, size: 0x8, addend: 0x0, symName: __ZNSt3__16vectorI6VertexNS_9allocatorIS1_EEE21_ConstructTransactionC1B8ue170006ERS4_m, symObjAddr: 0x82FC, symBinAddr: 0x10000ED30, symSize: 0x3C }
  - { offsetInCU: 0xABD1, offset: 0x14BA3, size: 0x8, addend: 0x0, symName: __ZNSt3__116allocator_traitsINS_9allocatorI6VertexEEE9constructB8ue170006IS2_JRKS2_EvEEvRS3_PT_DpOT0_, symObjAddr: 0x8338, symBinAddr: 0x10000ED6C, symSize: 0x34 }
  - { offsetInCU: 0xAC28, offset: 0x14BFA, size: 0x8, addend: 0x0, symName: __ZNSt3__16vectorI6VertexNS_9allocatorIS1_EEE21_ConstructTransactionD1B8ue170006Ev, symObjAddr: 0x836C, symBinAddr: 0x10000EDA0, symSize: 0x2C }
  - { offsetInCU: 0xAC50, offset: 0x14C22, size: 0x8, addend: 0x0, symName: __ZNSt3__16vectorI6VertexNS_9allocatorIS1_EEE21_ConstructTransactionC2B8ue170006ERS4_m, symObjAddr: 0x8398, symBinAddr: 0x10000EDCC, symSize: 0x1D0 }
  - { offsetInCU: 0xAC96, offset: 0x14C68, size: 0x8, addend: 0x0, symName: __ZNKSt3__16vectorI6VertexNS_9allocatorIS1_EEE19__annotate_increaseB8ue170006Em, symObjAddr: 0x8568, symBinAddr: 0x10000EF9C, symSize: 0xD8 }
  - { offsetInCU: 0xACC9, offset: 0x14C9B, size: 0x8, addend: 0x0, symName: __ZNSt3__19allocatorI6VertexE9constructB8ue170006IS1_JRKS1_EEEvPT_DpOT0_, symObjAddr: 0x8640, symBinAddr: 0x10000F074, symSize: 0x34 }
  - { offsetInCU: 0xAD1D, offset: 0x14CEF, size: 0x8, addend: 0x0, symName: __ZNSt3__16vectorI6VertexNS_9allocatorIS1_EEE21_ConstructTransactionD2B8ue170006Ev, symObjAddr: 0x8674, symBinAddr: 0x10000F0A8, symSize: 0x278 }
  - { offsetInCU: 0xAD45, offset: 0x14D17, size: 0x8, addend: 0x0, symName: __ZNKSt3__16vectorI6VertexNS_9allocatorIS1_EEE17__annotate_shrinkB8ue170006Em, symObjAddr: 0x88EC, symBinAddr: 0x10000F320, symSize: 0xC8 }
  - { offsetInCU: 0xAD77, offset: 0x14D49, size: 0x8, addend: 0x0, symName: __ZNKSt3__16vectorI6VertexNS_9allocatorIS1_EEE11__recommendB8ue170006Em, symObjAddr: 0x89B4, symBinAddr: 0x10000F3E8, symSize: 0x384 }
  - { offsetInCU: 0xADD3, offset: 0x14DA5, size: 0x8, addend: 0x0, symName: __ZNSt3__114__split_bufferI6VertexRNS_9allocatorIS1_EEEC1EmmS4_, symObjAddr: 0x8D38, symBinAddr: 0x10000F76C, symSize: 0x44 }
  - { offsetInCU: 0xAE28, offset: 0x14DFA, size: 0x8, addend: 0x0, symName: __ZNSt3__114__split_bufferI6VertexRNS_9allocatorIS1_EEED1Ev, symObjAddr: 0x92E8, symBinAddr: 0x10000FD1C, symSize: 0x2C }
  - { offsetInCU: 0xAE53, offset: 0x14E25, size: 0x8, addend: 0x0, symName: __ZNKSt3__16vectorI6VertexNS_9allocatorIS1_EEE8max_sizeEv, symObjAddr: 0x9314, symBinAddr: 0x10000FD48, symSize: 0x2FC }
  - { offsetInCU: 0xAE7B, offset: 0x14E4D, size: 0x8, addend: 0x0, symName: __ZNKSt3__16vectorI6VertexNS_9allocatorIS1_EEE20__throw_length_errorB8ue170006Ev, symObjAddr: 0x9610, symBinAddr: 0x100010044, symSize: 0x20 }
  - { offsetInCU: 0xAEA9, offset: 0x14E7B, size: 0x8, addend: 0x0, symName: __ZNSt3__116allocator_traitsINS_9allocatorI6VertexEEE8max_sizeB8ue170006IS3_vEEmRKS3_, symObjAddr: 0x965C, symBinAddr: 0x100010090, symSize: 0x24 }
  - { offsetInCU: 0xAED7, offset: 0x14EA9, size: 0x8, addend: 0x0, symName: __ZNKSt3__16vectorI6VertexNS_9allocatorIS1_EEE7__allocB8ue170006Ev, symObjAddr: 0x9680, symBinAddr: 0x1000100B4, symSize: 0x28 }
  - { offsetInCU: 0xAEFB, offset: 0x14ECD, size: 0x8, addend: 0x0, symName: __ZNKSt3__19allocatorI6VertexE8max_sizeB8ue170006Ev, symObjAddr: 0x96A8, symBinAddr: 0x1000100DC, symSize: 0x14 }
  - { offsetInCU: 0xAF1F, offset: 0x14EF1, size: 0x8, addend: 0x0, symName: __ZNKSt3__117__compressed_pairIP6VertexNS_9allocatorIS1_EEE6secondB8ue170006Ev, symObjAddr: 0x96BC, symBinAddr: 0x1000100F0, symSize: 0x24 }
  - { offsetInCU: 0xAF43, offset: 0x14F15, size: 0x8, addend: 0x0, symName: __ZNKSt3__122__compressed_pair_elemINS_9allocatorI6VertexEELi1ELb1EE5__getB8ue170006Ev, symObjAddr: 0x96E0, symBinAddr: 0x100010114, symSize: 0x14 }
  - { offsetInCU: 0xAF66, offset: 0x14F38, size: 0x8, addend: 0x0, symName: __ZNSt3__114__split_bufferI6VertexRNS_9allocatorIS1_EEEC2EmmS4_, symObjAddr: 0x98DC, symBinAddr: 0x100010310, symSize: 0x520 }
  - { offsetInCU: 0xAFE2, offset: 0x14FB4, size: 0x8, addend: 0x0, symName: __ZNSt3__117__compressed_pairIP6VertexRNS_9allocatorIS1_EEEC1B8ue170006IDnS5_EEOT_OT0_, symObjAddr: 0x9DFC, symBinAddr: 0x100010830, symSize: 0x3C }
  - { offsetInCU: 0xB038, offset: 0x1500A, size: 0x8, addend: 0x0, symName: __ZNSt3__114__split_bufferI6VertexRNS_9allocatorIS1_EEE7__allocB8ue170006Ev, symObjAddr: 0xA0C4, symBinAddr: 0x100010AF8, symSize: 0x28 }
  - { offsetInCU: 0xB05C, offset: 0x1502E, size: 0x8, addend: 0x0, symName: __ZNSt3__114__split_bufferI6VertexRNS_9allocatorIS1_EEE9__end_capB8ue170006Ev, symObjAddr: 0xA0EC, symBinAddr: 0x100010B20, symSize: 0x28 }
  - { offsetInCU: 0xB080, offset: 0x15052, size: 0x8, addend: 0x0, symName: __ZNSt3__117__compressed_pairIP6VertexRNS_9allocatorIS1_EEEC2B8ue170006IDnS5_EEOT_OT0_, symObjAddr: 0xA114, symBinAddr: 0x100010B48, symSize: 0x48 }
  - { offsetInCU: 0xB0D6, offset: 0x150A8, size: 0x8, addend: 0x0, symName: __ZNSt3__122__compressed_pair_elemIRNS_9allocatorI6VertexEELi1ELb0EEC2B8ue170006IS4_vEEOT_, symObjAddr: 0xA15C, symBinAddr: 0x100010B90, symSize: 0x70 }
  - { offsetInCU: 0xB116, offset: 0x150E8, size: 0x8, addend: 0x0, symName: __ZNSt3__19allocatorI6VertexE8allocateB8ue170006Em, symObjAddr: 0xA1CC, symBinAddr: 0x100010C00, symSize: 0x5C }
  - { offsetInCU: 0xB148, offset: 0x1511A, size: 0x8, addend: 0x0, symName: __ZNSt3__117__compressed_pairIP6VertexRNS_9allocatorIS1_EEE6secondB8ue170006Ev, symObjAddr: 0xA228, symBinAddr: 0x100010C5C, symSize: 0x28 }
  - { offsetInCU: 0xB16C, offset: 0x1513E, size: 0x8, addend: 0x0, symName: __ZNSt3__122__compressed_pair_elemIRNS_9allocatorI6VertexEELi1ELb0EE5__getB8ue170006Ev, symObjAddr: 0xA250, symBinAddr: 0x100010C84, symSize: 0x60 }
  - { offsetInCU: 0xB190, offset: 0x15162, size: 0x8, addend: 0x0, symName: __ZNSt3__117__compressed_pairIP6VertexRNS_9allocatorIS1_EEE5firstB8ue170006Ev, symObjAddr: 0xA2B0, symBinAddr: 0x100010CE4, symSize: 0x24 }
  - { offsetInCU: 0xB1B4, offset: 0x15186, size: 0x8, addend: 0x0, symName: __ZNSt3__116reverse_iteratorIP6VertexEC1B8ue170006ES2_, symObjAddr: 0xA77C, symBinAddr: 0x1000111B0, symSize: 0x34 }
  - { offsetInCU: 0xB1EA, offset: 0x151BC, size: 0x8, addend: 0x0, symName: __ZNKSt3__116reverse_iteratorIP6VertexE4baseB8ue170006Ev, symObjAddr: 0xA7B0, symBinAddr: 0x1000111E4, symSize: 0x64 }
  - { offsetInCU: 0xB20E, offset: 0x151E0, size: 0x8, addend: 0x0, symName: __ZNKSt3__16vectorI6VertexNS_9allocatorIS1_EEE14__annotate_newB8ue170006Em, symObjAddr: 0xA948, symBinAddr: 0x10001137C, symSize: 0xC0 }
  - { offsetInCU: 0xB264, offset: 0x15236, size: 0x8, addend: 0x0, symName: __ZNKSt3__111__move_loopINS_17_ClassicAlgPolicyEEclB8ue170006INS_16reverse_iteratorIP6VertexEES7_S7_EENS_4pairIT_T1_EES9_T0_SA_, symObjAddr: 0xC3C8, symBinAddr: 0x100012DFC, symSize: 0x344 }
  - { offsetInCU: 0xB2DF, offset: 0x152B1, size: 0x8, addend: 0x0, symName: __ZNSt3__18_IterOpsINS_17_ClassicAlgPolicyEE11__iter_moveB8ue170006IRNS_16reverse_iteratorIP6VertexEEEENS_9enable_ifIXsr12is_referenceIDTdeclsr3stdE7declvalIRT_EEEEE5valueEDTclsr3stdE4movedeclsr3stdE7declvalISB_EEEEE4typeEOSA_, symObjAddr: 0xD234, symBinAddr: 0x100013C68, symSize: 0x28 }
  - { offsetInCU: 0xB30B, offset: 0x152DD, size: 0x8, addend: 0x0, symName: __ZNKSt3__116reverse_iteratorIP6VertexEdeB8ue170006Ev, symObjAddr: 0xD25C, symBinAddr: 0x100013C90, symSize: 0x74 }
  - { offsetInCU: 0xB33D, offset: 0x1530F, size: 0x8, addend: 0x0, symName: __ZNSt3__116reverse_iteratorIP6VertexEppB8ue170006Ev, symObjAddr: 0xD2D0, symBinAddr: 0x100013D04, symSize: 0x6C }
  - { offsetInCU: 0xB361, offset: 0x15333, size: 0x8, addend: 0x0, symName: __ZNSt3__18_IterOpsINS_17_ClassicAlgPolicyEE25__validate_iter_referenceB8ue170006IRNS_16reverse_iteratorIP6VertexEEEEvv, symObjAddr: 0xD33C, symBinAddr: 0x100013D70, symSize: 0x4 }
  - { offsetInCU: 0xB37F, offset: 0x15351, size: 0x8, addend: 0x0, symName: __ZNSt3__118__unwrap_iter_implINS_16reverse_iteratorIP6VertexEELb0EE8__unwrapB8ue170006ES4_, symObjAddr: 0xD340, symBinAddr: 0x100013D74, symSize: 0x274 }
  - { offsetInCU: 0xB3AB, offset: 0x1537D, size: 0x8, addend: 0x0, symName: __ZNSt3__14pairINS_16reverse_iteratorIP6VertexEES4_EC1B8ue170006IS4_S4_LPv0EEEOT_OT0_, symObjAddr: 0xD5B4, symBinAddr: 0x100013FE8, symSize: 0x3C }
  - { offsetInCU: 0xB408, offset: 0x153DA, size: 0x8, addend: 0x0, symName: __ZNSt3__14pairINS_16reverse_iteratorIP6VertexEES4_EC2B8ue170006IS4_S4_LPv0EEEOT_OT0_, symObjAddr: 0xD5F0, symBinAddr: 0x100014024, symSize: 0x54 }
  - { offsetInCU: 0xB465, offset: 0x15437, size: 0x8, addend: 0x0, symName: __ZNSt3__118__unwrap_iter_implINS_16reverse_iteratorIP6VertexEELb0EE8__rewrapB8ue170006ES4_S4_, symObjAddr: 0xD644, symBinAddr: 0x100014078, symSize: 0x2E0 }
  - { offsetInCU: 0xB49B, offset: 0x1546D, size: 0x8, addend: 0x0, symName: __ZNSt3__116reverse_iteratorIP6VertexEC2B8ue170006ES2_, symObjAddr: 0xD924, symBinAddr: 0x100014358, symSize: 0xB8 }
  - { offsetInCU: 0xB4D0, offset: 0x154A2, size: 0x8, addend: 0x0, symName: __ZNSt3__114__split_bufferI6VertexRNS_9allocatorIS1_EEED2Ev, symObjAddr: 0xD9DC, symBinAddr: 0x100014410, symSize: 0x104 }
  - { offsetInCU: 0xB4FC, offset: 0x154CE, size: 0x8, addend: 0x0, symName: __ZNSt3__114__split_bufferI6VertexRNS_9allocatorIS1_EEE5clearB8ue170006Ev, symObjAddr: 0xDAE0, symBinAddr: 0x100014514, symSize: 0x68 }
  - { offsetInCU: 0xB520, offset: 0x154F2, size: 0x8, addend: 0x0, symName: __ZNKSt3__114__split_bufferI6VertexRNS_9allocatorIS1_EEE8capacityB8ue170006Ev, symObjAddr: 0xDB48, symBinAddr: 0x10001457C, symSize: 0xBC }
  - { offsetInCU: 0xB544, offset: 0x15516, size: 0x8, addend: 0x0, symName: __ZNSt3__114__split_bufferI6VertexRNS_9allocatorIS1_EEE17__destruct_at_endB8ue170006EPS1_, symObjAddr: 0xDC04, symBinAddr: 0x100014638, symSize: 0x2C }
  - { offsetInCU: 0xB575, offset: 0x15547, size: 0x8, addend: 0x0, symName: __ZNSt3__114__split_bufferI6VertexRNS_9allocatorIS1_EEE17__destruct_at_endB8ue170006EPS1_NS_17integral_constantIbLb0EEE, symObjAddr: 0xDC30, symBinAddr: 0x100014664, symSize: 0x10C }
  - { offsetInCU: 0xB5B5, offset: 0x15587, size: 0x8, addend: 0x0, symName: __ZNKSt3__114__split_bufferI6VertexRNS_9allocatorIS1_EEE9__end_capB8ue170006Ev, symObjAddr: 0xDD3C, symBinAddr: 0x100014770, symSize: 0x28 }
  - { offsetInCU: 0xB5D9, offset: 0x155AB, size: 0x8, addend: 0x0, symName: __ZNKSt3__117__compressed_pairIP6VertexRNS_9allocatorIS1_EEE5firstB8ue170006Ev, symObjAddr: 0xDD64, symBinAddr: 0x100014798, symSize: 0x24 }
  - { offsetInCU: 0x3C, offset: 0x156CD, size: 0x8, addend: 0x0, symName: _.str, symObjAddr: 0xE840, symBinAddr: 0x100491020, symSize: 0x0 }
  - { offsetInCU: 0x466E, offset: 0x19CFF, size: 0x8, addend: 0x0, symName: __ZNSt3__112__to_addressB8ue170006IP5LayerEEPT_S4_, symObjAddr: 0x206C, symBinAddr: 0x100016870, symSize: 0x14 }
  - { offsetInCU: 0x46A4, offset: 0x19D35, size: 0x8, addend: 0x0, symName: __ZNSt3__1miB8ue170006IPKP5LayerPS2_EEDTmicldtfp_4baseEcldtfp0_4baseEERKNS_11__wrap_iterIT_EERKNS7_IT0_EE, symObjAddr: 0x26AC, symBinAddr: 0x100016AE8, symSize: 0x48 }
  - { offsetInCU: 0x478B, offset: 0x19E1C, size: 0x8, addend: 0x0, symName: __ZNSt3__113move_backwardB8ue170006IPP5LayerS3_EET0_T_S5_S4_, symObjAddr: 0x4CF4, symBinAddr: 0x100019130, symSize: 0x26C }
  - { offsetInCU: 0x47E8, offset: 0x19E79, size: 0x8, addend: 0x0, symName: __ZNSt3__115__move_backwardB8ue170006INS_17_ClassicAlgPolicyEPP5LayerS4_S4_EENS_4pairIT0_T2_EES6_T1_S7_, symObjAddr: 0x5014, symBinAddr: 0x100019450, symSize: 0x22C }
  - { offsetInCU: 0x4857, offset: 0x19EE8, size: 0x8, addend: 0x0, symName: __ZNSt3__123__dispatch_copy_or_moveB8ue170006INS_17_ClassicAlgPolicyENS_20__move_backward_loopIS1_EENS_23__move_backward_trivialEPP5LayerS7_S7_EENS_4pairIT2_T4_EES9_T3_SA_, symObjAddr: 0x5240, symBinAddr: 0x10001967C, symSize: 0x22C }
  - { offsetInCU: 0x48D8, offset: 0x19F69, size: 0x8, addend: 0x0, symName: __ZNSt3__121__unwrap_and_dispatchB8ue170006INS_10__overloadINS_20__move_backward_loopINS_17_ClassicAlgPolicyEEENS_23__move_backward_trivialEEEPP5LayerS9_S9_Li0EEENS_4pairIT0_T2_EESB_T1_SC_, symObjAddr: 0x546C, symBinAddr: 0x1000198A8, symSize: 0x5A4 }
  - { offsetInCU: 0x4972, offset: 0x1A003, size: 0x8, addend: 0x0, symName: __ZNSt3__114__unwrap_rangeB8ue170006IPP5LayerS3_EENS_4pairIT0_S5_EET_S7_, symObjAddr: 0x5A10, symBinAddr: 0x100019E4C, symSize: 0x350 }
  - { offsetInCU: 0x4B3C, offset: 0x1A1CD, size: 0x8, addend: 0x0, symName: __ZNSt3__113__unwrap_iterB8ue170006IPP5LayerNS_18__unwrap_iter_implIS3_Lb1EEELi0EEEDTclsrT0_8__unwrapclsr3stdE7declvalIT_EEEES7_, symObjAddr: 0x5F90, symBinAddr: 0x10001A3CC, symSize: 0x24 }
  - { offsetInCU: 0x4B81, offset: 0x1A212, size: 0x8, addend: 0x0, symName: __ZNSt3__19make_pairB8ue170006IPP5LayerS3_EENS_4pairINS_18__unwrap_ref_decayIT_E4typeENS5_IT0_E4typeEEEOS6_OS9_, symObjAddr: 0x5FB4, symBinAddr: 0x10001A3F0, symSize: 0x20C }
  - { offsetInCU: 0x4BD2, offset: 0x1A263, size: 0x8, addend: 0x0, symName: __ZNSt3__114__rewrap_rangeB8ue170006IPP5LayerS3_EET_S4_T0_, symObjAddr: 0x61C0, symBinAddr: 0x10001A5FC, symSize: 0x2C }
  - { offsetInCU: 0x4C1E, offset: 0x1A2AF, size: 0x8, addend: 0x0, symName: __ZNSt3__113__rewrap_iterB8ue170006IPP5LayerS3_NS_18__unwrap_iter_implIS3_Lb1EEEEET_S6_T0_, symObjAddr: 0x61EC, symBinAddr: 0x10001A628, symSize: 0x48 }
  - { offsetInCU: 0x4C73, offset: 0x1A304, size: 0x8, addend: 0x0, symName: __ZNSt3__128__copy_backward_trivial_implB8ue170006IP5LayerS2_EENS_4pairIPT_PT0_EES5_S5_S7_, symObjAddr: 0x6234, symBinAddr: 0x10001A670, symSize: 0x3DC }
  - { offsetInCU: 0x4CE5, offset: 0x1A376, size: 0x8, addend: 0x0, symName: __ZNSt3__119__constexpr_memmoveB8ue170006IP5LayerS2_Li0EEEPT_S4_PT0_NS_15__element_countE, symObjAddr: 0x6610, symBinAddr: 0x10001AA4C, symSize: 0x64 }
  - { offsetInCU: 0x4D54, offset: 0x1A3E5, size: 0x8, addend: 0x0, symName: __ZNSt3__19make_pairB8ue170006IRPP5LayerS4_EENS_4pairINS_18__unwrap_ref_decayIT_E4typeENS6_IT0_E4typeEEEOS7_OSA_, symObjAddr: 0x6674, symBinAddr: 0x10001AAB0, symSize: 0x20C }
  - { offsetInCU: 0x4DF8, offset: 0x1A489, size: 0x8, addend: 0x0, symName: __ZNSt3__119__allocate_at_leastB8ue170006INS_9allocatorIP5LayerEEEENS_19__allocation_resultINS_16allocator_traitsIT_E7pointerEEERS7_m, symObjAddr: 0x7BA4, symBinAddr: 0x10001B9B8, symSize: 0x28C }
  - { offsetInCU: 0x4E3D, offset: 0x1A4CE, size: 0x8, addend: 0x0, symName: __ZNSt3__14moveB8ue170006IPP5LayerS3_EET0_T_S5_S4_, symObjAddr: 0x818C, symBinAddr: 0x10001BEB8, symSize: 0x26C }
  - { offsetInCU: 0x4E9A, offset: 0x1A52B, size: 0x8, addend: 0x0, symName: __ZNSt3__14swapB8ue170006IPP5LayerEENS_9enable_ifIXaasr21is_move_constructibleIT_EE5valuesr18is_move_assignableIS5_EE5valueEvE4typeERS5_S8_, symObjAddr: 0x8800, symBinAddr: 0x10001C52C, symSize: 0x134 }
  - { offsetInCU: 0x4EEB, offset: 0x1A57C, size: 0x8, addend: 0x0, symName: __ZNSt3__16__moveB8ue170006INS_17_ClassicAlgPolicyEPP5LayerS4_S4_EENS_4pairIT0_T2_EES6_T1_S7_, symObjAddr: 0x8934, symBinAddr: 0x10001C660, symSize: 0x22C }
  - { offsetInCU: 0x4F5A, offset: 0x1A5EB, size: 0x8, addend: 0x0, symName: __ZNSt3__123__dispatch_copy_or_moveB8ue170006INS_17_ClassicAlgPolicyENS_11__move_loopIS1_EENS_14__move_trivialEPP5LayerS7_S7_EENS_4pairIT2_T4_EES9_T3_SA_, symObjAddr: 0x8B60, symBinAddr: 0x10001C88C, symSize: 0x22C }
  - { offsetInCU: 0x4FDB, offset: 0x1A66C, size: 0x8, addend: 0x0, symName: __ZNSt3__121__unwrap_and_dispatchB8ue170006INS_10__overloadINS_11__move_loopINS_17_ClassicAlgPolicyEEENS_14__move_trivialEEEPP5LayerS9_S9_Li0EEENS_4pairIT0_T2_EESB_T1_SC_, symObjAddr: 0x8D8C, symBinAddr: 0x10001CAB8, symSize: 0x5A4 }
  - { offsetInCU: 0x50BC, offset: 0x1A74D, size: 0x8, addend: 0x0, symName: __ZNSt3__119__copy_trivial_implB8ue170006IP5LayerS2_EENS_4pairIPT_PT0_EES5_S5_S7_, symObjAddr: 0x9560, symBinAddr: 0x10001D28C, symSize: 0x3B4 }
  - { offsetInCU: 0x512B, offset: 0x1A7BC, size: 0x8, addend: 0x0, symName: __ZNSt3__19make_pairB8ue170006IRPP5LayerS3_EENS_4pairINS_18__unwrap_ref_decayIT_E4typeENS6_IT0_E4typeEEEOS7_OSA_, symObjAddr: 0x9914, symBinAddr: 0x10001D640, symSize: 0x20C }
  - { offsetInCU: 0x517C, offset: 0x1A80D, size: 0x8, addend: 0x0, symName: __ZNSt3__18distanceB8ue170006INS_13move_iteratorIPP5LayerEEEENS_15iterator_traitsIT_E15difference_typeES7_S7_, symObjAddr: 0xA118, symBinAddr: 0x10001DE44, symSize: 0x350 }
  - { offsetInCU: 0x51C7, offset: 0x1A858, size: 0x8, addend: 0x0, symName: __ZNSt3__110__distanceB8ue170006INS_13move_iteratorIPP5LayerEEEENS_15iterator_traitsIT_E15difference_typeES7_S7_NS_26random_access_iterator_tagE, symObjAddr: 0xA7FC, symBinAddr: 0x10001E528, symSize: 0x274 }
  - { offsetInCU: 0x521E, offset: 0x1A8AF, size: 0x8, addend: 0x0, symName: __ZNSt3__1miB8ue170006IPP5LayerS3_EEDTmicldtfp_4baseEcldtfp0_4baseEERKNS_13move_iteratorIT_EERKNS5_IT0_EE, symObjAddr: 0xAA70, symBinAddr: 0x10001E79C, symSize: 0x48 }
  - { offsetInCU: 0x526D, offset: 0x1A8FE, size: 0x8, addend: 0x0, symName: __ZNSt3__142__uninitialized_allocator_move_if_noexceptB8ue170006INS_9allocatorIP5LayerEENS_16reverse_iteratorIPS3_EES7_S3_vEET1_RT_T0_SB_S8_, symObjAddr: 0xAB88, symBinAddr: 0x10001E8B4, symSize: 0x4A8 }
  - { offsetInCU: 0x52F8, offset: 0x1A989, size: 0x8, addend: 0x0, symName: __ZNSt3__142__uninitialized_allocator_move_if_noexceptB8ue170006INS_9allocatorIP5LayerEEPS3_S5_S3_vEET1_RT_T0_S9_S6_, symObjAddr: 0xB0C8, symBinAddr: 0x10001EDF4, symSize: 0x38 }
  - { offsetInCU: 0x5375, offset: 0x1AA06, size: 0x8, addend: 0x0, symName: __ZNSt3__14moveB8ue170006INS_16reverse_iteratorIPP5LayerEES5_EET0_T_S7_S6_, symObjAddr: 0xB1C0, symBinAddr: 0x10001EEEC, symSize: 0x4B0 }
  - { offsetInCU: 0x53DC, offset: 0x1AA6D, size: 0x8, addend: 0x0, symName: __ZNSt3__16__moveB8ue170006INS_17_ClassicAlgPolicyENS_16reverse_iteratorIPP5LayerEES6_S6_EENS_4pairIT0_T2_EES8_T1_S9_, symObjAddr: 0xB670, symBinAddr: 0x10001F39C, symSize: 0x424 }
  - { offsetInCU: 0x5454, offset: 0x1AAE5, size: 0x8, addend: 0x0, symName: __ZNSt3__123__dispatch_copy_or_moveB8ue170006INS_17_ClassicAlgPolicyENS_11__move_loopIS1_EENS_14__move_trivialENS_16reverse_iteratorIPP5LayerEES9_S9_EENS_4pairIT2_T4_EESB_T3_SC_, symObjAddr: 0xBA94, symBinAddr: 0x10001F7C0, symSize: 0x424 }
  - { offsetInCU: 0x54DE, offset: 0x1AB6F, size: 0x8, addend: 0x0, symName: __ZNSt3__121__unwrap_and_dispatchB8ue170006INS_10__overloadINS_11__move_loopINS_17_ClassicAlgPolicyEEENS_14__move_trivialEEENS_16reverse_iteratorIPP5LayerEESB_SB_Li0EEENS_4pairIT0_T2_EESD_T1_SE_, symObjAddr: 0xBEB8, symBinAddr: 0x10001FBE4, symSize: 0x880 }
  - { offsetInCU: 0x5583, offset: 0x1AC14, size: 0x8, addend: 0x0, symName: __ZNSt3__114__unwrap_rangeB8ue170006INS_16reverse_iteratorIPP5LayerEES5_EENS_4pairIT0_S7_EET_S9_, symObjAddr: 0xC738, symBinAddr: 0x100020464, symSize: 0x448 }
  - { offsetInCU: 0x56FE, offset: 0x1AD8F, size: 0x8, addend: 0x0, symName: __ZNSt3__113__unwrap_iterB8ue170006INS_16reverse_iteratorIPP5LayerEENS_18__unwrap_iter_implIS5_Lb0EEELi0EEEDTclsrT0_8__unwrapclsr3stdE7declvalIT_EEEES9_, symObjAddr: 0xCF28, symBinAddr: 0x100020C54, symSize: 0x2EC }
  - { offsetInCU: 0x5747, offset: 0x1ADD8, size: 0x8, addend: 0x0, symName: __ZNSt3__19make_pairB8ue170006INS_16reverse_iteratorIPP5LayerEES5_EENS_4pairINS_18__unwrap_ref_decayIT_E4typeENS7_IT0_E4typeEEEOS8_OSB_, symObjAddr: 0xD214, symBinAddr: 0x100020F40, symSize: 0x38 }
  - { offsetInCU: 0x5796, offset: 0x1AE27, size: 0x8, addend: 0x0, symName: __ZNSt3__114__rewrap_rangeB8ue170006INS_16reverse_iteratorIPP5LayerEES5_EET_S6_T0_, symObjAddr: 0xD24C, symBinAddr: 0x100020F78, symSize: 0x3D4 }
  - { offsetInCU: 0x57EA, offset: 0x1AE7B, size: 0x8, addend: 0x0, symName: __ZNSt3__113__rewrap_iterB8ue170006INS_16reverse_iteratorIPP5LayerEES5_NS_18__unwrap_iter_implIS5_Lb0EEEEET_S8_T0_, symObjAddr: 0xD620, symBinAddr: 0x10002134C, symSize: 0x3E8 }
  - { offsetInCU: 0x5847, offset: 0x1AED8, size: 0x8, addend: 0x0, symName: __ZNSt3__1neB8ue170006IPP5LayerS3_EEbRKNS_16reverse_iteratorIT_EERKNS4_IT0_EE, symObjAddr: 0xDA08, symBinAddr: 0x100021734, symSize: 0x48 }
  - { offsetInCU: 0x5D8E, offset: 0x1B41F, size: 0x8, addend: 0x0, symName: __ZNSt3__16vectorIP5LayerNS_9allocatorIS2_EEE26__swap_out_circular_bufferERNS_14__split_bufferIS2_RS4_EEPS2_, symObjAddr: 0x3D68, symBinAddr: 0x1000181A4, symSize: 0x678 }
  - { offsetInCU: 0x7C9D, offset: 0x1D32E, size: 0x8, addend: 0x0, symName: __ZN10LayerStackD2Ev, symObjAddr: 0x0, symBinAddr: 0x100014E88, symSize: 0x3C8 }
  - { offsetInCU: 0x7D21, offset: 0x1D3B2, size: 0x8, addend: 0x0, symName: __ZNSt3__16vectorIP5LayerNS_9allocatorIS2_EEED1B8ue170006Ev, symObjAddr: 0x998, symBinAddr: 0x100015250, symSize: 0x2C }
  - { offsetInCU: 0x7D49, offset: 0x1D3DA, size: 0x8, addend: 0x0, symName: __ZN10LayerStackD1Ev, symObjAddr: 0x9C4, symBinAddr: 0x10001527C, symSize: 0x2C }
  - { offsetInCU: 0x7D75, offset: 0x1D406, size: 0x8, addend: 0x0, symName: __ZN10LayerStack9PushLayerEP5Layer, symObjAddr: 0x9F0, symBinAddr: 0x1000152A8, symSize: 0x3A8 }
  - { offsetInCU: 0x7DAD, offset: 0x1D43E, size: 0x8, addend: 0x0, symName: __ZNSt3__16vectorIP5LayerNS_9allocatorIS2_EEE7emplaceIJRS2_EEENS_11__wrap_iterIPS2_EENS8_IPKS2_EEDpOT_, symObjAddr: 0xD98, symBinAddr: 0x100015650, symSize: 0x81C }
  - { offsetInCU: 0x7E66, offset: 0x1D4F7, size: 0x8, addend: 0x0, symName: __ZNSt3__111__wrap_iterIPKP5LayerEC1B8ue170006IPS2_EERKNS0_IT_EEPNS_9enable_ifIXsr14is_convertibleIS8_S4_EE5valueEvE4typeE, symObjAddr: 0x15B4, symBinAddr: 0x100015E6C, symSize: 0x3C }
  - { offsetInCU: 0x7EB1, offset: 0x1D542, size: 0x8, addend: 0x0, symName: __ZN10LayerStack11PushOverlayEP5Layer, symObjAddr: 0x15F0, symBinAddr: 0x100015EA8, symSize: 0xF8 }
  - { offsetInCU: 0x7EE4, offset: 0x1D575, size: 0x8, addend: 0x0, symName: __ZNSt3__111__wrap_iterIPKP5LayerEC2B8ue170006IPS2_EERKNS0_IT_EEPNS_9enable_ifIXsr14is_convertibleIS8_S4_EE5valueEvE4typeE, symObjAddr: 0x1790, symBinAddr: 0x100015FA0, symSize: 0x84 }
  - { offsetInCU: 0x7F2E, offset: 0x1D5BF, size: 0x8, addend: 0x0, symName: __ZNSt3__16vectorIP5LayerNS_9allocatorIS2_EEED2B8ue170006Ev, symObjAddr: 0x1814, symBinAddr: 0x100016024, symSize: 0x1F8 }
  - { offsetInCU: 0x7F57, offset: 0x1D5E8, size: 0x8, addend: 0x0, symName: __ZNSt3__16vectorIP5LayerNS_9allocatorIS2_EEE16__destroy_vectorC1B8ue170006ERS5_, symObjAddr: 0x1A0C, symBinAddr: 0x10001621C, symSize: 0x34 }
  - { offsetInCU: 0x7F8E, offset: 0x1D61F, size: 0x8, addend: 0x0, symName: __ZNSt3__16vectorIP5LayerNS_9allocatorIS2_EEE16__destroy_vectorclB8ue170006Ev, symObjAddr: 0x1A4C, symBinAddr: 0x100016250, symSize: 0x228 }
  - { offsetInCU: 0x7FB2, offset: 0x1D643, size: 0x8, addend: 0x0, symName: __ZNSt3__16vectorIP5LayerNS_9allocatorIS2_EEE16__destroy_vectorC2B8ue170006ERS5_, symObjAddr: 0x1C74, symBinAddr: 0x100016478, symSize: 0x70 }
  - { offsetInCU: 0x7FE9, offset: 0x1D67A, size: 0x8, addend: 0x0, symName: __ZNSt3__16vectorIP5LayerNS_9allocatorIS2_EEE7__clearB8ue170006Ev, symObjAddr: 0x1CE4, symBinAddr: 0x1000164E8, symSize: 0x64 }
  - { offsetInCU: 0x800D, offset: 0x1D69E, size: 0x8, addend: 0x0, symName: __ZNKSt3__16vectorIP5LayerNS_9allocatorIS2_EEE17__annotate_deleteB8ue170006Ev, symObjAddr: 0x1D48, symBinAddr: 0x10001654C, symSize: 0xCC }
  - { offsetInCU: 0x8032, offset: 0x1D6C3, size: 0x8, addend: 0x0, symName: __ZNSt3__116allocator_traitsINS_9allocatorIP5LayerEEE10deallocateB8ue170006ERS4_PS3_m, symObjAddr: 0x1E14, symBinAddr: 0x100016618, symSize: 0x34 }
  - { offsetInCU: 0x8073, offset: 0x1D704, size: 0x8, addend: 0x0, symName: __ZNSt3__16vectorIP5LayerNS_9allocatorIS2_EEE7__allocB8ue170006Ev, symObjAddr: 0x1E48, symBinAddr: 0x10001664C, symSize: 0x28 }
  - { offsetInCU: 0x8097, offset: 0x1D728, size: 0x8, addend: 0x0, symName: __ZNKSt3__16vectorIP5LayerNS_9allocatorIS2_EEE8capacityB8ue170006Ev, symObjAddr: 0x1E70, symBinAddr: 0x100016674, symSize: 0xBC }
  - { offsetInCU: 0x80BB, offset: 0x1D74C, size: 0x8, addend: 0x0, symName: __ZNSt3__16vectorIP5LayerNS_9allocatorIS2_EEE22__base_destruct_at_endB8ue170006EPS2_, symObjAddr: 0x1F2C, symBinAddr: 0x100016730, symSize: 0x114 }
  - { offsetInCU: 0x80FF, offset: 0x1D790, size: 0x8, addend: 0x0, symName: __ZNSt3__116allocator_traitsINS_9allocatorIP5LayerEEE7destroyB8ue170006IS3_vEEvRS4_PT_, symObjAddr: 0x2040, symBinAddr: 0x100016844, symSize: 0x2C }
  - { offsetInCU: 0x813C, offset: 0x1D7CD, size: 0x8, addend: 0x0, symName: __ZNSt3__19allocatorIP5LayerE7destroyB8ue170006EPS2_, symObjAddr: 0x2080, symBinAddr: 0x100016884, symSize: 0x14 }
  - { offsetInCU: 0x816D, offset: 0x1D7FE, size: 0x8, addend: 0x0, symName: __ZNKSt3__16vectorIP5LayerNS_9allocatorIS2_EEE31__annotate_contiguous_containerEPKvS7_S7_S7_, symObjAddr: 0x2094, symBinAddr: 0x100016898, symSize: 0x58 }
  - { offsetInCU: 0x81CD, offset: 0x1D85E, size: 0x8, addend: 0x0, symName: __ZNKSt3__16vectorIP5LayerNS_9allocatorIS2_EEE4dataB8ue170006Ev, symObjAddr: 0x20EC, symBinAddr: 0x1000168F0, symSize: 0x64 }
  - { offsetInCU: 0x81F1, offset: 0x1D882, size: 0x8, addend: 0x0, symName: __ZNKSt3__16vectorIP5LayerNS_9allocatorIS2_EEE4sizeB8ue170006Ev, symObjAddr: 0x2150, symBinAddr: 0x100016954, symSize: 0xB0 }
  - { offsetInCU: 0x8215, offset: 0x1D8A6, size: 0x8, addend: 0x0, symName: __ZNSt3__19allocatorIP5LayerE10deallocateB8ue170006EPS2_m, symObjAddr: 0x2200, symBinAddr: 0x100016A04, symSize: 0x4C }
  - { offsetInCU: 0x8255, offset: 0x1D8E6, size: 0x8, addend: 0x0, symName: __ZNSt3__117__compressed_pairIPP5LayerNS_9allocatorIS2_EEE6secondB8ue170006Ev, symObjAddr: 0x2374, symBinAddr: 0x100016A50, symSize: 0x24 }
  - { offsetInCU: 0x827A, offset: 0x1D90B, size: 0x8, addend: 0x0, symName: __ZNSt3__122__compressed_pair_elemINS_9allocatorIP5LayerEELi1ELb1EE5__getB8ue170006Ev, symObjAddr: 0x2398, symBinAddr: 0x100016A74, symSize: 0x14 }
  - { offsetInCU: 0x829D, offset: 0x1D92E, size: 0x8, addend: 0x0, symName: __ZNKSt3__16vectorIP5LayerNS_9allocatorIS2_EEE9__end_capB8ue170006Ev, symObjAddr: 0x23AC, symBinAddr: 0x100016A88, symSize: 0x28 }
  - { offsetInCU: 0x82C1, offset: 0x1D952, size: 0x8, addend: 0x0, symName: __ZNKSt3__117__compressed_pairIPP5LayerNS_9allocatorIS2_EEE5firstB8ue170006Ev, symObjAddr: 0x23D4, symBinAddr: 0x100016AB0, symSize: 0x24 }
  - { offsetInCU: 0x82E6, offset: 0x1D977, size: 0x8, addend: 0x0, symName: __ZNKSt3__122__compressed_pair_elemIPP5LayerLi0ELb0EE5__getB8ue170006Ev, symObjAddr: 0x23F8, symBinAddr: 0x100016AD4, symSize: 0x14 }
  - { offsetInCU: 0x8309, offset: 0x1D99A, size: 0x8, addend: 0x0, symName: __ZNSt3__16vectorIP5LayerNS_9allocatorIS2_EEE9__end_capB8ue170006Ev, symObjAddr: 0x26F4, symBinAddr: 0x100016B30, symSize: 0x28 }
  - { offsetInCU: 0x832D, offset: 0x1D9BE, size: 0x8, addend: 0x0, symName: __ZNSt3__16vectorIP5LayerNS_9allocatorIS2_EEE22__construct_one_at_endB8ue170006IJRS2_EEEvDpOT_, symObjAddr: 0x271C, symBinAddr: 0x100016B58, symSize: 0x36C }
  - { offsetInCU: 0x8386, offset: 0x1DA17, size: 0x8, addend: 0x0, symName: __ZNSt3__112__temp_valueIP5LayerNS_9allocatorIS2_EEEC1B8ue170006IJRS2_EEERS4_DpOT_, symObjAddr: 0x2A88, symBinAddr: 0x100016EC4, symSize: 0x3C }
  - { offsetInCU: 0x83D5, offset: 0x1DA66, size: 0x8, addend: 0x0, symName: __ZNSt3__16vectorIP5LayerNS_9allocatorIS2_EEE12__move_rangeEPS2_S6_S6_, symObjAddr: 0x2AC4, symBinAddr: 0x100016F00, symSize: 0x450 }
  - { offsetInCU: 0x84A0, offset: 0x1DB31, size: 0x8, addend: 0x0, symName: __ZNSt3__112__temp_valueIP5LayerNS_9allocatorIS2_EEE3getB8ue170006Ev, symObjAddr: 0x2F14, symBinAddr: 0x100017350, symSize: 0x24 }
  - { offsetInCU: 0x84C4, offset: 0x1DB55, size: 0x8, addend: 0x0, symName: __ZNSt3__112__temp_valueIP5LayerNS_9allocatorIS2_EEED1B8ue170006Ev, symObjAddr: 0x2F38, symBinAddr: 0x100017374, symSize: 0x2C }
  - { offsetInCU: 0x84EC, offset: 0x1DB7D, size: 0x8, addend: 0x0, symName: __ZNKSt3__16vectorIP5LayerNS_9allocatorIS2_EEE11__recommendB8ue170006Em, symObjAddr: 0x2F64, symBinAddr: 0x1000173A0, symSize: 0x384 }
  - { offsetInCU: 0x8549, offset: 0x1DBDA, size: 0x8, addend: 0x0, symName: __ZNSt3__114__split_bufferIP5LayerRNS_9allocatorIS2_EEEC1EmmS5_, symObjAddr: 0x32E8, symBinAddr: 0x100017724, symSize: 0x44 }
  - { offsetInCU: 0x859D, offset: 0x1DC2E, size: 0x8, addend: 0x0, symName: __ZNSt3__114__split_bufferIP5LayerRNS_9allocatorIS2_EEE12emplace_backIJRS2_EEEvDpOT_, symObjAddr: 0x332C, symBinAddr: 0x100017768, symSize: 0xA3C }
  - { offsetInCU: 0x862A, offset: 0x1DCBB, size: 0x8, addend: 0x0, symName: __ZNSt3__114__split_bufferIP5LayerRNS_9allocatorIS2_EEED1Ev, symObjAddr: 0x43E0, symBinAddr: 0x10001881C, symSize: 0x2C }
  - { offsetInCU: 0x8654, offset: 0x1DCE5, size: 0x8, addend: 0x0, symName: __ZNKSt3__111__wrap_iterIPKP5LayerE4baseB8ue170006Ev, symObjAddr: 0x440C, symBinAddr: 0x100018848, symSize: 0x60 }
  - { offsetInCU: 0x8678, offset: 0x1DD09, size: 0x8, addend: 0x0, symName: __ZNSt3__117__compressed_pairIPP5LayerNS_9allocatorIS2_EEE5firstB8ue170006Ev, symObjAddr: 0x446C, symBinAddr: 0x1000188A8, symSize: 0x24 }
  - { offsetInCU: 0x869D, offset: 0x1DD2E, size: 0x8, addend: 0x0, symName: __ZNSt3__122__compressed_pair_elemIPP5LayerLi0ELb0EE5__getB8ue170006Ev, symObjAddr: 0x4490, symBinAddr: 0x1000188CC, symSize: 0x14 }
  - { offsetInCU: 0x86D9, offset: 0x1DD6A, size: 0x8, addend: 0x0, symName: __ZNSt3__16vectorIP5LayerNS_9allocatorIS2_EEE21_ConstructTransactionC1B8ue170006ERS5_m, symObjAddr: 0x44A4, symBinAddr: 0x1000188E0, symSize: 0x3C }
  - { offsetInCU: 0x8720, offset: 0x1DDB1, size: 0x8, addend: 0x0, symName: __ZNSt3__116allocator_traitsINS_9allocatorIP5LayerEEE9constructB8ue170006IS3_JRS3_EvEEvRS4_PT_DpOT0_, symObjAddr: 0x44E0, symBinAddr: 0x10001891C, symSize: 0x34 }
  - { offsetInCU: 0x8776, offset: 0x1DE07, size: 0x8, addend: 0x0, symName: __ZNSt3__16vectorIP5LayerNS_9allocatorIS2_EEE21_ConstructTransactionD1B8ue170006Ev, symObjAddr: 0x4514, symBinAddr: 0x100018950, symSize: 0x2C }
  - { offsetInCU: 0x879E, offset: 0x1DE2F, size: 0x8, addend: 0x0, symName: __ZNSt3__16vectorIP5LayerNS_9allocatorIS2_EEE21_ConstructTransactionC2B8ue170006ERS5_m, symObjAddr: 0x4540, symBinAddr: 0x10001897C, symSize: 0x1D0 }
  - { offsetInCU: 0x87E4, offset: 0x1DE75, size: 0x8, addend: 0x0, symName: __ZNKSt3__16vectorIP5LayerNS_9allocatorIS2_EEE19__annotate_increaseB8ue170006Em, symObjAddr: 0x4710, symBinAddr: 0x100018B4C, symSize: 0xD8 }
  - { offsetInCU: 0x8817, offset: 0x1DEA8, size: 0x8, addend: 0x0, symName: __ZNSt3__19allocatorIP5LayerE9constructB8ue170006IS2_JRS2_EEEvPT_DpOT0_, symObjAddr: 0x47E8, symBinAddr: 0x100018C24, symSize: 0xB4 }
  - { offsetInCU: 0x886B, offset: 0x1DEFC, size: 0x8, addend: 0x0, symName: __ZNSt3__16vectorIP5LayerNS_9allocatorIS2_EEE21_ConstructTransactionD2B8ue170006Ev, symObjAddr: 0x489C, symBinAddr: 0x100018CD8, symSize: 0x278 }
  - { offsetInCU: 0x8893, offset: 0x1DF24, size: 0x8, addend: 0x0, symName: __ZNKSt3__16vectorIP5LayerNS_9allocatorIS2_EEE17__annotate_shrinkB8ue170006Em, symObjAddr: 0x4B14, symBinAddr: 0x100018F50, symSize: 0xC8 }
  - { offsetInCU: 0x88C6, offset: 0x1DF57, size: 0x8, addend: 0x0, symName: __ZNSt3__112__temp_valueIP5LayerNS_9allocatorIS2_EEEC2B8ue170006IJRS2_EEERS4_DpOT_, symObjAddr: 0x4BDC, symBinAddr: 0x100019018, symSize: 0xD0 }
  - { offsetInCU: 0x8916, offset: 0x1DFA7, size: 0x8, addend: 0x0, symName: __ZNSt3__112__temp_valueIP5LayerNS_9allocatorIS2_EEE6__addrB8ue170006Ev, symObjAddr: 0x4CAC, symBinAddr: 0x1000190E8, symSize: 0x14 }
  - { offsetInCU: 0x893A, offset: 0x1DFCB, size: 0x8, addend: 0x0, symName: __ZNSt3__116allocator_traitsINS_9allocatorIP5LayerEEE9constructB8ue170006IS3_JS3_EvEEvRS4_PT_DpOT0_, symObjAddr: 0x4CC0, symBinAddr: 0x1000190FC, symSize: 0x34 }
  - { offsetInCU: 0x8990, offset: 0x1E021, size: 0x8, addend: 0x0, symName: __ZNSt3__19allocatorIP5LayerE9constructB8ue170006IS2_JS2_EEEvPT_DpOT0_, symObjAddr: 0x4F60, symBinAddr: 0x10001939C, symSize: 0xB4 }
  - { offsetInCU: 0x8A07, offset: 0x1E098, size: 0x8, addend: 0x0, symName: __ZNKSt3__123__move_backward_trivialclB8ue170006IP5LayerS3_Li0EEENS_4pairIPT_PT0_EES6_S6_S8_, symObjAddr: 0x5D60, symBinAddr: 0x10001A19C, symSize: 0x230 }
  - { offsetInCU: 0x8A72, offset: 0x1E103, size: 0x8, addend: 0x0, symName: __ZNSt3__14pairIPP5LayerS3_EC1B8ue170006IRS3_S6_LPv0EEEOT_OT0_, symObjAddr: 0x6880, symBinAddr: 0x10001ACBC, symSize: 0x3C }
  - { offsetInCU: 0x8ACF, offset: 0x1E160, size: 0x8, addend: 0x0, symName: __ZNSt3__14pairIPP5LayerS3_EC2B8ue170006IRS3_S6_LPv0EEEOT_OT0_, symObjAddr: 0x68BC, symBinAddr: 0x10001ACF8, symSize: 0x138 }
  - { offsetInCU: 0x8B2D, offset: 0x1E1BE, size: 0x8, addend: 0x0, symName: __ZNSt3__118__unwrap_iter_implIPP5LayerLb1EE8__unwrapB8ue170006ES3_, symObjAddr: 0x69F4, symBinAddr: 0x10001AE30, symSize: 0x24 }
  - { offsetInCU: 0x8B54, offset: 0x1E1E5, size: 0x8, addend: 0x0, symName: __ZNSt3__14pairIPP5LayerS3_EC1B8ue170006IS3_S3_LPv0EEEOT_OT0_, symObjAddr: 0x6A18, symBinAddr: 0x10001AE54, symSize: 0x3C }
  - { offsetInCU: 0x8BB1, offset: 0x1E242, size: 0x8, addend: 0x0, symName: __ZNSt3__14pairIPP5LayerS3_EC2B8ue170006IS3_S3_LPv0EEEOT_OT0_, symObjAddr: 0x6A54, symBinAddr: 0x10001AE90, symSize: 0x138 }
  - { offsetInCU: 0x8C0F, offset: 0x1E2A0, size: 0x8, addend: 0x0, symName: __ZNSt3__118__unwrap_iter_implIPP5LayerLb1EE8__rewrapB8ue170006ES3_S3_, symObjAddr: 0x6B8C, symBinAddr: 0x10001AFC8, symSize: 0x50 }
  - { offsetInCU: 0x8C3F, offset: 0x1E2D0, size: 0x8, addend: 0x0, symName: __ZNSt3__112__temp_valueIP5LayerNS_9allocatorIS2_EEED2B8ue170006Ev, symObjAddr: 0x6BDC, symBinAddr: 0x10001B018, symSize: 0x90 }
  - { offsetInCU: 0x8C67, offset: 0x1E2F8, size: 0x8, addend: 0x0, symName: __ZNKSt3__16vectorIP5LayerNS_9allocatorIS2_EEE8max_sizeEv, symObjAddr: 0x6C6C, symBinAddr: 0x10001B0A8, symSize: 0x2FC }
  - { offsetInCU: 0x8C8E, offset: 0x1E31F, size: 0x8, addend: 0x0, symName: __ZNKSt3__16vectorIP5LayerNS_9allocatorIS2_EEE20__throw_length_errorB8ue170006Ev, symObjAddr: 0x6F68, symBinAddr: 0x10001B3A4, symSize: 0x20 }
  - { offsetInCU: 0x8CBD, offset: 0x1E34E, size: 0x8, addend: 0x0, symName: __ZNSt3__116allocator_traitsINS_9allocatorIP5LayerEEE8max_sizeB8ue170006IS4_vEEmRKS4_, symObjAddr: 0x6FE0, symBinAddr: 0x10001B3C4, symSize: 0x24 }
  - { offsetInCU: 0x8CEA, offset: 0x1E37B, size: 0x8, addend: 0x0, symName: __ZNKSt3__16vectorIP5LayerNS_9allocatorIS2_EEE7__allocB8ue170006Ev, symObjAddr: 0x7004, symBinAddr: 0x10001B3E8, symSize: 0x28 }
  - { offsetInCU: 0x8D0F, offset: 0x1E3A0, size: 0x8, addend: 0x0, symName: __ZNKSt3__19allocatorIP5LayerE8max_sizeB8ue170006Ev, symObjAddr: 0x72E4, symBinAddr: 0x10001B410, symSize: 0x14 }
  - { offsetInCU: 0x8D32, offset: 0x1E3C3, size: 0x8, addend: 0x0, symName: __ZNKSt3__117__compressed_pairIPP5LayerNS_9allocatorIS2_EEE6secondB8ue170006Ev, symObjAddr: 0x72F8, symBinAddr: 0x10001B424, symSize: 0x24 }
  - { offsetInCU: 0x8D57, offset: 0x1E3E8, size: 0x8, addend: 0x0, symName: __ZNKSt3__122__compressed_pair_elemINS_9allocatorIP5LayerEELi1ELb1EE5__getB8ue170006Ev, symObjAddr: 0x731C, symBinAddr: 0x10001B448, symSize: 0x14 }
  - { offsetInCU: 0x8D7B, offset: 0x1E40C, size: 0x8, addend: 0x0, symName: __ZNSt3__114__split_bufferIP5LayerRNS_9allocatorIS2_EEEC2EmmS5_, symObjAddr: 0x7648, symBinAddr: 0x10001B45C, symSize: 0x520 }
  - { offsetInCU: 0x8DFA, offset: 0x1E48B, size: 0x8, addend: 0x0, symName: __ZNSt3__117__compressed_pairIPP5LayerRNS_9allocatorIS2_EEEC1B8ue170006IDnS6_EEOT_OT0_, symObjAddr: 0x7B68, symBinAddr: 0x10001B97C, symSize: 0x3C }
  - { offsetInCU: 0x8E50, offset: 0x1E4E1, size: 0x8, addend: 0x0, symName: __ZNSt3__114__split_bufferIP5LayerRNS_9allocatorIS2_EEE7__allocB8ue170006Ev, symObjAddr: 0x7E30, symBinAddr: 0x10001BC44, symSize: 0x28 }
  - { offsetInCU: 0x8E74, offset: 0x1E505, size: 0x8, addend: 0x0, symName: __ZNSt3__114__split_bufferIP5LayerRNS_9allocatorIS2_EEE9__end_capB8ue170006Ev, symObjAddr: 0x7E58, symBinAddr: 0x10001BC6C, symSize: 0x28 }
  - { offsetInCU: 0x8E98, offset: 0x1E529, size: 0x8, addend: 0x0, symName: __ZNSt3__117__compressed_pairIPP5LayerRNS_9allocatorIS2_EEEC2B8ue170006IDnS6_EEOT_OT0_, symObjAddr: 0x7E80, symBinAddr: 0x10001BC94, symSize: 0x48 }
  - { offsetInCU: 0x8EEE, offset: 0x1E57F, size: 0x8, addend: 0x0, symName: __ZNSt3__122__compressed_pair_elemIPP5LayerLi0ELb0EEC2B8ue170006IDnvEEOT_, symObjAddr: 0x7EC8, symBinAddr: 0x10001BCDC, symSize: 0x64 }
  - { offsetInCU: 0x8F2E, offset: 0x1E5BF, size: 0x8, addend: 0x0, symName: __ZNSt3__122__compressed_pair_elemIRNS_9allocatorIP5LayerEELi1ELb0EEC2B8ue170006IS5_vEEOT_, symObjAddr: 0x7F2C, symBinAddr: 0x10001BD40, symSize: 0x70 }
  - { offsetInCU: 0x8F6E, offset: 0x1E5FF, size: 0x8, addend: 0x0, symName: __ZNSt3__19allocatorIP5LayerE8allocateB8ue170006Em, symObjAddr: 0x7F9C, symBinAddr: 0x10001BDB0, symSize: 0x5C }
  - { offsetInCU: 0x8FA0, offset: 0x1E631, size: 0x8, addend: 0x0, symName: __ZNSt3__117__compressed_pairIPP5LayerRNS_9allocatorIS2_EEE6secondB8ue170006Ev, symObjAddr: 0x80E0, symBinAddr: 0x10001BE0C, symSize: 0x28 }
  - { offsetInCU: 0x8FC4, offset: 0x1E655, size: 0x8, addend: 0x0, symName: __ZNSt3__122__compressed_pair_elemIRNS_9allocatorIP5LayerEELi1ELb0EE5__getB8ue170006Ev, symObjAddr: 0x8108, symBinAddr: 0x10001BE34, symSize: 0x60 }
  - { offsetInCU: 0x8FE8, offset: 0x1E679, size: 0x8, addend: 0x0, symName: __ZNSt3__117__compressed_pairIPP5LayerRNS_9allocatorIS2_EEE5firstB8ue170006Ev, symObjAddr: 0x8168, symBinAddr: 0x10001BE94, symSize: 0x24 }
  - { offsetInCU: 0x900C, offset: 0x1E69D, size: 0x8, addend: 0x0, symName: __ZNSt3__114__split_bufferIP5LayerRNS_9allocatorIS2_EEE18__construct_at_endINS_13move_iteratorIPS2_EEEENS_9enable_ifIXsr31__has_forward_iterator_categoryIT_EE5valueEvE4typeESC_SC_, symObjAddr: 0x83F8, symBinAddr: 0x10001C124, symSize: 0x3D4 }
  - { offsetInCU: 0x9060, offset: 0x1E6F1, size: 0x8, addend: 0x0, symName: __ZNSt3__113move_iteratorIPP5LayerEC1B8ue170006ES3_, symObjAddr: 0x87CC, symBinAddr: 0x10001C4F8, symSize: 0x34 }
  - { offsetInCU: 0x90A0, offset: 0x1E731, size: 0x8, addend: 0x0, symName: __ZNKSt3__114__move_trivialclB8ue170006IP5LayerS3_Li0EEENS_4pairIPT_PT0_EES6_S6_S8_, symObjAddr: 0x9330, symBinAddr: 0x10001D05C, symSize: 0x230 }
  - { offsetInCU: 0x910B, offset: 0x1E79C, size: 0x8, addend: 0x0, symName: __ZNSt3__14pairIPP5LayerS3_EC1B8ue170006IRS3_S3_LPv0EEEOT_OT0_, symObjAddr: 0x9B20, symBinAddr: 0x10001D84C, symSize: 0x3C }
  - { offsetInCU: 0x9168, offset: 0x1E7F9, size: 0x8, addend: 0x0, symName: __ZNSt3__14pairIPP5LayerS3_EC2B8ue170006IRS3_S3_LPv0EEEOT_OT0_, symObjAddr: 0x9B5C, symBinAddr: 0x10001D888, symSize: 0x138 }
  - { offsetInCU: 0x91C5, offset: 0x1E856, size: 0x8, addend: 0x0, symName: __ZNSt3__114__split_bufferIP5LayerRNS_9allocatorIS2_EEE28__construct_at_end_with_sizeINS_13move_iteratorIPS2_EEEEvT_m, symObjAddr: 0x9C94, symBinAddr: 0x10001D9C0, symSize: 0x484 }
  - { offsetInCU: 0x9234, offset: 0x1E8C5, size: 0x8, addend: 0x0, symName: __ZNSt3__114__split_bufferIP5LayerRNS_9allocatorIS2_EEE21_ConstructTransactionC1B8ue170006EPPS2_m, symObjAddr: 0xA468, symBinAddr: 0x10001E194, symSize: 0x3C }
  - { offsetInCU: 0x9278, offset: 0x1E909, size: 0x8, addend: 0x0, symName: __ZNKSt3__113move_iteratorIPP5LayerEdeB8ue170006Ev, symObjAddr: 0xA4A4, symBinAddr: 0x10001E1D0, symSize: 0x60 }
  - { offsetInCU: 0x929C, offset: 0x1E92D, size: 0x8, addend: 0x0, symName: __ZNSt3__113move_iteratorIPP5LayerEppB8ue170006Ev, symObjAddr: 0xA504, symBinAddr: 0x10001E230, symSize: 0x68 }
  - { offsetInCU: 0x92C0, offset: 0x1E951, size: 0x8, addend: 0x0, symName: __ZNSt3__114__split_bufferIP5LayerRNS_9allocatorIS2_EEE21_ConstructTransactionD1B8ue170006Ev, symObjAddr: 0xA56C, symBinAddr: 0x10001E298, symSize: 0x2C }
  - { offsetInCU: 0x92E8, offset: 0x1E979, size: 0x8, addend: 0x0, symName: __ZNSt3__114__split_bufferIP5LayerRNS_9allocatorIS2_EEE21_ConstructTransactionC2B8ue170006EPPS2_m, symObjAddr: 0xA598, symBinAddr: 0x10001E2C4, symSize: 0x184 }
  - { offsetInCU: 0x932C, offset: 0x1E9BD, size: 0x8, addend: 0x0, symName: __ZNSt3__114__split_bufferIP5LayerRNS_9allocatorIS2_EEE21_ConstructTransactionD2B8ue170006Ev, symObjAddr: 0xA71C, symBinAddr: 0x10001E448, symSize: 0xE0 }
  - { offsetInCU: 0x9354, offset: 0x1E9E5, size: 0x8, addend: 0x0, symName: __ZNKSt3__113move_iteratorIPP5LayerE4baseB8ue170006Ev, symObjAddr: 0xAAB8, symBinAddr: 0x10001E7E4, symSize: 0x60 }
  - { offsetInCU: 0x9378, offset: 0x1EA09, size: 0x8, addend: 0x0, symName: __ZNSt3__113move_iteratorIPP5LayerEC2B8ue170006ES3_, symObjAddr: 0xAB18, symBinAddr: 0x10001E844, symSize: 0x70 }
  - { offsetInCU: 0x93AE, offset: 0x1EA3F, size: 0x8, addend: 0x0, symName: __ZNSt3__116reverse_iteratorIPP5LayerEC1B8ue170006ES3_, symObjAddr: 0xB030, symBinAddr: 0x10001ED5C, symSize: 0x34 }
  - { offsetInCU: 0x93E4, offset: 0x1EA75, size: 0x8, addend: 0x0, symName: __ZNKSt3__116reverse_iteratorIPP5LayerE4baseB8ue170006Ev, symObjAddr: 0xB064, symBinAddr: 0x10001ED90, symSize: 0x64 }
  - { offsetInCU: 0x9408, offset: 0x1EA99, size: 0x8, addend: 0x0, symName: __ZNKSt3__16vectorIP5LayerNS_9allocatorIS2_EEE14__annotate_newB8ue170006Em, symObjAddr: 0xB100, symBinAddr: 0x10001EE2C, symSize: 0xC0 }
  - { offsetInCU: 0x945E, offset: 0x1EAEF, size: 0x8, addend: 0x0, symName: __ZNKSt3__111__move_loopINS_17_ClassicAlgPolicyEEclB8ue170006INS_16reverse_iteratorIPP5LayerEES8_S8_EENS_4pairIT_T1_EESA_T0_SB_, symObjAddr: 0xCB80, symBinAddr: 0x1000208AC, symSize: 0x3A8 }
  - { offsetInCU: 0x94D5, offset: 0x1EB66, size: 0x8, addend: 0x0, symName: __ZNSt3__18_IterOpsINS_17_ClassicAlgPolicyEE11__iter_moveB8ue170006IRNS_16reverse_iteratorIPP5LayerEEEENS_9enable_ifIXsr12is_referenceIDTdeclsr3stdE7declvalIRT_EEEEE5valueEDTclsr3stdE4movedeclsr3stdE7declvalISC_EEEEE4typeEOSB_, symObjAddr: 0xDA50, symBinAddr: 0x10002177C, symSize: 0x28 }
  - { offsetInCU: 0x9500, offset: 0x1EB91, size: 0x8, addend: 0x0, symName: __ZNKSt3__116reverse_iteratorIPP5LayerEdeB8ue170006Ev, symObjAddr: 0xDA78, symBinAddr: 0x1000217A4, symSize: 0x74 }
  - { offsetInCU: 0x9532, offset: 0x1EBC3, size: 0x8, addend: 0x0, symName: __ZNSt3__116reverse_iteratorIPP5LayerEppB8ue170006Ev, symObjAddr: 0xDAEC, symBinAddr: 0x100021818, symSize: 0x6C }
  - { offsetInCU: 0x9557, offset: 0x1EBE8, size: 0x8, addend: 0x0, symName: __ZNSt3__18_IterOpsINS_17_ClassicAlgPolicyEE25__validate_iter_referenceB8ue170006IRNS_16reverse_iteratorIPP5LayerEEEEvv, symObjAddr: 0xDB58, symBinAddr: 0x100021884, symSize: 0x4 }
  - { offsetInCU: 0x9575, offset: 0x1EC06, size: 0x8, addend: 0x0, symName: __ZNSt3__118__unwrap_iter_implINS_16reverse_iteratorIPP5LayerEELb0EE8__unwrapB8ue170006ES5_, symObjAddr: 0xDB5C, symBinAddr: 0x100021888, symSize: 0x274 }
  - { offsetInCU: 0x95A0, offset: 0x1EC31, size: 0x8, addend: 0x0, symName: __ZNSt3__14pairINS_16reverse_iteratorIPP5LayerEES5_EC1B8ue170006IS5_S5_LPv0EEEOT_OT0_, symObjAddr: 0xDDD0, symBinAddr: 0x100021AFC, symSize: 0x3C }
  - { offsetInCU: 0x95FD, offset: 0x1EC8E, size: 0x8, addend: 0x0, symName: __ZNSt3__14pairINS_16reverse_iteratorIPP5LayerEES5_EC2B8ue170006IS5_S5_LPv0EEEOT_OT0_, symObjAddr: 0xDE0C, symBinAddr: 0x100021B38, symSize: 0x54 }
  - { offsetInCU: 0x965B, offset: 0x1ECEC, size: 0x8, addend: 0x0, symName: __ZNSt3__118__unwrap_iter_implINS_16reverse_iteratorIPP5LayerEELb0EE8__rewrapB8ue170006ES5_S5_, symObjAddr: 0xDE60, symBinAddr: 0x100021B8C, symSize: 0x2E0 }
  - { offsetInCU: 0x9690, offset: 0x1ED21, size: 0x8, addend: 0x0, symName: __ZNSt3__116reverse_iteratorIPP5LayerEC2B8ue170006ES3_, symObjAddr: 0xE140, symBinAddr: 0x100021E6C, symSize: 0xB8 }
  - { offsetInCU: 0x96C7, offset: 0x1ED58, size: 0x8, addend: 0x0, symName: __ZNSt3__114__split_bufferIP5LayerRNS_9allocatorIS2_EEED2Ev, symObjAddr: 0xE1F8, symBinAddr: 0x100021F24, symSize: 0x104 }
  - { offsetInCU: 0x96F1, offset: 0x1ED82, size: 0x8, addend: 0x0, symName: __ZNSt3__114__split_bufferIP5LayerRNS_9allocatorIS2_EEE5clearB8ue170006Ev, symObjAddr: 0xE2FC, symBinAddr: 0x100022028, symSize: 0x68 }
  - { offsetInCU: 0x9715, offset: 0x1EDA6, size: 0x8, addend: 0x0, symName: __ZNKSt3__114__split_bufferIP5LayerRNS_9allocatorIS2_EEE8capacityB8ue170006Ev, symObjAddr: 0xE364, symBinAddr: 0x100022090, symSize: 0xBC }
  - { offsetInCU: 0x9739, offset: 0x1EDCA, size: 0x8, addend: 0x0, symName: __ZNSt3__114__split_bufferIP5LayerRNS_9allocatorIS2_EEE17__destruct_at_endB8ue170006EPS2_, symObjAddr: 0xE420, symBinAddr: 0x10002214C, symSize: 0x2C }
  - { offsetInCU: 0x976B, offset: 0x1EDFC, size: 0x8, addend: 0x0, symName: __ZNSt3__114__split_bufferIP5LayerRNS_9allocatorIS2_EEE17__destruct_at_endB8ue170006EPS2_NS_17integral_constantIbLb0EEE, symObjAddr: 0xE44C, symBinAddr: 0x100022178, symSize: 0x10C }
  - { offsetInCU: 0x97AA, offset: 0x1EE3B, size: 0x8, addend: 0x0, symName: __ZNKSt3__114__split_bufferIP5LayerRNS_9allocatorIS2_EEE9__end_capB8ue170006Ev, symObjAddr: 0xE558, symBinAddr: 0x100022284, symSize: 0x28 }
  - { offsetInCU: 0x97CE, offset: 0x1EE5F, size: 0x8, addend: 0x0, symName: __ZNKSt3__117__compressed_pairIPP5LayerRNS_9allocatorIS2_EEE5firstB8ue170006Ev, symObjAddr: 0xE580, symBinAddr: 0x1000222AC, symSize: 0x24 }
  - { offsetInCU: 0x4E9, offset: 0x1F402, size: 0x8, addend: 0x0, symName: __ZN3glm3cosILi3EfLNS_9qualifierE0EEENS_3vecIXT_ET0_XT1_EEERKS4_, symObjAddr: 0x245C, symBinAddr: 0x100024610, symSize: 0x3D0 }
  - { offsetInCU: 0x533, offset: 0x1F44C, size: 0x8, addend: 0x0, symName: __ZN3glmmlIfLNS_9qualifierE0EEENS_3vecILi3ET_XT0_EEERKS4_S3_, symObjAddr: 0x282C, symBinAddr: 0x1000249E0, symSize: 0x3F0 }
  - { offsetInCU: 0x585, offset: 0x1F49E, size: 0x8, addend: 0x0, symName: __ZN3glm3sinILi3EfLNS_9qualifierE0EEENS_3vecIXT_ET0_XT1_EEERKS4_, symObjAddr: 0x2C1C, symBinAddr: 0x100024DD0, symSize: 0x3D0 }
  - { offsetInCU: 0x4329, offset: 0x23242, size: 0x8, addend: 0x0, symName: __ZNSt3__134__libcpp_atomic_refcount_decrementB8ue170006IlEET_RS1_, symObjAddr: 0x4188, symBinAddr: 0x10002633C, symSize: 0x80 }
  - { offsetInCU: 0x435E, offset: 0x23277, size: 0x8, addend: 0x0, symName: __ZNSt3__134__libcpp_atomic_refcount_incrementB8ue170006IlEET_RS1_, symObjAddr: 0x4420, symBinAddr: 0x1000265D4, symSize: 0x80 }
  - { offsetInCU: 0x6BB0, offset: 0x25AC9, size: 0x8, addend: 0x0, symName: __ZN8MaterialC2ERNSt3__110shared_ptrI6ShaderEE, symObjAddr: 0x0, symBinAddr: 0x100022380, symSize: 0x68 }
  - { offsetInCU: 0x6BE9, offset: 0x25B02, size: 0x8, addend: 0x0, symName: __ZNSt3__110shared_ptrI6ShaderEC1B8ue170006ERKS2_, symObjAddr: 0x68, symBinAddr: 0x1000223E8, symSize: 0x34 }
  - { offsetInCU: 0x6C25, offset: 0x25B3E, size: 0x8, addend: 0x0, symName: __ZN13MaterialPropsC1Ev, symObjAddr: 0x9C, symBinAddr: 0x10002241C, symSize: 0x2C }
  - { offsetInCU: 0x6C50, offset: 0x25B69, size: 0x8, addend: 0x0, symName: __ZNSt3__110shared_ptrI6ShaderED1B8ue170006Ev, symObjAddr: 0xC8, symBinAddr: 0x100022448, symSize: 0x2C }
  - { offsetInCU: 0x6C78, offset: 0x25B91, size: 0x8, addend: 0x0, symName: __ZN8MaterialC1ERNSt3__110shared_ptrI6ShaderEE, symObjAddr: 0xF4, symBinAddr: 0x100022474, symSize: 0x34 }
  - { offsetInCU: 0x6EA3, offset: 0x25DBC, size: 0x8, addend: 0x0, symName: __ZN4MeshC2ERNSt3__110shared_ptrI11VertexArrayEEP8Material11OBJECT_TYPE, symObjAddr: 0x128, symBinAddr: 0x1000224A8, symSize: 0xA0 }
  - { offsetInCU: 0x6EF8, offset: 0x25E11, size: 0x8, addend: 0x0, symName: __ZN11SceneObjectC2E11OBJECT_TYPE, symObjAddr: 0x1C8, symBinAddr: 0x100022548, symSize: 0x128 }
  - { offsetInCU: 0x6F2E, offset: 0x25E47, size: 0x8, addend: 0x0, symName: __ZNSt3__110shared_ptrI11VertexArrayEC1B8ue170006ERKS2_, symObjAddr: 0x2F0, symBinAddr: 0x100022670, symSize: 0x34 }
  - { offsetInCU: 0x6F65, offset: 0x25E7E, size: 0x8, addend: 0x0, symName: __ZN4MeshC1ERNSt3__110shared_ptrI11VertexArrayEEP8Material11OBJECT_TYPE, symObjAddr: 0x324, symBinAddr: 0x1000226A4, symSize: 0x44 }
  - { offsetInCU: 0x6FBA, offset: 0x25ED3, size: 0x8, addend: 0x0, symName: __ZN13MaterialPropsC2Ev, symObjAddr: 0x368, symBinAddr: 0x1000226E8, symSize: 0x1AC }
  - { offsetInCU: 0x6FE5, offset: 0x25EFE, size: 0x8, addend: 0x0, symName: __ZNSt3__16vectorINS_10shared_ptrI9Texture2DEENS_9allocatorIS3_EEEC1B8ue170006Ev, symObjAddr: 0x558, symBinAddr: 0x100022894, symSize: 0x2C }
  - { offsetInCU: 0x700D, offset: 0x25F26, size: 0x8, addend: 0x0, symName: __ZNSt3__110shared_ptrI11CubeTextureEC1B8ue170006Ev, symObjAddr: 0x584, symBinAddr: 0x1000228C0, symSize: 0x2C }
  - { offsetInCU: 0x7035, offset: 0x25F4E, size: 0x8, addend: 0x0, symName: __ZNSt3__16vectorINS_10shared_ptrI9Texture2DEENS_9allocatorIS3_EEEC2B8ue170006Ev, symObjAddr: 0x72C, symBinAddr: 0x1000228EC, symSize: 0x2E8 }
  - { offsetInCU: 0x7068, offset: 0x25F81, size: 0x8, addend: 0x0, symName: __ZNSt3__117__compressed_pairIPNS_10shared_ptrI9Texture2DEENS_9allocatorIS3_EEEC1B8ue170006IDnNS_18__default_init_tagEEEOT_OT0_, symObjAddr: 0xA14, symBinAddr: 0x100022BD4, symSize: 0x3C }
  - { offsetInCU: 0x70BE, offset: 0x25FD7, size: 0x8, addend: 0x0, symName: __ZNSt3__117__compressed_pairIPNS_10shared_ptrI9Texture2DEENS_9allocatorIS3_EEEC2B8ue170006IDnNS_18__default_init_tagEEEOT_OT0_, symObjAddr: 0xA5C, symBinAddr: 0x100022C10, symSize: 0x40 }
  - { offsetInCU: 0x7114, offset: 0x2602D, size: 0x8, addend: 0x0, symName: __ZNSt3__122__compressed_pair_elemIPNS_10shared_ptrI9Texture2DEELi0ELb0EEC2B8ue170006IDnvEEOT_, symObjAddr: 0xA9C, symBinAddr: 0x100022C50, symSize: 0x64 }
  - { offsetInCU: 0x7154, offset: 0x2606D, size: 0x8, addend: 0x0, symName: __ZNSt3__122__compressed_pair_elemINS_9allocatorINS_10shared_ptrI9Texture2DEEEELi1ELb1EEC2B8ue170006ENS_18__default_init_tagE, symObjAddr: 0xB00, symBinAddr: 0x100022CB4, symSize: 0x2C }
  - { offsetInCU: 0x7187, offset: 0x260A0, size: 0x8, addend: 0x0, symName: __ZNSt3__19allocatorINS_10shared_ptrI9Texture2DEEEC2B8ue170006Ev, symObjAddr: 0xB2C, symBinAddr: 0x100022CE0, symSize: 0x2C }
  - { offsetInCU: 0x71AF, offset: 0x260C8, size: 0x8, addend: 0x0, symName: __ZNSt3__116__non_trivial_ifILb1ENS_9allocatorINS_10shared_ptrI9Texture2DEEEEEC2B8ue170006Ev, symObjAddr: 0xB58, symBinAddr: 0x100022D0C, symSize: 0x14 }
  - { offsetInCU: 0x71D8, offset: 0x260F1, size: 0x8, addend: 0x0, symName: __ZNSt3__110shared_ptrI11CubeTextureEC2B8ue170006Ev, symObjAddr: 0xB6C, symBinAddr: 0x100022D20, symSize: 0x9C }
  - { offsetInCU: 0x7205, offset: 0x2611E, size: 0x8, addend: 0x0, symName: __ZN14TransformPropsC1Ev, symObjAddr: 0xC08, symBinAddr: 0x100022DBC, symSize: 0x2C }
  - { offsetInCU: 0x7230, offset: 0x26149, size: 0x8, addend: 0x0, symName: __ZN14TransformPropsC2Ev, symObjAddr: 0xC34, symBinAddr: 0x100022DE8, symSize: 0x2E4 }
  - { offsetInCU: 0x725C, offset: 0x26175, size: 0x8, addend: 0x0, symName: __ZN3glm3vecILi3EfLNS_9qualifierE0EEC1Ef, symObjAddr: 0xF18, symBinAddr: 0x1000230CC, symSize: 0x34 }
  - { offsetInCU: 0x7295, offset: 0x261AE, size: 0x8, addend: 0x0, symName: __ZN3glm3quaIfLNS_9qualifierE0EEC1ERKNS_3vecILi3EfLS1_0EEE, symObjAddr: 0xF4C, symBinAddr: 0x100023100, symSize: 0x34 }
  - { offsetInCU: 0x72CE, offset: 0x261E7, size: 0x8, addend: 0x0, symName: __ZN3glm3matILi4ELi4EfLNS_9qualifierE0EEC1ERKf, symObjAddr: 0xF80, symBinAddr: 0x100023134, symSize: 0x34 }
  - { offsetInCU: 0x7306, offset: 0x2621F, size: 0x8, addend: 0x0, symName: __ZN3glm3vecILi3EfLNS_9qualifierE0EEC2Ef, symObjAddr: 0xFB4, symBinAddr: 0x100023168, symSize: 0x174 }
  - { offsetInCU: 0x733F, offset: 0x26258, size: 0x8, addend: 0x0, symName: __ZN3glm3quaIfLNS_9qualifierE0EEC2ERKNS_3vecILi3EfLS1_0EEE, symObjAddr: 0x1128, symBinAddr: 0x1000232DC, symSize: 0x1334 }
  - { offsetInCU: 0x73BC, offset: 0x262D5, size: 0x8, addend: 0x0, symName: __ZN3glm6detail8functor1INS_3vecELi3EffLNS_9qualifierE0EE4callEPFffERKNS2_ILi3EfLS3_0EEE, symObjAddr: 0x2FEC, symBinAddr: 0x1000251A0, symSize: 0x40C }
  - { offsetInCU: 0x73EF, offset: 0x26308, size: 0x8, addend: 0x0, symName: __Z3cosB8ue170006f, symObjAddr: 0x33F8, symBinAddr: 0x1000255AC, symSize: 0x24 }
  - { offsetInCU: 0x741D, offset: 0x26336, size: 0x8, addend: 0x0, symName: __Z3sinB8ue170006f, symObjAddr: 0x341C, symBinAddr: 0x1000255D0, symSize: 0x24 }
  - { offsetInCU: 0x744B, offset: 0x26364, size: 0x8, addend: 0x0, symName: __ZN3glm3matILi4ELi4EfLNS_9qualifierE0EEC2ERKf, symObjAddr: 0x3440, symBinAddr: 0x1000255F4, symSize: 0x23C }
  - { offsetInCU: 0x7483, offset: 0x2639C, size: 0x8, addend: 0x0, symName: __ZN3glm3vecILi4EfLNS_9qualifierE0EEC1IfiiiEET_T0_T1_T2_, symObjAddr: 0x367C, symBinAddr: 0x100025830, symSize: 0x4C }
  - { offsetInCU: 0x750A, offset: 0x26423, size: 0x8, addend: 0x0, symName: __ZN3glm3vecILi4EfLNS_9qualifierE0EEC1IifiiEET_T0_T1_T2_, symObjAddr: 0x36C8, symBinAddr: 0x10002587C, symSize: 0x4C }
  - { offsetInCU: 0x7591, offset: 0x264AA, size: 0x8, addend: 0x0, symName: __ZN3glm3vecILi4EfLNS_9qualifierE0EEC1IiifiEET_T0_T1_T2_, symObjAddr: 0x3714, symBinAddr: 0x1000258C8, symSize: 0x4C }
  - { offsetInCU: 0x7618, offset: 0x26531, size: 0x8, addend: 0x0, symName: __ZN3glm3vecILi4EfLNS_9qualifierE0EEC1IiiifEET_T0_T1_T2_, symObjAddr: 0x3760, symBinAddr: 0x100025914, symSize: 0x4C }
  - { offsetInCU: 0x769F, offset: 0x265B8, size: 0x8, addend: 0x0, symName: __ZN3glm3vecILi4EfLNS_9qualifierE0EEC2IfiiiEET_T0_T1_T2_, symObjAddr: 0x37AC, symBinAddr: 0x100025960, symSize: 0x1F8 }
  - { offsetInCU: 0x7726, offset: 0x2663F, size: 0x8, addend: 0x0, symName: __ZN3glm3vecILi4EfLNS_9qualifierE0EEC2IifiiEET_T0_T1_T2_, symObjAddr: 0x39A4, symBinAddr: 0x100025B58, symSize: 0x1F8 }
  - { offsetInCU: 0x77AD, offset: 0x266C6, size: 0x8, addend: 0x0, symName: __ZN3glm3vecILi4EfLNS_9qualifierE0EEC2IiifiEET_T0_T1_T2_, symObjAddr: 0x3B9C, symBinAddr: 0x100025D50, symSize: 0x1F8 }
  - { offsetInCU: 0x7834, offset: 0x2674D, size: 0x8, addend: 0x0, symName: __ZN3glm3vecILi4EfLNS_9qualifierE0EEC2IiiifEET_T0_T1_T2_, symObjAddr: 0x3D94, symBinAddr: 0x100025F48, symSize: 0x1F8 }
  - { offsetInCU: 0x78BB, offset: 0x267D4, size: 0x8, addend: 0x0, symName: __ZNSt3__110shared_ptrI6ShaderED2B8ue170006Ev, symObjAddr: 0x3F8C, symBinAddr: 0x100026140, symSize: 0xC8 }
  - { offsetInCU: 0x78E3, offset: 0x267FC, size: 0x8, addend: 0x0, symName: __ZNSt3__119__shared_weak_count16__release_sharedB8ue170006Ev, symObjAddr: 0x4054, symBinAddr: 0x100026208, symSize: 0x3C }
  - { offsetInCU: 0x7907, offset: 0x26820, size: 0x8, addend: 0x0, symName: __ZNSt3__114__shared_count16__release_sharedB8ue170006Ev, symObjAddr: 0x4090, symBinAddr: 0x100026244, symSize: 0xF8 }
  - { offsetInCU: 0x792B, offset: 0x26844, size: 0x8, addend: 0x0, symName: __ZNSt3__110shared_ptrI6ShaderEC2B8ue170006ERKS2_, symObjAddr: 0x4208, symBinAddr: 0x1000263BC, symSize: 0x1CC }
  - { offsetInCU: 0x7962, offset: 0x2687B, size: 0x8, addend: 0x0, symName: __ZNSt3__119__shared_weak_count12__add_sharedB8ue170006Ev, symObjAddr: 0x43D4, symBinAddr: 0x100026588, symSize: 0x24 }
  - { offsetInCU: 0x7986, offset: 0x2689F, size: 0x8, addend: 0x0, symName: __ZNSt3__114__shared_count12__add_sharedB8ue170006Ev, symObjAddr: 0x43F8, symBinAddr: 0x1000265AC, symSize: 0x28 }
  - { offsetInCU: 0x79AA, offset: 0x268C3, size: 0x8, addend: 0x0, symName: __ZNSt3__110shared_ptrI11VertexArrayEC2B8ue170006ERKS2_, symObjAddr: 0x44A0, symBinAddr: 0x100026654, symSize: 0x1CC }
  - { offsetInCU: 0x3B, offset: 0x2697B, size: 0x8, addend: 0x0, symName: _.str, symObjAddr: 0x36180, symBinAddr: 0x100491040, symSize: 0x0 }
  - { offsetInCU: 0x6C, offset: 0x269AC, size: 0x8, addend: 0x0, symName: _.str.1, symObjAddr: 0x361C0, symBinAddr: 0x100491080, symSize: 0x0 }
  - { offsetInCU: 0x8A, offset: 0x269CA, size: 0x8, addend: 0x0, symName: _.str.2, symObjAddr: 0x361E0, symBinAddr: 0x1004910A0, symSize: 0x0 }
  - { offsetInCU: 0xA8, offset: 0x269E8, size: 0x8, addend: 0x0, symName: _.str.3, symObjAddr: 0x36200, symBinAddr: 0x1004910C0, symSize: 0x0 }
  - { offsetInCU: 0xBA, offset: 0x269FA, size: 0x8, addend: 0x0, symName: _.str.4, symObjAddr: 0x36240, symBinAddr: 0x100491100, symSize: 0x0 }
  - { offsetInCU: 0xD8, offset: 0x26A18, size: 0x8, addend: 0x0, symName: _.str.5, symObjAddr: 0x36260, symBinAddr: 0x100491120, symSize: 0x0 }
  - { offsetInCU: 0xEA, offset: 0x26A2A, size: 0x8, addend: 0x0, symName: _.str.6, symObjAddr: 0x36280, symBinAddr: 0x100491140, symSize: 0x0 }
  - { offsetInCU: 0xFC, offset: 0x26A3C, size: 0x8, addend: 0x0, symName: _.str.7, symObjAddr: 0x362C0, symBinAddr: 0x100491180, symSize: 0x0 }
  - { offsetInCU: 0x11A, offset: 0x26A5A, size: 0x8, addend: 0x0, symName: _.str.8, symObjAddr: 0x36300, symBinAddr: 0x1004911C0, symSize: 0x0 }
  - { offsetInCU: 0x138, offset: 0x26A78, size: 0x8, addend: 0x0, symName: _.str.9, symObjAddr: 0x36320, symBinAddr: 0x1004911E0, symSize: 0x0 }
  - { offsetInCU: 0x156, offset: 0x26A96, size: 0x8, addend: 0x0, symName: _.str.10, symObjAddr: 0x363A0, symBinAddr: 0x100491260, symSize: 0x0 }
  - { offsetInCU: 0x18F, offset: 0x26ACF, size: 0x8, addend: 0x0, symName: _.str.11, symObjAddr: 0x36420, symBinAddr: 0x1004912E0, symSize: 0x0 }
  - { offsetInCU: 0x1BB, offset: 0x26AFB, size: 0x8, addend: 0x0, symName: __ZNSt3__119piecewise_constructE, symObjAddr: 0x36440, symBinAddr: 0x1004864E4, symSize: 0x0 }
  - { offsetInCU: 0x4592, offset: 0x2AED2, size: 0x8, addend: 0x0, symName: __ZNSt3__124__put_character_sequenceB8ue170006IcNS_11char_traitsIcEEEERNS_13basic_ostreamIT_T0_EES7_PKS4_m, symObjAddr: 0x9354, symBinAddr: 0x10002F188, symSize: 0x744 }
  - { offsetInCU: 0x9408, offset: 0x2FD48, size: 0x8, addend: 0x0, symName: __ZNSt3__17advanceB8ue170006INS_11__wrap_iterIPNS_10shared_ptrI9Texture2DEEEEllvEEvRT_T0_, symObjAddr: 0x206B4, symBinAddr: 0x10003EB58, symSize: 0x38 }
  - { offsetInCU: 0xDF05, offset: 0x34845, size: 0x8, addend: 0x0, symName: __ZNSt3__1lsB8ue170006INS_11char_traitsIcEEEERNS_13basic_ostreamIcT_EES6_PKc, symObjAddr: 0x65C, symBinAddr: 0x100026E94, symSize: 0x48 }
  - { offsetInCU: 0xDF4B, offset: 0x3488B, size: 0x8, addend: 0x0, symName: __ZNSt3__14endlB8ue170006IcNS_11char_traitsIcEEEERNS_13basic_ostreamIT_T0_EES7_, symObjAddr: 0x6D0, symBinAddr: 0x100026F08, symSize: 0xD4 }
  - { offsetInCU: 0xDF8B, offset: 0x348CB, size: 0x8, addend: 0x0, symName: __ZNSt3__112__to_addressB8ue170006IKcEEPT_S3_, symObjAddr: 0x77BC, symBinAddr: 0x10002D9A0, symSize: 0x14 }
  - { offsetInCU: 0xDFF4, offset: 0x34934, size: 0x8, addend: 0x0, symName: __ZNSt3__112__to_addressB8ue170006INS_10shared_ptrI9Texture2DEEEEPT_S5_, symObjAddr: 0x847C, symBinAddr: 0x10002E3D8, symSize: 0x14 }
  - { offsetInCU: 0xE02A, offset: 0x3496A, size: 0x8, addend: 0x0, symName: __ZNSt3__118__constexpr_strlenB8ue170006EPKc, symObjAddr: 0x8B78, symBinAddr: 0x10002E9AC, symSize: 0x24 }
  - { offsetInCU: 0xE089, offset: 0x349C9, size: 0x8, addend: 0x0, symName: __ZNSt3__116__pad_and_outputB8ue170006IcNS_11char_traitsIcEEEENS_19ostreambuf_iteratorIT_T0_EES6_PKS4_S8_S8_RNS_8ios_baseES4_, symObjAddr: 0x9B20, symBinAddr: 0x10002F954, symSize: 0x760 }
  - { offsetInCU: 0xE16B, offset: 0x34AAB, size: 0x8, addend: 0x0, symName: __ZNSt3__112__to_addressB8ue170006IcEEPT_S2_, symObjAddr: 0xA9BC, symBinAddr: 0x1000307F0, symSize: 0x14 }
  - { offsetInCU: 0xE1A1, offset: 0x34AE1, size: 0x8, addend: 0x0, symName: __ZNSt3__19use_facetB8ue170006INS_5ctypeIcEEEERKT_RKNS_6localeE, symObjAddr: 0xAE8C, symBinAddr: 0x100030CC0, symSize: 0x2C }
  - { offsetInCU: 0xE676, offset: 0x34FB6, size: 0x8, addend: 0x0, symName: __ZNSt3__118__str_find_last_ofB8ue170006IcmNS_11char_traitsIcEELm18446744073709551615EEET0_PKT_S3_S6_S3_S3_, symObjAddr: 0xB010, symBinAddr: 0x100030E44, symSize: 0x140 }
  - { offsetInCU: 0xE74A, offset: 0x3508A, size: 0x8, addend: 0x0, symName: __ZNSt3__118__constexpr_memchrB8ue170006IKccEEPT_S3_T0_m, symObjAddr: 0xB290, symBinAddr: 0x1000310C4, symSize: 0x2C4 }
  - { offsetInCU: 0xE7C3, offset: 0x35103, size: 0x8, addend: 0x0, symName: __ZNSt3__112__to_addressB8ue170006I4MeshEEPT_S3_, symObjAddr: 0xBF50, symBinAddr: 0x100031D84, symSize: 0x14 }
  - { offsetInCU: 0xE7F9, offset: 0x35139, size: 0x8, addend: 0x0, symName: __ZNSt3__119__allocate_at_leastB8ue170006INS_9allocatorI4MeshEEEENS_19__allocation_resultINS_16allocator_traitsIT_E7pointerEEERS6_m, symObjAddr: 0xE45C, symBinAddr: 0x100033C68, symSize: 0x28C }
  - { offsetInCU: 0xE83E, offset: 0x3517E, size: 0x8, addend: 0x0, symName: __ZNSt3__142__uninitialized_allocator_move_if_noexceptB8ue170006INS_9allocatorI4MeshEENS_16reverse_iteratorIPS2_EES6_S6_EET2_RT_T0_T1_S7_, symObjAddr: 0xEB30, symBinAddr: 0x100034254, symSize: 0x544 }
  - { offsetInCU: 0xE8F5, offset: 0x35235, size: 0x8, addend: 0x0, symName: __ZNSt3__14swapB8ue170006IP4MeshEENS_9enable_ifIXaasr21is_move_constructibleIT_EE5valuesr18is_move_assignableIS4_EE5valueEvE4typeERS4_S7_, symObjAddr: 0xF10C, symBinAddr: 0x100034830, symSize: 0x134 }
  - { offsetInCU: 0xE946, offset: 0x35286, size: 0x8, addend: 0x0, symName: __ZNSt3__122__make_exception_guardB8ue170006INS_29_AllocatorDestroyRangeReverseINS_9allocatorI4MeshEENS_16reverse_iteratorIPS3_EEEEEENS_28__exception_guard_exceptionsIT_EESA_, symObjAddr: 0xF31C, symBinAddr: 0x100034A40, symSize: 0x1F8 }
  - { offsetInCU: 0xE97D, offset: 0x352BD, size: 0x8, addend: 0x0, symName: __ZNSt3__1neB8ue170006IP4MeshS2_EEbRKNS_16reverse_iteratorIT_EERKNS3_IT0_EE, symObjAddr: 0xF558, symBinAddr: 0x100034C7C, symSize: 0x48 }
  - { offsetInCU: 0xE9C9, offset: 0x35309, size: 0x8, addend: 0x0, symName: __ZNSt3__112__to_addressB8ue170006INS_16reverse_iteratorIP4MeshEEvEEu7__decayIDTclsr19__to_address_helperIT_EE6__callclsr3stdE7declvalIRKS5_EEEEES7_, symObjAddr: 0xF5A0, symBinAddr: 0x100034CC4, symSize: 0x24 }
  - { offsetInCU: 0xEA29, offset: 0x35369, size: 0x8, addend: 0x0, symName: __ZNSt3__119__allocator_destroyB8ue170006INS_9allocatorI4MeshEENS_16reverse_iteratorINS4_IPS2_EEEES7_EEvRT_T0_T1_, symObjAddr: 0xFE04, symBinAddr: 0x100035528, symSize: 0x70 }
  - { offsetInCU: 0xEA8F, offset: 0x353CF, size: 0x8, addend: 0x0, symName: __ZNSt3__1neB8ue170006INS_16reverse_iteratorIP4MeshEES4_EEbRKNS1_IT_EERKNS1_IT0_EE, symObjAddr: 0x100BC, symBinAddr: 0x1000357E0, symSize: 0x2CC }
  - { offsetInCU: 0xEADD, offset: 0x3541D, size: 0x8, addend: 0x0, symName: __ZNSt3__112__to_addressB8ue170006INS_16reverse_iteratorINS1_IP4MeshEEEEvEEu7__decayIDTclsr19__to_address_helperIT_EE6__callclsr3stdE7declvalIRKS6_EEEEES8_, symObjAddr: 0x103B4, symBinAddr: 0x100035AD8, symSize: 0x24 }
  - { offsetInCU: 0xEB3D, offset: 0x3547D, size: 0x8, addend: 0x0, symName: __ZNSt3__112__to_addressB8ue170006IjEEPT_S2_, symObjAddr: 0x12AD8, symBinAddr: 0x1000373B4, symSize: 0x14 }
  - { offsetInCU: 0xECD3, offset: 0x35613, size: 0x8, addend: 0x0, symName: __ZNSt3__119__allocate_at_leastB8ue170006INS_9allocatorIjEEEENS_19__allocation_resultINS_16allocator_traitsIT_E7pointerEEERS5_m, symObjAddr: 0x1AE28, symBinAddr: 0x100039700, symSize: 0x28C }
  - { offsetInCU: 0xED18, offset: 0x35658, size: 0x8, addend: 0x0, symName: __ZNSt3__142__uninitialized_allocator_move_if_noexceptB8ue170006INS_9allocatorIjEENS_16reverse_iteratorIPjEES5_jvEET1_RT_T0_S9_S6_, symObjAddr: 0x1B2C4, symBinAddr: 0x100039B9C, symSize: 0x4A8 }
  - { offsetInCU: 0xEDA3, offset: 0x356E3, size: 0x8, addend: 0x0, symName: __ZNSt3__14swapB8ue170006IPjEENS_9enable_ifIXaasr21is_move_constructibleIT_EE5valuesr18is_move_assignableIS3_EE5valueEvE4typeERS3_S6_, symObjAddr: 0x1B804, symBinAddr: 0x10003A0DC, symSize: 0x134 }
  - { offsetInCU: 0xEDF4, offset: 0x35734, size: 0x8, addend: 0x0, symName: __ZNSt3__14moveB8ue170006INS_16reverse_iteratorIPjEES3_EET0_T_S5_S4_, symObjAddr: 0x1B9F8, symBinAddr: 0x10003A2D0, symSize: 0x4B0 }
  - { offsetInCU: 0xEE5B, offset: 0x3579B, size: 0x8, addend: 0x0, symName: __ZNSt3__16__moveB8ue170006INS_17_ClassicAlgPolicyENS_16reverse_iteratorIPjEES4_S4_EENS_4pairIT0_T2_EES6_T1_S7_, symObjAddr: 0x1BEA8, symBinAddr: 0x10003A780, symSize: 0x424 }
  - { offsetInCU: 0xEED3, offset: 0x35813, size: 0x8, addend: 0x0, symName: __ZNSt3__123__dispatch_copy_or_moveB8ue170006INS_17_ClassicAlgPolicyENS_11__move_loopIS1_EENS_14__move_trivialENS_16reverse_iteratorIPjEES7_S7_EENS_4pairIT2_T4_EES9_T3_SA_, symObjAddr: 0x1C2CC, symBinAddr: 0x10003ABA4, symSize: 0x424 }
  - { offsetInCU: 0xEF5D, offset: 0x3589D, size: 0x8, addend: 0x0, symName: __ZNSt3__121__unwrap_and_dispatchB8ue170006INS_10__overloadINS_11__move_loopINS_17_ClassicAlgPolicyEEENS_14__move_trivialEEENS_16reverse_iteratorIPjEES9_S9_Li0EEENS_4pairIT0_T2_EESB_T1_SC_, symObjAddr: 0x1C6F0, symBinAddr: 0x10003AFC8, symSize: 0x880 }
  - { offsetInCU: 0xF002, offset: 0x35942, size: 0x8, addend: 0x0, symName: __ZNSt3__114__unwrap_rangeB8ue170006INS_16reverse_iteratorIPjEES3_EENS_4pairIT0_S5_EET_S7_, symObjAddr: 0x1CF70, symBinAddr: 0x10003B848, symSize: 0x448 }
  - { offsetInCU: 0xF12B, offset: 0x35A6B, size: 0x8, addend: 0x0, symName: __ZNSt3__113__unwrap_iterB8ue170006INS_16reverse_iteratorIPjEENS_18__unwrap_iter_implIS3_Lb0EEELi0EEEDTclsrT0_8__unwrapclsr3stdE7declvalIT_EEEES7_, symObjAddr: 0x1D7B0, symBinAddr: 0x10003C088, symSize: 0x2EC }
  - { offsetInCU: 0xF174, offset: 0x35AB4, size: 0x8, addend: 0x0, symName: __ZNSt3__19make_pairB8ue170006INS_16reverse_iteratorIPjEES3_EENS_4pairINS_18__unwrap_ref_decayIT_E4typeENS5_IT0_E4typeEEEOS6_OS9_, symObjAddr: 0x1DA9C, symBinAddr: 0x10003C374, symSize: 0x38 }
  - { offsetInCU: 0xF1C3, offset: 0x35B03, size: 0x8, addend: 0x0, symName: __ZNSt3__114__rewrap_rangeB8ue170006INS_16reverse_iteratorIPjEES3_EET_S4_T0_, symObjAddr: 0x1DAD4, symBinAddr: 0x10003C3AC, symSize: 0x3D4 }
  - { offsetInCU: 0xF217, offset: 0x35B57, size: 0x8, addend: 0x0, symName: __ZNSt3__113__rewrap_iterB8ue170006INS_16reverse_iteratorIPjEES3_NS_18__unwrap_iter_implIS3_Lb0EEEEET_S6_T0_, symObjAddr: 0x1DEA8, symBinAddr: 0x10003C780, symSize: 0x3E8 }
  - { offsetInCU: 0xF274, offset: 0x35BB4, size: 0x8, addend: 0x0, symName: __ZNSt3__1neB8ue170006IPjS1_EEbRKNS_16reverse_iteratorIT_EERKNS2_IT0_EE, symObjAddr: 0x1E290, symBinAddr: 0x10003CB68, symSize: 0x48 }
  - { offsetInCU: 0xF32D, offset: 0x35C6D, size: 0x8, addend: 0x0, symName: __ZNSt3__18distanceB8ue170006INS_11__wrap_iterIPNS_10shared_ptrI9Texture2DEEEEEENS_15iterator_traitsIT_E15difference_typeES8_S8_, symObjAddr: 0x2006C, symBinAddr: 0x10003E510, symSize: 0x350 }
  - { offsetInCU: 0xF378, offset: 0x35CB8, size: 0x8, addend: 0x0, symName: __ZNSt3__1miB8ue170006IPKNS_10shared_ptrI9Texture2DEEPS3_EEDTmicldtfp_4baseEcldtfp0_4baseEERKNS_11__wrap_iterIT_EERKNS8_IT0_EE, symObjAddr: 0x203BC, symBinAddr: 0x10003E860, symSize: 0x48 }
  - { offsetInCU: 0xF3C4, offset: 0x35D04, size: 0x8, addend: 0x0, symName: __ZNSt3__14nextB8ue170006INS_11__wrap_iterIPNS_10shared_ptrI9Texture2DEEEEEENS_9enable_ifIXsr29__has_input_iterator_categoryIT_EE5valueES8_E4typeES8_NS_15iterator_traitsIS8_E15difference_typeE, symObjAddr: 0x2042C, symBinAddr: 0x10003E8D0, symSize: 0x288 }
  - { offsetInCU: 0xF40C, offset: 0x35D4C, size: 0x8, addend: 0x0, symName: __ZNSt3__14copyB8ue170006INS_11__wrap_iterIPNS_10shared_ptrI9Texture2DEEEES5_EET0_T_S8_S7_, symObjAddr: 0x21084, symBinAddr: 0x10003F528, symSize: 0x428 }
  - { offsetInCU: 0xF46F, offset: 0x35DAF, size: 0x8, addend: 0x0, symName: __ZNSt3__121__convert_to_integralB8ue170006El, symObjAddr: 0x22428, symBinAddr: 0x1000408CC, symSize: 0x14 }
  - { offsetInCU: 0xF49C, offset: 0x35DDC, size: 0x8, addend: 0x0, symName: __ZNSt3__19__advanceB8ue170006INS_11__wrap_iterIPNS_10shared_ptrI9Texture2DEEEEEEvRT_NS_15iterator_traitsIS7_E15difference_typeENS_26random_access_iterator_tagE, symObjAddr: 0x2243C, symBinAddr: 0x1000408E0, symSize: 0x2C }
  - { offsetInCU: 0xF4E7, offset: 0x35E27, size: 0x8, addend: 0x0, symName: __ZNSt3__130__uninitialized_allocator_copyB8ue170006INS_9allocatorINS_10shared_ptrI9Texture2DEEEENS_11__wrap_iterIPS4_EES8_S7_EET2_RT_T0_T1_S9_, symObjAddr: 0x2251C, symBinAddr: 0x1000409C0, symSize: 0x498 }
  - { offsetInCU: 0xF595, offset: 0x35ED5, size: 0x8, addend: 0x0, symName: __ZNSt3__114__unwrap_rangeB8ue170006INS_11__wrap_iterIPNS_10shared_ptrI9Texture2DEEEES5_EENS_4pairIT0_S8_EET_SA_, symObjAddr: 0x22C88, symBinAddr: 0x10004112C, symSize: 0x4D4 }
  - { offsetInCU: 0xF5E9, offset: 0x35F29, size: 0x8, addend: 0x0, symName: __ZNSt3__135__uninitialized_allocator_copy_implB8ue170006INS_9allocatorINS_10shared_ptrI9Texture2DEEEEPS4_S6_S6_EET2_RT_T0_T1_S7_, symObjAddr: 0x2315C, symBinAddr: 0x100041600, symSize: 0x520 }
  - { offsetInCU: 0xF697, offset: 0x35FD7, size: 0x8, addend: 0x0, symName: __ZNSt3__113__unwrap_iterB8ue170006IPNS_10shared_ptrI9Texture2DEENS_18__unwrap_iter_implIS4_Lb1EEELi0EEEDTclsrT0_8__unwrapclsr3stdE7declvalIT_EEEES8_, symObjAddr: 0x2367C, symBinAddr: 0x100041B20, symSize: 0x24 }
  - { offsetInCU: 0xF6DC, offset: 0x3601C, size: 0x8, addend: 0x0, symName: __ZNSt3__113__rewrap_iterB8ue170006IPNS_10shared_ptrI9Texture2DEES4_NS_18__unwrap_iter_implIS4_Lb1EEEEET_S7_T0_, symObjAddr: 0x236A0, symBinAddr: 0x100041B44, symSize: 0x48 }
  - { offsetInCU: 0xF731, offset: 0x36071, size: 0x8, addend: 0x0, symName: __ZNSt3__19make_pairB8ue170006IPNS_10shared_ptrI9Texture2DEES4_EENS_4pairINS_18__unwrap_ref_decayIT_E4typeENS6_IT0_E4typeEEEOS7_OSA_, symObjAddr: 0x236E8, symBinAddr: 0x100041B8C, symSize: 0x20C }
  - { offsetInCU: 0xF782, offset: 0x360C2, size: 0x8, addend: 0x0, symName: __ZNSt3__113__unwrap_iterB8ue170006INS_11__wrap_iterIPNS_10shared_ptrI9Texture2DEEEENS_18__unwrap_iter_implIS6_Lb1EEELi0EEEDTclsrT0_8__unwrapclsr3stdE7declvalIT_EEEESA_, symObjAddr: 0x238F4, symBinAddr: 0x100041D98, symSize: 0x274 }
  - { offsetInCU: 0xF8F3, offset: 0x36233, size: 0x8, addend: 0x0, symName: __ZNSt3__112__to_addressB8ue170006INS_11__wrap_iterIPNS_10shared_ptrI9Texture2DEEEEvEEu7__decayIDTclsr19__to_address_helperIT_EE6__callclsr3stdE7declvalIRKS7_EEEEES9_, symObjAddr: 0x23ECC, symBinAddr: 0x100042370, symSize: 0x24 }
  - { offsetInCU: 0xF9CF, offset: 0x3630F, size: 0x8, addend: 0x0, symName: __ZNSt3__122__make_exception_guardB8ue170006INS_29_AllocatorDestroyRangeReverseINS_9allocatorINS_10shared_ptrI9Texture2DEEEEPS5_EEEENS_28__exception_guard_exceptionsIT_EESA_, symObjAddr: 0x242E4, symBinAddr: 0x100042788, symSize: 0x1F8 }
  - { offsetInCU: 0xFA06, offset: 0x36346, size: 0x8, addend: 0x0, symName: __ZNSt3__119__allocator_destroyB8ue170006INS_9allocatorINS_10shared_ptrI9Texture2DEEEENS_16reverse_iteratorIPS4_EES8_EEvRT_T0_T1_, symObjAddr: 0x24E70, symBinAddr: 0x100043314, symSize: 0x2B8 }
  - { offsetInCU: 0xFA73, offset: 0x363B3, size: 0x8, addend: 0x0, symName: __ZNSt3__1neB8ue170006IPNS_10shared_ptrI9Texture2DEES4_EEbRKNS_16reverse_iteratorIT_EERKNS5_IT0_EE, symObjAddr: 0x2515C, symBinAddr: 0x100043600, symSize: 0x48 }
  - { offsetInCU: 0xFABF, offset: 0x363FF, size: 0x8, addend: 0x0, symName: __ZNSt3__112__to_addressB8ue170006INS_16reverse_iteratorIPNS_10shared_ptrI9Texture2DEEEEvEEu7__decayIDTclsr19__to_address_helperIT_EE6__callclsr3stdE7declvalIRKS7_EEEEES9_, symObjAddr: 0x251A4, symBinAddr: 0x100043648, symSize: 0x24 }
  - { offsetInCU: 0xFB72, offset: 0x364B2, size: 0x8, addend: 0x0, symName: __ZNSt3__113move_backwardB8ue170006IPNS_10shared_ptrI9Texture2DEES4_EET0_T_S6_S5_, symObjAddr: 0x25814, symBinAddr: 0x100043CB8, symSize: 0x26C }
  - { offsetInCU: 0xFBCF, offset: 0x3650F, size: 0x8, addend: 0x0, symName: __ZNSt3__115__move_backwardB8ue170006INS_17_ClassicAlgPolicyEPNS_10shared_ptrI9Texture2DEES5_S5_EENS_4pairIT0_T2_EES7_T1_S8_, symObjAddr: 0x25C9C, symBinAddr: 0x100044140, symSize: 0x22C }
  - { offsetInCU: 0xFC3E, offset: 0x3657E, size: 0x8, addend: 0x0, symName: __ZNSt3__123__dispatch_copy_or_moveB8ue170006INS_17_ClassicAlgPolicyENS_20__move_backward_loopIS1_EENS_23__move_backward_trivialEPNS_10shared_ptrI9Texture2DEES8_S8_EENS_4pairIT2_T4_EESA_T3_SB_, symObjAddr: 0x25EC8, symBinAddr: 0x10004436C, symSize: 0x22C }
  - { offsetInCU: 0xFCBF, offset: 0x365FF, size: 0x8, addend: 0x0, symName: __ZNSt3__121__unwrap_and_dispatchB8ue170006INS_10__overloadINS_20__move_backward_loopINS_17_ClassicAlgPolicyEEENS_23__move_backward_trivialEEEPNS_10shared_ptrI9Texture2DEESA_SA_Li0EEENS_4pairIT0_T2_EESC_T1_SD_, symObjAddr: 0x260F4, symBinAddr: 0x100044598, symSize: 0x5A4 }
  - { offsetInCU: 0xFD59, offset: 0x36699, size: 0x8, addend: 0x0, symName: __ZNSt3__114__unwrap_rangeB8ue170006IPNS_10shared_ptrI9Texture2DEES4_EENS_4pairIT0_S6_EET_S8_, symObjAddr: 0x26698, symBinAddr: 0x100044B3C, symSize: 0x350 }
  - { offsetInCU: 0xFDF9, offset: 0x36739, size: 0x8, addend: 0x0, symName: __ZNSt3__114__rewrap_rangeB8ue170006IPNS_10shared_ptrI9Texture2DEES4_EET_S5_T0_, symObjAddr: 0x26ED8, symBinAddr: 0x10004537C, symSize: 0x2C }
  - { offsetInCU: 0xFE6A, offset: 0x367AA, size: 0x8, addend: 0x0, symName: __ZNSt3__16__copyB8ue170006INS_17_ClassicAlgPolicyENS_11__wrap_iterIPNS_10shared_ptrI9Texture2DEEEES7_S6_EENS_4pairIT0_T2_EES9_T1_SA_, symObjAddr: 0x26F8C, symBinAddr: 0x100045430, symSize: 0x3E4 }
  - { offsetInCU: 0xFEDF, offset: 0x3681F, size: 0x8, addend: 0x0, symName: __ZNSt3__123__dispatch_copy_or_moveB8ue170006INS_17_ClassicAlgPolicyENS_11__copy_loopIS1_EENS_14__copy_trivialENS_11__wrap_iterIPNS_10shared_ptrI9Texture2DEEEESA_S9_EENS_4pairIT2_T4_EESC_T3_SD_, symObjAddr: 0x27370, symBinAddr: 0x100045814, symSize: 0x3E4 }
  - { offsetInCU: 0xFF66, offset: 0x368A6, size: 0x8, addend: 0x0, symName: __ZNSt3__121__unwrap_and_dispatchB8ue170006INS_10__overloadINS_11__copy_loopINS_17_ClassicAlgPolicyEEENS_14__copy_trivialEEENS_11__wrap_iterIPNS_10shared_ptrI9Texture2DEEEESC_SB_Li0EEENS_4pairIT0_T2_EESE_T1_SF_, symObjAddr: 0x27754, symBinAddr: 0x100045BF8, symSize: 0x768 }
  - { offsetInCU: 0x1005A, offset: 0x3699A, size: 0x8, addend: 0x0, symName: __ZNSt3__19make_pairB8ue170006INS_11__wrap_iterIPNS_10shared_ptrI9Texture2DEEEES5_EENS_4pairINS_18__unwrap_ref_decayIT_E4typeENS8_IT0_E4typeEEEOS9_OSC_, symObjAddr: 0x28314, symBinAddr: 0x1000467B8, symSize: 0x20C }
  - { offsetInCU: 0x100AB, offset: 0x369EB, size: 0x8, addend: 0x0, symName: __ZNSt3__114__rewrap_rangeB8ue170006INS_11__wrap_iterIPNS_10shared_ptrI9Texture2DEEEES5_EET_S7_T0_, symObjAddr: 0x28520, symBinAddr: 0x1000469C4, symSize: 0x324 }
  - { offsetInCU: 0x101D1, offset: 0x36B11, size: 0x8, addend: 0x0, symName: __ZNSt3__113__rewrap_iterB8ue170006INS_11__wrap_iterIPNS_10shared_ptrI9Texture2DEEEES5_NS_18__unwrap_iter_implIS6_Lb1EEEEET_S9_T0_, symObjAddr: 0x28950, symBinAddr: 0x100046DF4, symSize: 0x338 }
  - { offsetInCU: 0x1022B, offset: 0x36B6B, size: 0x8, addend: 0x0, symName: __ZNSt3__119__allocate_at_leastB8ue170006INS_9allocatorINS_10shared_ptrI9Texture2DEEEEEENS_19__allocation_resultINS_16allocator_traitsIT_E7pointerEEERS8_m, symObjAddr: 0x29A78, symBinAddr: 0x100047F1C, symSize: 0x28C }
  - { offsetInCU: 0x10270, offset: 0x36BB0, size: 0x8, addend: 0x0, symName: __ZNSt3__142__uninitialized_allocator_move_if_noexceptB8ue170006INS_9allocatorINS_10shared_ptrI9Texture2DEEEENS_16reverse_iteratorIPS4_EES8_S8_EET2_RT_T0_T1_S9_, symObjAddr: 0x2A2A8, symBinAddr: 0x10004874C, symSize: 0x534 }
  - { offsetInCU: 0x10327, offset: 0x36C67, size: 0x8, addend: 0x0, symName: __ZNSt3__142__uninitialized_allocator_move_if_noexceptB8ue170006INS_9allocatorINS_10shared_ptrI9Texture2DEEEEPS4_S6_S6_EET2_RT_T0_T1_S7_, symObjAddr: 0x2A7DC, symBinAddr: 0x100048C80, symSize: 0x520 }
  - { offsetInCU: 0x103D5, offset: 0x36D15, size: 0x8, addend: 0x0, symName: __ZNSt3__14swapB8ue170006IPNS_10shared_ptrI9Texture2DEEEENS_9enable_ifIXaasr21is_move_constructibleIT_EE5valuesr18is_move_assignableIS6_EE5valueEvE4typeERS6_S9_, symObjAddr: 0x2ACFC, symBinAddr: 0x1000491A0, symSize: 0x134 }
  - { offsetInCU: 0x10426, offset: 0x36D66, size: 0x8, addend: 0x0, symName: __ZNSt3__122__make_exception_guardB8ue170006INS_29_AllocatorDestroyRangeReverseINS_9allocatorINS_10shared_ptrI9Texture2DEEEENS_16reverse_iteratorIPS5_EEEEEENS_28__exception_guard_exceptionsIT_EESC_, symObjAddr: 0x2AEF0, symBinAddr: 0x100049394, symSize: 0x1F8 }
  - { offsetInCU: 0x1045D, offset: 0x36D9D, size: 0x8, addend: 0x0, symName: __ZNSt3__119__allocator_destroyB8ue170006INS_9allocatorINS_10shared_ptrI9Texture2DEEEENS_16reverse_iteratorINS6_IPS4_EEEES9_EEvRT_T0_T1_, symObjAddr: 0x2B824, symBinAddr: 0x100049CC8, symSize: 0x70 }
  - { offsetInCU: 0x104C3, offset: 0x36E03, size: 0x8, addend: 0x0, symName: __ZNSt3__1neB8ue170006INS_16reverse_iteratorIPNS_10shared_ptrI9Texture2DEEEES6_EEbRKNS1_IT_EERKNS1_IT0_EE, symObjAddr: 0x2BADC, symBinAddr: 0x100049F80, symSize: 0x2CC }
  - { offsetInCU: 0x10511, offset: 0x36E51, size: 0x8, addend: 0x0, symName: __ZNSt3__112__to_addressB8ue170006INS_16reverse_iteratorINS1_IPNS_10shared_ptrI9Texture2DEEEEEEvEEu7__decayIDTclsr19__to_address_helperIT_EE6__callclsr3stdE7declvalIRKS8_EEEEESA_, symObjAddr: 0x2BDA8, symBinAddr: 0x10004A24C, symSize: 0x24 }
  - { offsetInCU: 0x10571, offset: 0x36EB1, size: 0x8, addend: 0x0, symName: __ZNSt3__110__distanceB8ue170006INS_11__wrap_iterIPNS_10shared_ptrI9Texture2DEEEEEENS_15iterator_traitsIT_E15difference_typeES8_S8_NS_26random_access_iterator_tagE, symObjAddr: 0x2C8A0, symBinAddr: 0x10004AD44, symSize: 0x274 }
  - { offsetInCU: 0x105C8, offset: 0x36F08, size: 0x8, addend: 0x0, symName: __ZNSt3__1miB8ue170006IPNS_10shared_ptrI9Texture2DEES4_EEDTmicldtfp_4baseEcldtfp0_4baseEERKNS_11__wrap_iterIT_EERKNS6_IT0_EE, symObjAddr: 0x2CB14, symBinAddr: 0x10004AFB8, symSize: 0x48 }
  - { offsetInCU: 0x10614, offset: 0x36F54, size: 0x8, addend: 0x0, symName: __ZNSt3__1neB8ue170006ERKNS_21__hash_const_iteratorIPNS_11__hash_nodeINS_17__hash_value_typeINS_12basic_stringIcNS_11char_traitsIcEENS_9allocatorIcEEEENS_10shared_ptrI9Texture2DEEEEPvEEEESI_, symObjAddr: 0x2CE1C, symBinAddr: 0x10004B2C0, symSize: 0x34 }
  - { offsetInCU: 0x10651, offset: 0x36F91, size: 0x8, addend: 0x0, symName: __ZNSt3__1eqB8ue170006ERKNS_21__hash_const_iteratorIPNS_11__hash_nodeINS_17__hash_value_typeINS_12basic_stringIcNS_11char_traitsIcEENS_9allocatorIcEEEENS_10shared_ptrI9Texture2DEEEEPvEEEESI_, symObjAddr: 0x2D4D4, symBinAddr: 0x10004B978, symSize: 0xB8 }
  - { offsetInCU: 0x1068E, offset: 0x36FCE, size: 0x8, addend: 0x0, symName: __ZNSt3__116__constrain_hashB8ue170006Emm, symObjAddr: 0x2D608, symBinAddr: 0x10004BAAC, symSize: 0x98 }
  - { offsetInCU: 0x106C9, offset: 0x37009, size: 0x8, addend: 0x0, symName: __ZNSt3__116__do_string_hashB8ue170006IPKcEEmT_S3_, symObjAddr: 0x2D8EC, symBinAddr: 0x10004BD90, symSize: 0x1EC }
  - { offsetInCU: 0x10711, offset: 0x37051, size: 0x8, addend: 0x0, symName: __ZNSt3__110__loadwordB8ue170006ImEET_PKv, symObjAddr: 0x2EF9C, symBinAddr: 0x10004D440, symSize: 0x214 }
  - { offsetInCU: 0x10759, offset: 0x37099, size: 0x8, addend: 0x0, symName: __ZNSt3__14swapB8ue170006ImEENS_9enable_ifIXaasr21is_move_constructibleIT_EE5valuesr18is_move_assignableIS2_EE5valueEvE4typeERS2_S5_, symObjAddr: 0x2F638, symBinAddr: 0x10004DADC, symSize: 0x134 }
  - { offsetInCU: 0x107AA, offset: 0x370EA, size: 0x8, addend: 0x0, symName: __ZNSt3__110__loadwordB8ue170006IjEET_PKv, symObjAddr: 0x2F7C0, symBinAddr: 0x10004DC64, symSize: 0x240 }
  - { offsetInCU: 0x107F2, offset: 0x37132, size: 0x8, addend: 0x0, symName: __ZNSt3__1eqB8ue170006INS_9allocatorIcEEEEbRKNS_12basic_stringIcNS_11char_traitsIcEET_EES9_, symObjAddr: 0x300D8, symBinAddr: 0x10004E57C, symSize: 0x234 }
  - { offsetInCU: 0x10868, offset: 0x371A8, size: 0x8, addend: 0x0, symName: __ZNSt3__17launderB8ue170006IKNS_4pairIKNS_12basic_stringIcNS_11char_traitsIcEENS_9allocatorIcEEEENS_10shared_ptrI9Texture2DEEEEEEPT_SF_, symObjAddr: 0x30340, symBinAddr: 0x10004E7E4, symSize: 0x24 }
  - { offsetInCU: 0x1089F, offset: 0x371DF, size: 0x8, addend: 0x0, symName: __ZNSt3__19__launderB8ue170006IKNS_4pairIKNS_12basic_stringIcNS_11char_traitsIcEENS_9allocatorIcEEEENS_10shared_ptrI9Texture2DEEEEEEPT_SF_, symObjAddr: 0x30364, symBinAddr: 0x10004E808, symSize: 0x14 }
  - { offsetInCU: 0x1090A, offset: 0x3724A, size: 0x8, addend: 0x0, symName: __ZNSt3__14swapB8ue170006IP9Texture2DEENS_9enable_ifIXaasr21is_move_constructibleIT_EE5valuesr18is_move_assignableIS4_EE5valueEvE4typeERS4_S7_, symObjAddr: 0x30508, symBinAddr: 0x10004E9AC, symSize: 0x134 }
  - { offsetInCU: 0x1095B, offset: 0x3729B, size: 0x8, addend: 0x0, symName: __ZNSt3__14swapB8ue170006IPNS_19__shared_weak_countEEENS_9enable_ifIXaasr21is_move_constructibleIT_EE5valuesr18is_move_assignableIS4_EE5valueEvE4typeERS4_S7_, symObjAddr: 0x3063C, symBinAddr: 0x10004EAE0, symSize: 0x134 }
  - { offsetInCU: 0x109E4, offset: 0x37324, size: 0x8, addend: 0x0, symName: __ZNSt3__116forward_as_tupleB8ue170006IJNS_12basic_stringIcNS_11char_traitsIcEENS_9allocatorIcEEEEEEENS_5tupleIJDpOT_EEESA_, symObjAddr: 0x32270, symBinAddr: 0x100050714, symSize: 0x1F8 }
  - { offsetInCU: 0x10A1E, offset: 0x3735E, size: 0x8, addend: 0x0, symName: __ZNSt3__116forward_as_tupleB8ue170006IJEEENS_5tupleIJDpOT_EEES4_, symObjAddr: 0x32468, symBinAddr: 0x10005090C, symSize: 0x4 }
  - { offsetInCU: 0x10A44, offset: 0x37384, size: 0x8, addend: 0x0, symName: __ZNSt3__116__is_hash_power2B8ue170006Em, symObjAddr: 0x329F0, symBinAddr: 0x100050E94, symSize: 0x50 }
  - { offsetInCU: 0x10A9B, offset: 0x373DB, size: 0x8, addend: 0x0, symName: __ZNSt3__13getB8ue170006ILm0EJONS_12basic_stringIcNS_11char_traitsIcEENS_9allocatorIcEEEEEEERNS_13tuple_elementIXT_ENS_5tupleIJDpT0_EEEE4typeERSC_, symObjAddr: 0x338DC, symBinAddr: 0x100051D80, symSize: 0x24 }
  - { offsetInCU: 0x10ADE, offset: 0x3741E, size: 0x8, addend: 0x0, symName: __ZNSt3__116__next_hash_pow2B8ue170006Em, symObjAddr: 0x34A00, symBinAddr: 0x100052EA4, symSize: 0x6C }
  - { offsetInCU: 0x10B0A, offset: 0x3744A, size: 0x8, addend: 0x0, symName: __ZNSt3__112__libcpp_clzB8ue170006Em, symObjAddr: 0x34E6C, symBinAddr: 0x100053310, symSize: 0x1C }
  - { offsetInCU: 0x10B8F, offset: 0x374CF, size: 0x8, addend: 0x0, symName: __ZNSt3__17launderB8ue170006INS_4pairIKNS_12basic_stringIcNS_11char_traitsIcEENS_9allocatorIcEEEENS_10shared_ptrI9Texture2DEEEEEEPT_SE_, symObjAddr: 0x35584, symBinAddr: 0x100053A28, symSize: 0x24 }
  - { offsetInCU: 0x10BC6, offset: 0x37506, size: 0x8, addend: 0x0, symName: __ZNSt3__19__launderB8ue170006INS_4pairIKNS_12basic_stringIcNS_11char_traitsIcEENS_9allocatorIcEEEENS_10shared_ptrI9Texture2DEEEEEEPT_SE_, symObjAddr: 0x355A8, symBinAddr: 0x100053A4C, symSize: 0x14 }
  - { offsetInCU: 0x11BD1, offset: 0x38511, size: 0x8, addend: 0x0, symName: __ZNSt3__16vectorI4MeshNS_9allocatorIS1_EEE26__swap_out_circular_bufferERNS_14__split_bufferIS1_RS3_EE, symObjAddr: 0xCF78, symBinAddr: 0x100032DAC, symSize: 0x56C }
  - { offsetInCU: 0x11DE0, offset: 0x38720, size: 0x8, addend: 0x0, symName: __ZNSt3__16vectorIjNS_9allocatorIjEEE26__swap_out_circular_bufferERNS_14__split_bufferIjRS2_EE, symObjAddr: 0x19F80, symBinAddr: 0x100038858, symSize: 0x56C }
  - { offsetInCU: 0x11E73, offset: 0x387B3, size: 0x8, addend: 0x0, symName: __ZNSt3__16vectorINS_10shared_ptrI9Texture2DEENS_9allocatorIS3_EEE26__swap_out_circular_bufferERNS_14__split_bufferIS3_RS5_EEPS3_, symObjAddr: 0x21CEC, symBinAddr: 0x100040190, symSize: 0x678 }
  - { offsetInCU: 0x123B1, offset: 0x38CF1, size: 0x8, addend: 0x0, symName: __ZNSt3__16vectorINS_10shared_ptrI9Texture2DEENS_9allocatorIS3_EEE26__swap_out_circular_bufferERNS_14__split_bufferIS3_RS5_EE, symObjAddr: 0x30F00, symBinAddr: 0x10004F3A4, symSize: 0x56C }
  - { offsetInCU: 0x17088, offset: 0x3D9C8, size: 0x8, addend: 0x0, symName: __ZN5Model9LoadModelERKNSt3__112basic_stringIcNS0_11char_traitsIcEENS0_9allocatorIcEEEE, symObjAddr: 0x0, symBinAddr: 0x100026838, symSize: 0x58C }
  - { offsetInCU: 0x17219, offset: 0x3DB59, size: 0x8, addend: 0x0, symName: __ZN11RendererAPI6GetAPIEv, symObjAddr: 0x58C, symBinAddr: 0x100026DC4, symSize: 0x8C }
  - { offsetInCU: 0x178B9, offset: 0x3E1F9, size: 0x8, addend: 0x0, symName: __ZN6Assimp8Importer8ReadFileERKNSt3__112basic_stringIcNS1_11char_traitsIcEENS1_9allocatorIcEEEEj, symObjAddr: 0x618, symBinAddr: 0x100026E50, symSize: 0x44 }
  - { offsetInCU: 0x178FD, offset: 0x3E23D, size: 0x8, addend: 0x0, symName: __ZNSt3__113basic_ostreamIcNS_11char_traitsIcEEElsB8ue170006EPFRS3_S4_E, symObjAddr: 0x6A4, symBinAddr: 0x100026EDC, symSize: 0x2C }
  - { offsetInCU: 0x1792F, offset: 0x3E26F, size: 0x8, addend: 0x0, symName: __ZNKSt3__112basic_stringIcNS_11char_traitsIcEENS_9allocatorIcEEE6substrB8ue170006Emm, symObjAddr: 0x7A4, symBinAddr: 0x100026FDC, symSize: 0x210 }
  - { offsetInCU: 0x17974, offset: 0x3E2B4, size: 0x8, addend: 0x0, symName: __ZNKSt3__112basic_stringIcNS_11char_traitsIcEENS_9allocatorIcEEE12find_last_ofB8ue170006EPKcm, symObjAddr: 0x9B4, symBinAddr: 0x1000271EC, symSize: 0x74 }
  - { offsetInCU: 0x179B8, offset: 0x3E2F8, size: 0x8, addend: 0x0, symName: __ZNSt3__112basic_stringIcNS_11char_traitsIcEENS_9allocatorIcEEEaSB8ue170006EOS5_, symObjAddr: 0xA28, symBinAddr: 0x100027260, symSize: 0x34 }
  - { offsetInCU: 0x179EB, offset: 0x3E32B, size: 0x8, addend: 0x0, symName: __ZN5Model11ProcessNodeEP6aiNodePK7aiScene, symObjAddr: 0xA5C, symBinAddr: 0x100027294, symSize: 0x604 }
  - { offsetInCU: 0x17A79, offset: 0x3E3B9, size: 0x8, addend: 0x0, symName: __ZNSt3__16vectorI4MeshNS_9allocatorIS1_EEE9push_backB8ue170006EOS1_, symObjAddr: 0x1060, symBinAddr: 0x100027898, symSize: 0xE0 }
  - { offsetInCU: 0x17AAE, offset: 0x3E3EE, size: 0x8, addend: 0x0, symName: __ZN5Model16ProcessModelMeshEP6aiMeshPK7aiScene, symObjAddr: 0x1140, symBinAddr: 0x100027978, symSize: 0x31B4 }
  - { offsetInCU: 0x17CBE, offset: 0x3E5FE, size: 0x8, addend: 0x0, symName: __ZN4MeshD1Ev, symObjAddr: 0x42F4, symBinAddr: 0x10002AB2C, symSize: 0x2C }
  - { offsetInCU: 0x17CE9, offset: 0x3E629, size: 0x8, addend: 0x0, symName: __ZNSt3__16vectorIjNS_9allocatorIjEEEC1B8ue170006Ev, symObjAddr: 0x434C, symBinAddr: 0x10002AB58, symSize: 0x2C }
  - { offsetInCU: 0x17D11, offset: 0x3E651, size: 0x8, addend: 0x0, symName: __ZNK6aiMesh10HasNormalsEv, symObjAddr: 0x4378, symBinAddr: 0x10002AB84, symSize: 0xFC }
  - { offsetInCU: 0x17D35, offset: 0x3E675, size: 0x8, addend: 0x0, symName: __ZN6aiFaceC1ERKS_, symObjAddr: 0x4590, symBinAddr: 0x10002AC80, symSize: 0x34 }
  - { offsetInCU: 0x17D6B, offset: 0x3E6AB, size: 0x8, addend: 0x0, symName: __ZNSt3__16vectorIjNS_9allocatorIjEEE9push_backB8ue170006ERKj, symObjAddr: 0x45C4, symBinAddr: 0x10002ACB4, symSize: 0xE0 }
  - { offsetInCU: 0x17DA0, offset: 0x3E6E0, size: 0x8, addend: 0x0, symName: __ZN6aiFaceD1Ev, symObjAddr: 0x46A4, symBinAddr: 0x10002AD94, symSize: 0x2C }
  - { offsetInCU: 0x17DC8, offset: 0x3E708, size: 0x8, addend: 0x0, symName: __ZN5Model17LoadModelTexturesEP10aiMaterial13aiTextureTypeNSt3__112basic_stringIcNS3_11char_traitsIcEENS3_9allocatorIcEEEE, symObjAddr: 0x46FC, symBinAddr: 0x10002ADC0, symSize: 0x994 }
  - { offsetInCU: 0x17E91, offset: 0x3E7D1, size: 0x8, addend: 0x0, symName: __ZNSt3__112basic_stringIcNS_11char_traitsIcEENS_9allocatorIcEEEC1B8ue170006ILi0EEEPKc, symObjAddr: 0x5090, symBinAddr: 0x10002B754, symSize: 0x34 }
  - { offsetInCU: 0x17ECF, offset: 0x3E80F, size: 0x8, addend: 0x0, symName: __ZNSt3__16vectorINS_10shared_ptrI9Texture2DEENS_9allocatorIS3_EEE6insertINS_11__wrap_iterIPS3_EELi0EEESA_NS8_IPKS3_EET_SE_, symObjAddr: 0x50C4, symBinAddr: 0x10002B788, symSize: 0x54C }
  - { offsetInCU: 0x17F40, offset: 0x3E880, size: 0x8, addend: 0x0, symName: __ZNSt3__16vectorINS_10shared_ptrI9Texture2DEENS_9allocatorIS3_EEE3endB8ue170006Ev, symObjAddr: 0x5610, symBinAddr: 0x10002BCD4, symSize: 0x26C }
  - { offsetInCU: 0x17F71, offset: 0x3E8B1, size: 0x8, addend: 0x0, symName: __ZNSt3__111__wrap_iterIPKNS_10shared_ptrI9Texture2DEEEC1B8ue170006IPS3_EERKNS0_IT_EEPNS_9enable_ifIXsr14is_convertibleIS9_S5_EE5valueEvE4typeE, symObjAddr: 0x587C, symBinAddr: 0x10002BF40, symSize: 0x3C }
  - { offsetInCU: 0x17FBB, offset: 0x3E8FB, size: 0x8, addend: 0x0, symName: __ZNSt3__16vectorINS_10shared_ptrI9Texture2DEENS_9allocatorIS3_EEE5beginB8ue170006Ev, symObjAddr: 0x58B8, symBinAddr: 0x10002BF7C, symSize: 0x268 }
  - { offsetInCU: 0x17FE2, offset: 0x3E922, size: 0x8, addend: 0x0, symName: __ZN5Model12LoadMaterialEP10aiMaterialNSt3__110shared_ptrI6ShaderEE, symObjAddr: 0x5B20, symBinAddr: 0x10002C1E4, symSize: 0x29C }
  - { offsetInCU: 0x18058, offset: 0x3E998, size: 0x8, addend: 0x0, symName: __ZN8Material9GetShaderEv, symObjAddr: 0x5DBC, symBinAddr: 0x10002C480, symSize: 0x38 }
  - { offsetInCU: 0x1807C, offset: 0x3E9BC, size: 0x8, addend: 0x0, symName: __ZN8Material8GetPropsEv, symObjAddr: 0x5E20, symBinAddr: 0x10002C4B8, symSize: 0x18 }
  - { offsetInCU: 0x180A0, offset: 0x3E9E0, size: 0x8, addend: 0x0, symName: __ZNSt3__16vectorIjNS_9allocatorIjEEE4dataB8ue170006Ev, symObjAddr: 0x5EE8, symBinAddr: 0x10002C4D0, symSize: 0x64 }
  - { offsetInCU: 0x180C4, offset: 0x3EA04, size: 0x8, addend: 0x0, symName: __ZNKSt3__16vectorIjNS_9allocatorIjEEE4sizeB8ue170006Ev, symObjAddr: 0x5F4C, symBinAddr: 0x10002C534, symSize: 0xB0 }
  - { offsetInCU: 0x180E8, offset: 0x3EA28, size: 0x8, addend: 0x0, symName: __ZNSt3__110shared_ptrI11VertexArrayED1B8ue170006Ev, symObjAddr: 0x5FFC, symBinAddr: 0x10002C5E4, symSize: 0x2C }
  - { offsetInCU: 0x18110, offset: 0x3EA50, size: 0x8, addend: 0x0, symName: __ZNSt3__16vectorINS_10shared_ptrI9Texture2DEENS_9allocatorIS3_EEED1B8ue170006Ev, symObjAddr: 0x6028, symBinAddr: 0x10002C610, symSize: 0x2C }
  - { offsetInCU: 0x18138, offset: 0x3EA78, size: 0x8, addend: 0x0, symName: __ZNSt3__16vectorIjNS_9allocatorIjEEED1B8ue170006Ev, symObjAddr: 0x6054, symBinAddr: 0x10002C63C, symSize: 0x2C }
  - { offsetInCU: 0x18160, offset: 0x3EAA0, size: 0x8, addend: 0x0, symName: __ZNK10aiMaterial15GetTextureCountE13aiTextureType, symObjAddr: 0x60AC, symBinAddr: 0x10002C668, symSize: 0x2C }
  - { offsetInCU: 0x18194, offset: 0x3EAD4, size: 0x8, addend: 0x0, symName: __ZN8aiStringC1Ev, symObjAddr: 0x60D8, symBinAddr: 0x10002C694, symSize: 0x2C }
  - { offsetInCU: 0x181BC, offset: 0x3EAFC, size: 0x8, addend: 0x0, symName: __ZNK10aiMaterial10GetTextureE13aiTextureTypejP8aiStringP16aiTextureMappingPjPfP11aiTextureOpP16aiTextureMapMode, symObjAddr: 0x6104, symBinAddr: 0x10002C6C0, symSize: 0x74 }
  - { offsetInCU: 0x18252, offset: 0x3EB92, size: 0x8, addend: 0x0, symName: __ZNK8aiString5C_StrEv, symObjAddr: 0x6178, symBinAddr: 0x10002C734, symSize: 0x18 }
  - { offsetInCU: 0x18276, offset: 0x3EBB6, size: 0x8, addend: 0x0, symName: __ZNKSt3__113unordered_mapINS_12basic_stringIcNS_11char_traitsIcEENS_9allocatorIcEEEENS_10shared_ptrI9Texture2DEENS_4hashIS6_EENS_8equal_toIS6_EENS4_INS_4pairIKS6_S9_EEEEE5countB8ue170006ERSF_, symObjAddr: 0x6190, symBinAddr: 0x10002C74C, symSize: 0x2C }
  - { offsetInCU: 0x182A9, offset: 0x3EBE9, size: 0x8, addend: 0x0, symName: __ZNSt3__110shared_ptrI9Texture2DEC1B8ue170006Ev, symObjAddr: 0x61BC, symBinAddr: 0x10002C778, symSize: 0x2C }
  - { offsetInCU: 0x182D1, offset: 0x3EC11, size: 0x8, addend: 0x0, symName: __ZNKSt3__112basic_stringIcNS_11char_traitsIcEENS_9allocatorIcEEE5c_strB8ue170006Ev, symObjAddr: 0x61E8, symBinAddr: 0x10002C7A4, symSize: 0x24 }
  - { offsetInCU: 0x182F5, offset: 0x3EC35, size: 0x8, addend: 0x0, symName: __ZNSt3__110shared_ptrI9Texture2DEaSB8ue170006EOS2_, symObjAddr: 0x620C, symBinAddr: 0x10002C7C8, symSize: 0x1F4 }
  - { offsetInCU: 0x1832A, offset: 0x3EC6A, size: 0x8, addend: 0x0, symName: __ZNSt3__110shared_ptrI9Texture2DED1B8ue170006Ev, symObjAddr: 0x6400, symBinAddr: 0x10002C9BC, symSize: 0x2C }
  - { offsetInCU: 0x18352, offset: 0x3EC92, size: 0x8, addend: 0x0, symName: __ZNSt3__16vectorINS_10shared_ptrI9Texture2DEENS_9allocatorIS3_EEE9push_backB8ue170006ERKS3_, symObjAddr: 0x642C, symBinAddr: 0x10002C9E8, symSize: 0xE0 }
  - { offsetInCU: 0x18387, offset: 0x3ECC7, size: 0x8, addend: 0x0, symName: __ZNSt3__113unordered_mapINS_12basic_stringIcNS_11char_traitsIcEENS_9allocatorIcEEEENS_10shared_ptrI9Texture2DEENS_4hashIS6_EENS_8equal_toIS6_EENS4_INS_4pairIKS6_S9_EEEEEixEOS6_, symObjAddr: 0x650C, symBinAddr: 0x10002CAC8, symSize: 0x314 }
  - { offsetInCU: 0x183BE, offset: 0x3ECFE, size: 0x8, addend: 0x0, symName: __ZNSt3__110shared_ptrI9Texture2DEaSB8ue170006ERKS2_, symObjAddr: 0x6820, symBinAddr: 0x10002CDDC, symSize: 0x1F4 }
  - { offsetInCU: 0x183F3, offset: 0x3ED33, size: 0x8, addend: 0x0, symName: __ZN9aiColor3DC1Ev, symObjAddr: 0x6A14, symBinAddr: 0x10002CFD0, symSize: 0x2C }
  - { offsetInCU: 0x1841B, offset: 0x3ED5B, size: 0x8, addend: 0x0, symName: __ZN4MeshD2Ev, symObjAddr: 0x6A40, symBinAddr: 0x10002CFFC, symSize: 0x38 }
  - { offsetInCU: 0x18446, offset: 0x3ED86, size: 0x8, addend: 0x0, symName: __ZN11SceneObjectD2Ev, symObjAddr: 0x6A78, symBinAddr: 0x10002D034, symSize: 0x14 }
  - { offsetInCU: 0x1846F, offset: 0x3EDAF, size: 0x8, addend: 0x0, symName: __ZN6aiFaceC2ERKS_, symObjAddr: 0x6B98, symBinAddr: 0x10002D048, symSize: 0xD4 }
  - { offsetInCU: 0x184A5, offset: 0x3EDE5, size: 0x8, addend: 0x0, symName: __ZN6aiFaceaSERKS_, symObjAddr: 0x6C6C, symBinAddr: 0x10002D11C, symSize: 0x3F8 }
  - { offsetInCU: 0x184D7, offset: 0x3EE17, size: 0x8, addend: 0x0, symName: __ZN6aiFaceD2Ev, symObjAddr: 0x7064, symBinAddr: 0x10002D514, symSize: 0x90 }
  - { offsetInCU: 0x184FF, offset: 0x3EE3F, size: 0x8, addend: 0x0, symName: __ZNSt3__111__wrap_iterIPKNS_10shared_ptrI9Texture2DEEEC2B8ue170006IPS3_EERKNS0_IT_EEPNS_9enable_ifIXsr14is_convertibleIS9_S5_EE5valueEvE4typeE, symObjAddr: 0x70F4, symBinAddr: 0x10002D5A4, symSize: 0x84 }
  - { offsetInCU: 0x18549, offset: 0x3EE89, size: 0x8, addend: 0x0, symName: __ZNKSt3__111__wrap_iterIPNS_10shared_ptrI9Texture2DEEE4baseB8ue170006Ev, symObjAddr: 0x7178, symBinAddr: 0x10002D628, symSize: 0x60 }
  - { offsetInCU: 0x1856D, offset: 0x3EEAD, size: 0x8, addend: 0x0, symName: __ZN8aiStringC2Ev, symObjAddr: 0x74A4, symBinAddr: 0x10002D688, symSize: 0xFC }
  - { offsetInCU: 0x18595, offset: 0x3EED5, size: 0x8, addend: 0x0, symName: __ZNSt3__110shared_ptrI9Texture2DEC2B8ue170006Ev, symObjAddr: 0x75A0, symBinAddr: 0x10002D784, symSize: 0x9C }
  - { offsetInCU: 0x185BD, offset: 0x3EEFD, size: 0x8, addend: 0x0, symName: __ZN9aiColor3DC2Ev, symObjAddr: 0x763C, symBinAddr: 0x10002D820, symSize: 0x158 }
  - { offsetInCU: 0x185E5, offset: 0x3EF25, size: 0x8, addend: 0x0, symName: __ZNKSt3__112basic_stringIcNS_11char_traitsIcEENS_9allocatorIcEEE4dataB8ue170006Ev, symObjAddr: 0x7794, symBinAddr: 0x10002D978, symSize: 0x28 }
  - { offsetInCU: 0x18609, offset: 0x3EF49, size: 0x8, addend: 0x0, symName: __ZNKSt3__112basic_stringIcNS_11char_traitsIcEENS_9allocatorIcEEE13__get_pointerB8ue170006Ev, symObjAddr: 0x77D0, symBinAddr: 0x10002D9B4, symSize: 0x54 }
  - { offsetInCU: 0x1862D, offset: 0x3EF6D, size: 0x8, addend: 0x0, symName: __ZNKSt3__112basic_stringIcNS_11char_traitsIcEENS_9allocatorIcEEE9__is_longB8ue170006Ev, symObjAddr: 0x7824, symBinAddr: 0x10002DA08, symSize: 0xA4 }
  - { offsetInCU: 0x18651, offset: 0x3EF91, size: 0x8, addend: 0x0, symName: __ZNKSt3__112basic_stringIcNS_11char_traitsIcEENS_9allocatorIcEEE18__get_long_pointerB8ue170006Ev, symObjAddr: 0x78C8, symBinAddr: 0x10002DAAC, symSize: 0x6C }
  - { offsetInCU: 0x18675, offset: 0x3EFB5, size: 0x8, addend: 0x0, symName: __ZNKSt3__112basic_stringIcNS_11char_traitsIcEENS_9allocatorIcEEE19__get_short_pointerB8ue170006Ev, symObjAddr: 0x7934, symBinAddr: 0x10002DB18, symSize: 0x28 }
  - { offsetInCU: 0x18699, offset: 0x3EFD9, size: 0x8, addend: 0x0, symName: __ZNKSt3__117__compressed_pairINS_12basic_stringIcNS_11char_traitsIcEENS_9allocatorIcEEE5__repES5_E5firstB8ue170006Ev, symObjAddr: 0x795C, symBinAddr: 0x10002DB40, symSize: 0x24 }
  - { offsetInCU: 0x186BD, offset: 0x3EFFD, size: 0x8, addend: 0x0, symName: __ZNKSt3__122__compressed_pair_elemINS_12basic_stringIcNS_11char_traitsIcEENS_9allocatorIcEEE5__repELi0ELb0EE5__getB8ue170006Ev, symObjAddr: 0x7980, symBinAddr: 0x10002DB64, symSize: 0x14 }
  - { offsetInCU: 0x186E1, offset: 0x3F021, size: 0x8, addend: 0x0, symName: __ZNSt3__114pointer_traitsIPKcE10pointer_toB8ue170006ERS1_, symObjAddr: 0x7994, symBinAddr: 0x10002DB78, symSize: 0x14 }
  - { offsetInCU: 0x18704, offset: 0x3F044, size: 0x8, addend: 0x0, symName: __ZNSt3__16vectorINS_10shared_ptrI9Texture2DEENS_9allocatorIS3_EEED2B8ue170006Ev, symObjAddr: 0x7C24, symBinAddr: 0x10002DB8C, symSize: 0x1F8 }
  - { offsetInCU: 0x1872D, offset: 0x3F06D, size: 0x8, addend: 0x0, symName: __ZNSt3__16vectorINS_10shared_ptrI9Texture2DEENS_9allocatorIS3_EEE16__destroy_vectorC1B8ue170006ERS6_, symObjAddr: 0x7E1C, symBinAddr: 0x10002DD84, symSize: 0x34 }
  - { offsetInCU: 0x18764, offset: 0x3F0A4, size: 0x8, addend: 0x0, symName: __ZNSt3__16vectorINS_10shared_ptrI9Texture2DEENS_9allocatorIS3_EEE16__destroy_vectorclB8ue170006Ev, symObjAddr: 0x7E5C, symBinAddr: 0x10002DDB8, symSize: 0x228 }
  - { offsetInCU: 0x18788, offset: 0x3F0C8, size: 0x8, addend: 0x0, symName: __ZNSt3__16vectorINS_10shared_ptrI9Texture2DEENS_9allocatorIS3_EEE16__destroy_vectorC2B8ue170006ERS6_, symObjAddr: 0x8084, symBinAddr: 0x10002DFE0, symSize: 0x70 }
  - { offsetInCU: 0x187BF, offset: 0x3F0FF, size: 0x8, addend: 0x0, symName: __ZNSt3__16vectorINS_10shared_ptrI9Texture2DEENS_9allocatorIS3_EEE7__clearB8ue170006Ev, symObjAddr: 0x80F4, symBinAddr: 0x10002E050, symSize: 0x64 }
  - { offsetInCU: 0x187E3, offset: 0x3F123, size: 0x8, addend: 0x0, symName: __ZNKSt3__16vectorINS_10shared_ptrI9Texture2DEENS_9allocatorIS3_EEE17__annotate_deleteB8ue170006Ev, symObjAddr: 0x8158, symBinAddr: 0x10002E0B4, symSize: 0xCC }
  - { offsetInCU: 0x18807, offset: 0x3F147, size: 0x8, addend: 0x0, symName: __ZNSt3__116allocator_traitsINS_9allocatorINS_10shared_ptrI9Texture2DEEEEE10deallocateB8ue170006ERS5_PS4_m, symObjAddr: 0x8224, symBinAddr: 0x10002E180, symSize: 0x34 }
  - { offsetInCU: 0x18849, offset: 0x3F189, size: 0x8, addend: 0x0, symName: __ZNSt3__16vectorINS_10shared_ptrI9Texture2DEENS_9allocatorIS3_EEE7__allocB8ue170006Ev, symObjAddr: 0x8258, symBinAddr: 0x10002E1B4, symSize: 0x28 }
  - { offsetInCU: 0x1886D, offset: 0x3F1AD, size: 0x8, addend: 0x0, symName: __ZNKSt3__16vectorINS_10shared_ptrI9Texture2DEENS_9allocatorIS3_EEE8capacityB8ue170006Ev, symObjAddr: 0x8280, symBinAddr: 0x10002E1DC, symSize: 0xBC }
  - { offsetInCU: 0x18891, offset: 0x3F1D1, size: 0x8, addend: 0x0, symName: __ZNSt3__16vectorINS_10shared_ptrI9Texture2DEENS_9allocatorIS3_EEE22__base_destruct_at_endB8ue170006EPS3_, symObjAddr: 0x833C, symBinAddr: 0x10002E298, symSize: 0x114 }
  - { offsetInCU: 0x188D4, offset: 0x3F214, size: 0x8, addend: 0x0, symName: __ZNSt3__116allocator_traitsINS_9allocatorINS_10shared_ptrI9Texture2DEEEEE7destroyB8ue170006IS4_vEEvRS5_PT_, symObjAddr: 0x8450, symBinAddr: 0x10002E3AC, symSize: 0x2C }
  - { offsetInCU: 0x18911, offset: 0x3F251, size: 0x8, addend: 0x0, symName: __ZNSt3__19allocatorINS_10shared_ptrI9Texture2DEEE7destroyB8ue170006EPS3_, symObjAddr: 0x8490, symBinAddr: 0x10002E3EC, symSize: 0x28 }
  - { offsetInCU: 0x18943, offset: 0x3F283, size: 0x8, addend: 0x0, symName: __ZNKSt3__16vectorINS_10shared_ptrI9Texture2DEENS_9allocatorIS3_EEE31__annotate_contiguous_containerEPKvS8_S8_S8_, symObjAddr: 0x84B8, symBinAddr: 0x10002E414, symSize: 0x58 }
  - { offsetInCU: 0x189A3, offset: 0x3F2E3, size: 0x8, addend: 0x0, symName: __ZNKSt3__16vectorINS_10shared_ptrI9Texture2DEENS_9allocatorIS3_EEE4dataB8ue170006Ev, symObjAddr: 0x8510, symBinAddr: 0x10002E46C, symSize: 0x64 }
  - { offsetInCU: 0x189C7, offset: 0x3F307, size: 0x8, addend: 0x0, symName: __ZNKSt3__16vectorINS_10shared_ptrI9Texture2DEENS_9allocatorIS3_EEE4sizeB8ue170006Ev, symObjAddr: 0x8574, symBinAddr: 0x10002E4D0, symSize: 0xB0 }
  - { offsetInCU: 0x189EB, offset: 0x3F32B, size: 0x8, addend: 0x0, symName: __ZNSt3__19allocatorINS_10shared_ptrI9Texture2DEEE10deallocateB8ue170006EPS3_m, symObjAddr: 0x8624, symBinAddr: 0x10002E580, symSize: 0x4C }
  - { offsetInCU: 0x18A2B, offset: 0x3F36B, size: 0x8, addend: 0x0, symName: __ZNSt3__117__compressed_pairIPNS_10shared_ptrI9Texture2DEENS_9allocatorIS3_EEE6secondB8ue170006Ev, symObjAddr: 0x8798, symBinAddr: 0x10002E5CC, symSize: 0x24 }
  - { offsetInCU: 0x18A4F, offset: 0x3F38F, size: 0x8, addend: 0x0, symName: __ZNSt3__122__compressed_pair_elemINS_9allocatorINS_10shared_ptrI9Texture2DEEEELi1ELb1EE5__getB8ue170006Ev, symObjAddr: 0x87BC, symBinAddr: 0x10002E5F0, symSize: 0x14 }
  - { offsetInCU: 0x18A73, offset: 0x3F3B3, size: 0x8, addend: 0x0, symName: __ZNKSt3__16vectorINS_10shared_ptrI9Texture2DEENS_9allocatorIS3_EEE9__end_capB8ue170006Ev, symObjAddr: 0x87D0, symBinAddr: 0x10002E604, symSize: 0x28 }
  - { offsetInCU: 0x18A97, offset: 0x3F3D7, size: 0x8, addend: 0x0, symName: __ZNKSt3__117__compressed_pairIPNS_10shared_ptrI9Texture2DEENS_9allocatorIS3_EEE5firstB8ue170006Ev, symObjAddr: 0x87F8, symBinAddr: 0x10002E62C, symSize: 0x24 }
  - { offsetInCU: 0x18ABB, offset: 0x3F3FB, size: 0x8, addend: 0x0, symName: __ZNKSt3__122__compressed_pair_elemIPNS_10shared_ptrI9Texture2DEELi0ELb0EE5__getB8ue170006Ev, symObjAddr: 0x881C, symBinAddr: 0x10002E650, symSize: 0x14 }
  - { offsetInCU: 0x18ADF, offset: 0x3F41F, size: 0x8, addend: 0x0, symName: __ZNSt3__112basic_stringIcNS_11char_traitsIcEENS_9allocatorIcEEEC2B8ue170006ILi0EEEPKc, symObjAddr: 0x8830, symBinAddr: 0x10002E664, symSize: 0x210 }
  - { offsetInCU: 0x18B24, offset: 0x3F464, size: 0x8, addend: 0x0, symName: __ZNSt3__117__compressed_pairINS_12basic_stringIcNS_11char_traitsIcEENS_9allocatorIcEEE5__repES5_EC1B8ue170006INS_18__default_init_tagESA_EEOT_OT0_, symObjAddr: 0x8A40, symBinAddr: 0x10002E874, symSize: 0x3C }
  - { offsetInCU: 0x18B7A, offset: 0x3F4BA, size: 0x8, addend: 0x0, symName: __ZNSt3__111char_traitsIcE6lengthB8ue170006EPKc, symObjAddr: 0x8A7C, symBinAddr: 0x10002E8B0, symSize: 0x40 }
  - { offsetInCU: 0x18B9D, offset: 0x3F4DD, size: 0x8, addend: 0x0, symName: __ZNSt3__117__compressed_pairINS_12basic_stringIcNS_11char_traitsIcEENS_9allocatorIcEEE5__repES5_EC2B8ue170006INS_18__default_init_tagESA_EEOT_OT0_, symObjAddr: 0x8ABC, symBinAddr: 0x10002E8F0, symSize: 0x3C }
  - { offsetInCU: 0x18BF3, offset: 0x3F533, size: 0x8, addend: 0x0, symName: __ZNSt3__122__compressed_pair_elemINS_12basic_stringIcNS_11char_traitsIcEENS_9allocatorIcEEE5__repELi0ELb0EEC2B8ue170006ENS_18__default_init_tagE, symObjAddr: 0x8AF8, symBinAddr: 0x10002E92C, symSize: 0x14 }
  - { offsetInCU: 0x18C27, offset: 0x3F567, size: 0x8, addend: 0x0, symName: __ZNSt3__122__compressed_pair_elemINS_9allocatorIcEELi1ELb1EEC2B8ue170006ENS_18__default_init_tagE, symObjAddr: 0x8B0C, symBinAddr: 0x10002E940, symSize: 0x2C }
  - { offsetInCU: 0x18C5A, offset: 0x3F59A, size: 0x8, addend: 0x0, symName: __ZNSt3__19allocatorIcEC2B8ue170006Ev, symObjAddr: 0x8B38, symBinAddr: 0x10002E96C, symSize: 0x2C }
  - { offsetInCU: 0x18C82, offset: 0x3F5C2, size: 0x8, addend: 0x0, symName: __ZNSt3__116__non_trivial_ifILb1ENS_9allocatorIcEEEC2B8ue170006Ev, symObjAddr: 0x8B64, symBinAddr: 0x10002E998, symSize: 0x14 }
  - { offsetInCU: 0x18CAB, offset: 0x3F5EB, size: 0x8, addend: 0x0, symName: __ZNSt3__19allocatorIcEC1B8ue170006Ev, symObjAddr: 0x8B9C, symBinAddr: 0x10002E9D0, symSize: 0x2C }
  - { offsetInCU: 0x18CD3, offset: 0x3F613, size: 0x8, addend: 0x0, symName: __ZNSt3__112basic_stringIcNS_11char_traitsIcEENS_9allocatorIcEEE13__move_assignB8ue170006ERS5_NS_17integral_constantIbLb1EEE, symObjAddr: 0x8BC8, symBinAddr: 0x10002E9FC, symSize: 0x2D0 }
  - { offsetInCU: 0x18D17, offset: 0x3F657, size: 0x8, addend: 0x0, symName: __ZNSt3__116allocator_traitsINS_9allocatorIcEEE10deallocateB8ue170006ERS2_Pcm, symObjAddr: 0x8E98, symBinAddr: 0x10002ECCC, symSize: 0x34 }
  - { offsetInCU: 0x18D59, offset: 0x3F699, size: 0x8, addend: 0x0, symName: __ZNSt3__112basic_stringIcNS_11char_traitsIcEENS_9allocatorIcEEE7__allocB8ue170006Ev, symObjAddr: 0x8ECC, symBinAddr: 0x10002ED00, symSize: 0x24 }
  - { offsetInCU: 0x18D7D, offset: 0x3F6BD, size: 0x8, addend: 0x0, symName: __ZNSt3__112basic_stringIcNS_11char_traitsIcEENS_9allocatorIcEEE18__get_long_pointerB8ue170006Ev, symObjAddr: 0x8EF0, symBinAddr: 0x10002ED24, symSize: 0x6C }
  - { offsetInCU: 0x18DA1, offset: 0x3F6E1, size: 0x8, addend: 0x0, symName: __ZNKSt3__112basic_stringIcNS_11char_traitsIcEENS_9allocatorIcEEE14__get_long_capB8ue170006Ev, symObjAddr: 0x8F5C, symBinAddr: 0x10002ED90, symSize: 0x78 }
  - { offsetInCU: 0x18DC5, offset: 0x3F705, size: 0x8, addend: 0x0, symName: __ZNSt3__112basic_stringIcNS_11char_traitsIcEENS_9allocatorIcEEE19__move_assign_allocB8ue170006ERS5_, symObjAddr: 0x8FD4, symBinAddr: 0x10002EE08, symSize: 0x2C }
  - { offsetInCU: 0x18DF8, offset: 0x3F738, size: 0x8, addend: 0x0, symName: __ZNSt3__117__compressed_pairINS_12basic_stringIcNS_11char_traitsIcEENS_9allocatorIcEEE5__repES5_E5firstB8ue170006Ev, symObjAddr: 0x9000, symBinAddr: 0x10002EE34, symSize: 0x24 }
  - { offsetInCU: 0x18E1C, offset: 0x3F75C, size: 0x8, addend: 0x0, symName: __ZNSt3__112basic_stringIcNS_11char_traitsIcEENS_9allocatorIcEEE16__set_short_sizeB8ue170006Em, symObjAddr: 0x9024, symBinAddr: 0x10002EE58, symSize: 0x130 }
  - { offsetInCU: 0x18E4F, offset: 0x3F78F, size: 0x8, addend: 0x0, symName: __ZNSt3__111char_traitsIcE6assignB8ue170006ERcRKc, symObjAddr: 0x9154, symBinAddr: 0x10002EF88, symSize: 0xF4 }
  - { offsetInCU: 0x18E80, offset: 0x3F7C0, size: 0x8, addend: 0x0, symName: __ZNSt3__112basic_stringIcNS_11char_traitsIcEENS_9allocatorIcEEE19__get_short_pointerB8ue170006Ev, symObjAddr: 0x9248, symBinAddr: 0x10002F07C, symSize: 0x28 }
  - { offsetInCU: 0x18EA4, offset: 0x3F7E4, size: 0x8, addend: 0x0, symName: __ZNSt3__19allocatorIcE10deallocateB8ue170006EPcm, symObjAddr: 0x9270, symBinAddr: 0x10002F0A4, symSize: 0x4C }
  - { offsetInCU: 0x18EE4, offset: 0x3F824, size: 0x8, addend: 0x0, symName: __ZNSt3__117__compressed_pairINS_12basic_stringIcNS_11char_traitsIcEENS_9allocatorIcEEE5__repES5_E6secondB8ue170006Ev, symObjAddr: 0x92BC, symBinAddr: 0x10002F0F0, symSize: 0x24 }
  - { offsetInCU: 0x18F08, offset: 0x3F848, size: 0x8, addend: 0x0, symName: __ZNSt3__122__compressed_pair_elemINS_9allocatorIcEELi1ELb1EE5__getB8ue170006Ev, symObjAddr: 0x92E0, symBinAddr: 0x10002F114, symSize: 0x14 }
  - { offsetInCU: 0x18F2C, offset: 0x3F86C, size: 0x8, addend: 0x0, symName: __ZNSt3__112basic_stringIcNS_11char_traitsIcEENS_9allocatorIcEEE19__move_assign_allocB8ue170006ERS5_NS_17integral_constantIbLb1EEE, symObjAddr: 0x92F4, symBinAddr: 0x10002F128, symSize: 0x38 }
  - { offsetInCU: 0x18F6B, offset: 0x3F8AB, size: 0x8, addend: 0x0, symName: __ZNSt3__122__compressed_pair_elemINS_12basic_stringIcNS_11char_traitsIcEENS_9allocatorIcEEE5__repELi0ELb0EE5__getB8ue170006Ev, symObjAddr: 0x932C, symBinAddr: 0x10002F160, symSize: 0x14 }
  - { offsetInCU: 0x18F8F, offset: 0x3F8CF, size: 0x8, addend: 0x0, symName: __ZNSt3__114pointer_traitsIPcE10pointer_toB8ue170006ERc, symObjAddr: 0x9340, symBinAddr: 0x10002F174, symSize: 0x14 }
  - { offsetInCU: 0x18FD0, offset: 0x3F910, size: 0x8, addend: 0x0, symName: __ZNKSt3__113basic_ostreamIcNS_11char_traitsIcEEE6sentrycvbB8ue170006Ev, symObjAddr: 0x9A98, symBinAddr: 0x10002F8CC, symSize: 0x88 }
  - { offsetInCU: 0x18FF4, offset: 0x3F934, size: 0x8, addend: 0x0, symName: __ZNSt3__119ostreambuf_iteratorIcNS_11char_traitsIcEEEC1B8ue170006ERNS_13basic_ostreamIcS2_EE, symObjAddr: 0xA280, symBinAddr: 0x1000300B4, symSize: 0x34 }
  - { offsetInCU: 0x1902A, offset: 0x3F96A, size: 0x8, addend: 0x0, symName: __ZNKSt3__18ios_base5flagsB8ue170006Ev, symObjAddr: 0xA2B4, symBinAddr: 0x1000300E8, symSize: 0x8C }
  - { offsetInCU: 0x19050, offset: 0x3F990, size: 0x8, addend: 0x0, symName: __ZNKSt3__19basic_iosIcNS_11char_traitsIcEEE4fillB8ue170006Ev, symObjAddr: 0xA340, symBinAddr: 0x100030174, symSize: 0x198 }
  - { offsetInCU: 0x19076, offset: 0x3F9B6, size: 0x8, addend: 0x0, symName: __ZNKSt3__119ostreambuf_iteratorIcNS_11char_traitsIcEEE6failedB8ue170006Ev, symObjAddr: 0xA4D8, symBinAddr: 0x10003030C, symSize: 0x6C }
  - { offsetInCU: 0x1909A, offset: 0x3F9DA, size: 0x8, addend: 0x0, symName: __ZNSt3__19basic_iosIcNS_11char_traitsIcEEE8setstateB8ue170006Ej, symObjAddr: 0xA544, symBinAddr: 0x100030378, symSize: 0x2C }
  - { offsetInCU: 0x190CD, offset: 0x3FA0D, size: 0x8, addend: 0x0, symName: __ZNKSt3__18ios_base5widthB8ue170006Ev, symObjAddr: 0xA570, symBinAddr: 0x1000303A4, symSize: 0x64 }
  - { offsetInCU: 0x190F3, offset: 0x3FA33, size: 0x8, addend: 0x0, symName: __ZNSt3__115basic_streambufIcNS_11char_traitsIcEEE5sputnB8ue170006EPKcl, symObjAddr: 0xA5D4, symBinAddr: 0x100030408, symSize: 0xC8 }
  - { offsetInCU: 0x19133, offset: 0x3FA73, size: 0x8, addend: 0x0, symName: __ZNSt3__112basic_stringIcNS_11char_traitsIcEENS_9allocatorIcEEEC1B8ue170006Emc, symObjAddr: 0xA69C, symBinAddr: 0x1000304D0, symSize: 0x3C }
  - { offsetInCU: 0x19179, offset: 0x3FAB9, size: 0x8, addend: 0x0, symName: __ZNSt3__112basic_stringIcNS_11char_traitsIcEENS_9allocatorIcEEE4dataB8ue170006Ev, symObjAddr: 0xA6D8, symBinAddr: 0x10003050C, symSize: 0x28 }
  - { offsetInCU: 0x1919D, offset: 0x3FADD, size: 0x8, addend: 0x0, symName: __ZNSt3__18ios_base5widthB8ue170006El, symObjAddr: 0xA700, symBinAddr: 0x100030534, symSize: 0xB8 }
  - { offsetInCU: 0x191E2, offset: 0x3FB22, size: 0x8, addend: 0x0, symName: __ZNSt3__112basic_stringIcNS_11char_traitsIcEENS_9allocatorIcEEEC2B8ue170006Emc, symObjAddr: 0xA7B8, symBinAddr: 0x1000305EC, symSize: 0x204 }
  - { offsetInCU: 0x1922B, offset: 0x3FB6B, size: 0x8, addend: 0x0, symName: __ZNSt3__112basic_stringIcNS_11char_traitsIcEENS_9allocatorIcEEE13__get_pointerB8ue170006Ev, symObjAddr: 0xA9D0, symBinAddr: 0x100030804, symSize: 0x54 }
  - { offsetInCU: 0x1924F, offset: 0x3FB8F, size: 0x8, addend: 0x0, symName: __ZNSt3__119ostreambuf_iteratorIcNS_11char_traitsIcEEEC2B8ue170006ERNS_13basic_ostreamIcS2_EE, symObjAddr: 0xAA24, symBinAddr: 0x100030858, symSize: 0x10C }
  - { offsetInCU: 0x19285, offset: 0x3FBC5, size: 0x8, addend: 0x0, symName: __ZNKSt3__19basic_iosIcNS_11char_traitsIcEEE5rdbufB8ue170006Ev, symObjAddr: 0xAB30, symBinAddr: 0x100030964, symSize: 0x24 }
  - { offsetInCU: 0x192AB, offset: 0x3FBEB, size: 0x8, addend: 0x0, symName: __ZNKSt3__18ios_base5rdbufB8ue170006Ev, symObjAddr: 0xAB54, symBinAddr: 0x100030988, symSize: 0x64 }
  - { offsetInCU: 0x192CF, offset: 0x3FC0F, size: 0x8, addend: 0x0, symName: __ZNSt3__111char_traitsIcE11eq_int_typeB8ue170006Eii, symObjAddr: 0xABB8, symBinAddr: 0x1000309EC, symSize: 0x28 }
  - { offsetInCU: 0x19302, offset: 0x3FC42, size: 0x8, addend: 0x0, symName: __ZNSt3__111char_traitsIcE3eofB8ue170006Ev, symObjAddr: 0xABE0, symBinAddr: 0x100030A14, symSize: 0x8 }
  - { offsetInCU: 0x19316, offset: 0x3FC56, size: 0x8, addend: 0x0, symName: __ZNKSt3__19basic_iosIcNS_11char_traitsIcEEE5widenB8ue170006Ec, symObjAddr: 0xABE8, symBinAddr: 0x100030A1C, symSize: 0x2A4 }
  - { offsetInCU: 0x1937F, offset: 0x3FCBF, size: 0x8, addend: 0x0, symName: __ZNKSt3__15ctypeIcE5widenB8ue170006Ec, symObjAddr: 0xAEB8, symBinAddr: 0x100030CEC, symSize: 0xBC }
  - { offsetInCU: 0x193B2, offset: 0x3FCF2, size: 0x8, addend: 0x0, symName: __ZNSt3__18ios_base8setstateB8ue170006Ej, symObjAddr: 0xAF74, symBinAddr: 0x100030DA8, symSize: 0x9C }
  - { offsetInCU: 0x193E7, offset: 0x3FD27, size: 0x8, addend: 0x0, symName: __ZNKSt3__112basic_stringIcNS_11char_traitsIcEENS_9allocatorIcEEE4sizeB8ue170006Ev, symObjAddr: 0xB150, symBinAddr: 0x100030F84, symSize: 0x54 }
  - { offsetInCU: 0x1940B, offset: 0x3FD4B, size: 0x8, addend: 0x0, symName: __ZNSt3__111char_traitsIcE4findB8ue170006EPKcmRS2_, symObjAddr: 0xB1A4, symBinAddr: 0x100030FD8, symSize: 0xEC }
  - { offsetInCU: 0x1944A, offset: 0x3FD8A, size: 0x8, addend: 0x0, symName: __ZNKSt3__112basic_stringIcNS_11char_traitsIcEENS_9allocatorIcEEE15__get_long_sizeB8ue170006Ev, symObjAddr: 0xB554, symBinAddr: 0x100031388, symSize: 0x70 }
  - { offsetInCU: 0x1946E, offset: 0x3FDAE, size: 0x8, addend: 0x0, symName: __ZNKSt3__112basic_stringIcNS_11char_traitsIcEENS_9allocatorIcEEE16__get_short_sizeB8ue170006Ev, symObjAddr: 0xB5C4, symBinAddr: 0x1000313F8, symSize: 0xA0 }
  - { offsetInCU: 0x19492, offset: 0x3FDD2, size: 0x8, addend: 0x0, symName: __ZNSt3__110shared_ptrI11VertexArrayED2B8ue170006Ev, symObjAddr: 0xB664, symBinAddr: 0x100031498, symSize: 0xC8 }
  - { offsetInCU: 0x194BA, offset: 0x3FDFA, size: 0x8, addend: 0x0, symName: __ZNSt3__16vectorI4MeshNS_9allocatorIS1_EEE9__end_capB8ue170006Ev, symObjAddr: 0xB72C, symBinAddr: 0x100031560, symSize: 0x28 }
  - { offsetInCU: 0x194E3, offset: 0x3FE23, size: 0x8, addend: 0x0, symName: __ZNSt3__16vectorI4MeshNS_9allocatorIS1_EEE22__construct_one_at_endB8ue170006IJS1_EEEvDpOT_, symObjAddr: 0xB754, symBinAddr: 0x100031588, symSize: 0x36C }
  - { offsetInCU: 0x19537, offset: 0x3FE77, size: 0x8, addend: 0x0, symName: __ZNSt3__16vectorI4MeshNS_9allocatorIS1_EEE21__push_back_slow_pathIS1_EEvOT_, symObjAddr: 0xBAC0, symBinAddr: 0x1000318F4, symSize: 0x3C0 }
  - { offsetInCU: 0x1959C, offset: 0x3FEDC, size: 0x8, addend: 0x0, symName: __ZNSt3__117__compressed_pairIP4MeshNS_9allocatorIS1_EEE5firstB8ue170006Ev, symObjAddr: 0xBE80, symBinAddr: 0x100031CB4, symSize: 0x24 }
  - { offsetInCU: 0x195C0, offset: 0x3FF00, size: 0x8, addend: 0x0, symName: __ZNSt3__122__compressed_pair_elemIP4MeshLi0ELb0EE5__getB8ue170006Ev, symObjAddr: 0xBEA4, symBinAddr: 0x100031CD8, symSize: 0x14 }
  - { offsetInCU: 0x195FD, offset: 0x3FF3D, size: 0x8, addend: 0x0, symName: __ZNSt3__16vectorI4MeshNS_9allocatorIS1_EEE21_ConstructTransactionC1B8ue170006ERS4_m, symObjAddr: 0xBEB8, symBinAddr: 0x100031CEC, symSize: 0x3C }
  - { offsetInCU: 0x19643, offset: 0x3FF83, size: 0x8, addend: 0x0, symName: __ZNSt3__116allocator_traitsINS_9allocatorI4MeshEEE9constructB8ue170006IS2_JS2_EvEEvRS3_PT_DpOT0_, symObjAddr: 0xBEF4, symBinAddr: 0x100031D28, symSize: 0x34 }
  - { offsetInCU: 0x1969A, offset: 0x3FFDA, size: 0x8, addend: 0x0, symName: __ZNSt3__16vectorI4MeshNS_9allocatorIS1_EEE7__allocB8ue170006Ev, symObjAddr: 0xBF28, symBinAddr: 0x100031D5C, symSize: 0x28 }
  - { offsetInCU: 0x196BE, offset: 0x3FFFE, size: 0x8, addend: 0x0, symName: __ZNSt3__16vectorI4MeshNS_9allocatorIS1_EEE21_ConstructTransactionD1B8ue170006Ev, symObjAddr: 0xBF64, symBinAddr: 0x100031D98, symSize: 0x2C }
  - { offsetInCU: 0x196E6, offset: 0x40026, size: 0x8, addend: 0x0, symName: __ZNSt3__16vectorI4MeshNS_9allocatorIS1_EEE21_ConstructTransactionC2B8ue170006ERS4_m, symObjAddr: 0xBF90, symBinAddr: 0x100031DC4, symSize: 0x1D8 }
  - { offsetInCU: 0x1972C, offset: 0x4006C, size: 0x8, addend: 0x0, symName: __ZNKSt3__16vectorI4MeshNS_9allocatorIS1_EEE19__annotate_increaseB8ue170006Em, symObjAddr: 0xC168, symBinAddr: 0x100031F9C, symSize: 0xF8 }
  - { offsetInCU: 0x1975F, offset: 0x4009F, size: 0x8, addend: 0x0, symName: __ZNKSt3__16vectorI4MeshNS_9allocatorIS1_EEE31__annotate_contiguous_containerEPKvS6_S6_S6_, symObjAddr: 0xC260, symBinAddr: 0x100032094, symSize: 0x58 }
  - { offsetInCU: 0x197BF, offset: 0x400FF, size: 0x8, addend: 0x0, symName: __ZNKSt3__16vectorI4MeshNS_9allocatorIS1_EEE4dataB8ue170006Ev, symObjAddr: 0xC2B8, symBinAddr: 0x1000320EC, symSize: 0x64 }
  - { offsetInCU: 0x197E3, offset: 0x40123, size: 0x8, addend: 0x0, symName: __ZNKSt3__16vectorI4MeshNS_9allocatorIS1_EEE8capacityB8ue170006Ev, symObjAddr: 0xC31C, symBinAddr: 0x100032150, symSize: 0xBC }
  - { offsetInCU: 0x19807, offset: 0x40147, size: 0x8, addend: 0x0, symName: __ZNKSt3__16vectorI4MeshNS_9allocatorIS1_EEE4sizeB8ue170006Ev, symObjAddr: 0xC3D8, symBinAddr: 0x10003220C, symSize: 0xB0 }
  - { offsetInCU: 0x1982B, offset: 0x4016B, size: 0x8, addend: 0x0, symName: __ZNKSt3__16vectorI4MeshNS_9allocatorIS1_EEE9__end_capB8ue170006Ev, symObjAddr: 0xC488, symBinAddr: 0x1000322BC, symSize: 0x28 }
  - { offsetInCU: 0x1984F, offset: 0x4018F, size: 0x8, addend: 0x0, symName: __ZNKSt3__117__compressed_pairIP4MeshNS_9allocatorIS1_EEE5firstB8ue170006Ev, symObjAddr: 0xC4B0, symBinAddr: 0x1000322E4, symSize: 0x24 }
  - { offsetInCU: 0x19873, offset: 0x401B3, size: 0x8, addend: 0x0, symName: __ZNKSt3__122__compressed_pair_elemIP4MeshLi0ELb0EE5__getB8ue170006Ev, symObjAddr: 0xC4D4, symBinAddr: 0x100032308, symSize: 0x14 }
  - { offsetInCU: 0x19897, offset: 0x401D7, size: 0x8, addend: 0x0, symName: __ZNSt3__19allocatorI4MeshE9constructB8ue170006IS1_JS1_EEEvPT_DpOT0_, symObjAddr: 0xC4E8, symBinAddr: 0x10003231C, symSize: 0x30 }
  - { offsetInCU: 0x198EB, offset: 0x4022B, size: 0x8, addend: 0x0, symName: __ZN4MeshC1EOS_, symObjAddr: 0xC518, symBinAddr: 0x10003234C, symSize: 0x34 }
  - { offsetInCU: 0x1991F, offset: 0x4025F, size: 0x8, addend: 0x0, symName: __ZN4MeshC2EOS_, symObjAddr: 0xC54C, symBinAddr: 0x100032380, symSize: 0xE4 }
  - { offsetInCU: 0x19953, offset: 0x40293, size: 0x8, addend: 0x0, symName: __ZNSt3__110shared_ptrI11VertexArrayEC1B8ue170006EOS2_, symObjAddr: 0xC630, symBinAddr: 0x100032464, symSize: 0x34 }
  - { offsetInCU: 0x1998A, offset: 0x402CA, size: 0x8, addend: 0x0, symName: __ZNSt3__110shared_ptrI11VertexArrayEC2B8ue170006EOS2_, symObjAddr: 0xC664, symBinAddr: 0x100032498, symSize: 0x1B8 }
  - { offsetInCU: 0x199C1, offset: 0x40301, size: 0x8, addend: 0x0, symName: __ZNSt3__117__compressed_pairIP4MeshNS_9allocatorIS1_EEE6secondB8ue170006Ev, symObjAddr: 0xC81C, symBinAddr: 0x100032650, symSize: 0x24 }
  - { offsetInCU: 0x199E5, offset: 0x40325, size: 0x8, addend: 0x0, symName: __ZNSt3__122__compressed_pair_elemINS_9allocatorI4MeshEELi1ELb1EE5__getB8ue170006Ev, symObjAddr: 0xC840, symBinAddr: 0x100032674, symSize: 0x14 }
  - { offsetInCU: 0x19A09, offset: 0x40349, size: 0x8, addend: 0x0, symName: __ZNSt3__16vectorI4MeshNS_9allocatorIS1_EEE21_ConstructTransactionD2B8ue170006Ev, symObjAddr: 0xC854, symBinAddr: 0x100032688, symSize: 0x278 }
  - { offsetInCU: 0x19A31, offset: 0x40371, size: 0x8, addend: 0x0, symName: __ZNKSt3__16vectorI4MeshNS_9allocatorIS1_EEE17__annotate_shrinkB8ue170006Em, symObjAddr: 0xCACC, symBinAddr: 0x100032900, symSize: 0xE4 }
  - { offsetInCU: 0x19A64, offset: 0x403A4, size: 0x8, addend: 0x0, symName: __ZNKSt3__16vectorI4MeshNS_9allocatorIS1_EEE11__recommendB8ue170006Em, symObjAddr: 0xCBB0, symBinAddr: 0x1000329E4, symSize: 0x384 }
  - { offsetInCU: 0x19AC0, offset: 0x40400, size: 0x8, addend: 0x0, symName: __ZNSt3__114__split_bufferI4MeshRNS_9allocatorIS1_EEEC1EmmS4_, symObjAddr: 0xCF34, symBinAddr: 0x100032D68, symSize: 0x44 }
  - { offsetInCU: 0x19B15, offset: 0x40455, size: 0x8, addend: 0x0, symName: __ZNSt3__114__split_bufferI4MeshRNS_9allocatorIS1_EEED1Ev, symObjAddr: 0xD4E4, symBinAddr: 0x100033318, symSize: 0x2C }
  - { offsetInCU: 0x19B40, offset: 0x40480, size: 0x8, addend: 0x0, symName: __ZNKSt3__16vectorI4MeshNS_9allocatorIS1_EEE8max_sizeEv, symObjAddr: 0xD510, symBinAddr: 0x100033344, symSize: 0x2FC }
  - { offsetInCU: 0x19B67, offset: 0x404A7, size: 0x8, addend: 0x0, symName: __ZNKSt3__16vectorI4MeshNS_9allocatorIS1_EEE20__throw_length_errorB8ue170006Ev, symObjAddr: 0xD80C, symBinAddr: 0x100033640, symSize: 0x20 }
  - { offsetInCU: 0x19B95, offset: 0x404D5, size: 0x8, addend: 0x0, symName: __ZNSt3__116allocator_traitsINS_9allocatorI4MeshEEE8max_sizeB8ue170006IS3_vEEmRKS3_, symObjAddr: 0xD884, symBinAddr: 0x100033660, symSize: 0x24 }
  - { offsetInCU: 0x19BC3, offset: 0x40503, size: 0x8, addend: 0x0, symName: __ZNKSt3__16vectorI4MeshNS_9allocatorIS1_EEE7__allocB8ue170006Ev, symObjAddr: 0xD8A8, symBinAddr: 0x100033684, symSize: 0x28 }
  - { offsetInCU: 0x19BE7, offset: 0x40527, size: 0x8, addend: 0x0, symName: __ZNKSt3__19allocatorI4MeshE8max_sizeB8ue170006Ev, symObjAddr: 0xDB88, symBinAddr: 0x1000336AC, symSize: 0x18 }
  - { offsetInCU: 0x19C0B, offset: 0x4054B, size: 0x8, addend: 0x0, symName: __ZNKSt3__117__compressed_pairIP4MeshNS_9allocatorIS1_EEE6secondB8ue170006Ev, symObjAddr: 0xDBA0, symBinAddr: 0x1000336C4, symSize: 0x24 }
  - { offsetInCU: 0x19C2F, offset: 0x4056F, size: 0x8, addend: 0x0, symName: __ZNKSt3__122__compressed_pair_elemINS_9allocatorI4MeshEELi1ELb1EE5__getB8ue170006Ev, symObjAddr: 0xDBC4, symBinAddr: 0x1000336E8, symSize: 0x14 }
  - { offsetInCU: 0x19C53, offset: 0x40593, size: 0x8, addend: 0x0, symName: __ZNSt3__114__split_bufferI4MeshRNS_9allocatorIS1_EEEC2EmmS4_, symObjAddr: 0xDEF0, symBinAddr: 0x1000336FC, symSize: 0x530 }
  - { offsetInCU: 0x19CD3, offset: 0x40613, size: 0x8, addend: 0x0, symName: __ZNSt3__117__compressed_pairIP4MeshRNS_9allocatorIS1_EEEC1B8ue170006IDnS5_EEOT_OT0_, symObjAddr: 0xE420, symBinAddr: 0x100033C2C, symSize: 0x3C }
  - { offsetInCU: 0x19D29, offset: 0x40669, size: 0x8, addend: 0x0, symName: __ZNSt3__114__split_bufferI4MeshRNS_9allocatorIS1_EEE7__allocB8ue170006Ev, symObjAddr: 0xE6E8, symBinAddr: 0x100033EF4, symSize: 0x28 }
  - { offsetInCU: 0x19D4D, offset: 0x4068D, size: 0x8, addend: 0x0, symName: __ZNSt3__114__split_bufferI4MeshRNS_9allocatorIS1_EEE9__end_capB8ue170006Ev, symObjAddr: 0xE710, symBinAddr: 0x100033F1C, symSize: 0x28 }
  - { offsetInCU: 0x19D71, offset: 0x406B1, size: 0x8, addend: 0x0, symName: __ZNSt3__117__compressed_pairIP4MeshRNS_9allocatorIS1_EEEC2B8ue170006IDnS5_EEOT_OT0_, symObjAddr: 0xE738, symBinAddr: 0x100033F44, symSize: 0x48 }
  - { offsetInCU: 0x19DC7, offset: 0x40707, size: 0x8, addend: 0x0, symName: __ZNSt3__122__compressed_pair_elemIP4MeshLi0ELb0EEC2B8ue170006IDnvEEOT_, symObjAddr: 0xE780, symBinAddr: 0x100033F8C, symSize: 0x64 }
  - { offsetInCU: 0x19E07, offset: 0x40747, size: 0x8, addend: 0x0, symName: __ZNSt3__122__compressed_pair_elemIRNS_9allocatorI4MeshEELi1ELb0EEC2B8ue170006IS4_vEEOT_, symObjAddr: 0xE7E4, symBinAddr: 0x100033FF0, symSize: 0x70 }
  - { offsetInCU: 0x19E47, offset: 0x40787, size: 0x8, addend: 0x0, symName: __ZNSt3__19allocatorI4MeshE8allocateB8ue170006Em, symObjAddr: 0xE854, symBinAddr: 0x100034060, symSize: 0x60 }
  - { offsetInCU: 0x19E79, offset: 0x407B9, size: 0x8, addend: 0x0, symName: __ZNSt3__117__compressed_pairIP4MeshRNS_9allocatorIS1_EEE6secondB8ue170006Ev, symObjAddr: 0xE99C, symBinAddr: 0x1000340C0, symSize: 0x28 }
  - { offsetInCU: 0x19E9D, offset: 0x407DD, size: 0x8, addend: 0x0, symName: __ZNSt3__122__compressed_pair_elemIRNS_9allocatorI4MeshEELi1ELb0EE5__getB8ue170006Ev, symObjAddr: 0xE9C4, symBinAddr: 0x1000340E8, symSize: 0x60 }
  - { offsetInCU: 0x19EC1, offset: 0x40801, size: 0x8, addend: 0x0, symName: __ZNSt3__117__compressed_pairIP4MeshRNS_9allocatorIS1_EEE5firstB8ue170006Ev, symObjAddr: 0xEA24, symBinAddr: 0x100034148, symSize: 0x24 }
  - { offsetInCU: 0x19EE5, offset: 0x40825, size: 0x8, addend: 0x0, symName: __ZNKSt3__16vectorI4MeshNS_9allocatorIS1_EEE17__annotate_deleteB8ue170006Ev, symObjAddr: 0xEA48, symBinAddr: 0x10003416C, symSize: 0xE8 }
  - { offsetInCU: 0x19F09, offset: 0x40849, size: 0x8, addend: 0x0, symName: __ZNSt3__116reverse_iteratorIP4MeshEC1B8ue170006ES2_, symObjAddr: 0xF074, symBinAddr: 0x100034798, symSize: 0x34 }
  - { offsetInCU: 0x19F3F, offset: 0x4087F, size: 0x8, addend: 0x0, symName: __ZNKSt3__116reverse_iteratorIP4MeshE4baseB8ue170006Ev, symObjAddr: 0xF0A8, symBinAddr: 0x1000347CC, symSize: 0x64 }
  - { offsetInCU: 0x19F63, offset: 0x408A3, size: 0x8, addend: 0x0, symName: __ZNKSt3__16vectorI4MeshNS_9allocatorIS1_EEE14__annotate_newB8ue170006Em, symObjAddr: 0xF240, symBinAddr: 0x100034964, symSize: 0xDC }
  - { offsetInCU: 0x19F96, offset: 0x408D6, size: 0x8, addend: 0x0, symName: __ZNSt3__129_AllocatorDestroyRangeReverseINS_9allocatorI4MeshEENS_16reverse_iteratorIPS2_EEEC1B8ue170006ERS3_RS6_S9_, symObjAddr: 0xF514, symBinAddr: 0x100034C38, symSize: 0x44 }
  - { offsetInCU: 0x19FEB, offset: 0x4092B, size: 0x8, addend: 0x0, symName: __ZNKSt3__116reverse_iteratorIP4MeshEdeB8ue170006Ev, symObjAddr: 0xF5C4, symBinAddr: 0x100034CE8, symSize: 0x74 }
  - { offsetInCU: 0x1A01D, offset: 0x4095D, size: 0x8, addend: 0x0, symName: __ZNSt3__116reverse_iteratorIP4MeshEppB8ue170006Ev, symObjAddr: 0xF638, symBinAddr: 0x100034D5C, symSize: 0x6C }
  - { offsetInCU: 0x1A041, offset: 0x40981, size: 0x8, addend: 0x0, symName: __ZNSt3__128__exception_guard_exceptionsINS_29_AllocatorDestroyRangeReverseINS_9allocatorI4MeshEENS_16reverse_iteratorIPS3_EEEEE10__completeB8ue170006Ev, symObjAddr: 0xF6A4, symBinAddr: 0x100034DC8, symSize: 0x8C }
  - { offsetInCU: 0x1A065, offset: 0x409A5, size: 0x8, addend: 0x0, symName: __ZNSt3__128__exception_guard_exceptionsINS_29_AllocatorDestroyRangeReverseINS_9allocatorI4MeshEENS_16reverse_iteratorIPS3_EEEEED1B8ue170006Ev, symObjAddr: 0xF730, symBinAddr: 0x100034E54, symSize: 0x2C }
  - { offsetInCU: 0x1A08D, offset: 0x409CD, size: 0x8, addend: 0x0, symName: __ZNSt3__128__exception_guard_exceptionsINS_29_AllocatorDestroyRangeReverseINS_9allocatorI4MeshEENS_16reverse_iteratorIPS3_EEEEEC1B8ue170006ES8_, symObjAddr: 0xF75C, symBinAddr: 0x100034E80, symSize: 0x34 }
  - { offsetInCU: 0x1A0C4, offset: 0x40A04, size: 0x8, addend: 0x0, symName: __ZNSt3__128__exception_guard_exceptionsINS_29_AllocatorDestroyRangeReverseINS_9allocatorI4MeshEENS_16reverse_iteratorIPS3_EEEEEC2B8ue170006ES8_, symObjAddr: 0xF790, symBinAddr: 0x100034EB4, symSize: 0xA4 }
  - { offsetInCU: 0x1A0FB, offset: 0x40A3B, size: 0x8, addend: 0x0, symName: __ZNSt3__129_AllocatorDestroyRangeReverseINS_9allocatorI4MeshEENS_16reverse_iteratorIPS2_EEEC2B8ue170006ERS3_RS6_S9_, symObjAddr: 0xF834, symBinAddr: 0x100034F58, symSize: 0x104 }
  - { offsetInCU: 0x1A155, offset: 0x40A95, size: 0x8, addend: 0x0, symName: __ZNSt3__119__to_address_helperINS_16reverse_iteratorIP4MeshEEvE6__callB8ue170006ERKS4_, symObjAddr: 0xF938, symBinAddr: 0x10003505C, symSize: 0x44 }
  - { offsetInCU: 0x1A178, offset: 0x40AB8, size: 0x8, addend: 0x0, symName: __ZNKSt3__116reverse_iteratorIP4MeshEptB8ue170006Ev, symObjAddr: 0xF97C, symBinAddr: 0x1000350A0, symSize: 0x24 }
  - { offsetInCU: 0x1A19C, offset: 0x40ADC, size: 0x8, addend: 0x0, symName: __ZNSt3__128__exception_guard_exceptionsINS_29_AllocatorDestroyRangeReverseINS_9allocatorI4MeshEENS_16reverse_iteratorIPS3_EEEEED2B8ue170006Ev, symObjAddr: 0xF9A0, symBinAddr: 0x1000350C4, symSize: 0xBC }
  - { offsetInCU: 0x1A1C4, offset: 0x40B04, size: 0x8, addend: 0x0, symName: __ZNKSt3__129_AllocatorDestroyRangeReverseINS_9allocatorI4MeshEENS_16reverse_iteratorIPS2_EEEclB8ue170006Ev, symObjAddr: 0xFA5C, symBinAddr: 0x100035180, symSize: 0x3A8 }
  - { offsetInCU: 0x1A1E9, offset: 0x40B29, size: 0x8, addend: 0x0, symName: __ZNSt3__116reverse_iteratorINS0_IP4MeshEEEC1B8ue170006ES3_, symObjAddr: 0xFE74, symBinAddr: 0x100035598, symSize: 0x248 }
  - { offsetInCU: 0x1A224, offset: 0x40B64, size: 0x8, addend: 0x0, symName: __ZNSt3__116allocator_traitsINS_9allocatorI4MeshEEE7destroyB8ue170006IS2_vEEvRS3_PT_, symObjAddr: 0x10388, symBinAddr: 0x100035AAC, symSize: 0x2C }
  - { offsetInCU: 0x1A261, offset: 0x40BA1, size: 0x8, addend: 0x0, symName: __ZNSt3__116reverse_iteratorINS0_IP4MeshEEEppB8ue170006Ev, symObjAddr: 0x103D8, symBinAddr: 0x100035AFC, symSize: 0x30 }
  - { offsetInCU: 0x1A285, offset: 0x40BC5, size: 0x8, addend: 0x0, symName: __ZNKSt3__116reverse_iteratorINS0_IP4MeshEEE4baseB8ue170006Ev, symObjAddr: 0x10408, symBinAddr: 0x100035B2C, symSize: 0x20C }
  - { offsetInCU: 0x1A2AA, offset: 0x40BEA, size: 0x8, addend: 0x0, symName: __ZNSt3__19allocatorI4MeshE7destroyB8ue170006EPS1_, symObjAddr: 0x10614, symBinAddr: 0x100035D38, symSize: 0x28 }
  - { offsetInCU: 0x1A2E1, offset: 0x40C21, size: 0x8, addend: 0x0, symName: __ZNSt3__119__to_address_helperINS_16reverse_iteratorINS1_IP4MeshEEEEvE6__callB8ue170006ERKS5_, symObjAddr: 0x1063C, symBinAddr: 0x100035D60, symSize: 0x44 }
  - { offsetInCU: 0x1A304, offset: 0x40C44, size: 0x8, addend: 0x0, symName: __ZNKSt3__116reverse_iteratorINS0_IP4MeshEEEptB8ue170006Ev, symObjAddr: 0x10680, symBinAddr: 0x100035DA4, symSize: 0x24 }
  - { offsetInCU: 0x1A328, offset: 0x40C68, size: 0x8, addend: 0x0, symName: __ZNKSt3__116reverse_iteratorINS0_IP4MeshEEEdeB8ue170006Ev, symObjAddr: 0x106A4, symBinAddr: 0x100035DC8, symSize: 0x1EC }
  - { offsetInCU: 0x1A35F, offset: 0x40C9F, size: 0x8, addend: 0x0, symName: __ZNSt3__116reverse_iteratorIP4MeshEmmB8ue170006Ev, symObjAddr: 0x10890, symBinAddr: 0x100035FB4, symSize: 0x6C }
  - { offsetInCU: 0x1A383, offset: 0x40CC3, size: 0x8, addend: 0x0, symName: __ZNSt3__116reverse_iteratorINS0_IP4MeshEEEC2B8ue170006ES3_, symObjAddr: 0x108FC, symBinAddr: 0x100036020, symSize: 0x22C }
  - { offsetInCU: 0x1A3BE, offset: 0x40CFE, size: 0x8, addend: 0x0, symName: __ZNSt3__116reverse_iteratorIP4MeshEC2B8ue170006ES2_, symObjAddr: 0x10B28, symBinAddr: 0x10003624C, symSize: 0xB8 }
  - { offsetInCU: 0x1A3F4, offset: 0x40D34, size: 0x8, addend: 0x0, symName: __ZNSt3__114__split_bufferI4MeshRNS_9allocatorIS1_EEED2Ev, symObjAddr: 0x10BE0, symBinAddr: 0x100036304, symSize: 0x104 }
  - { offsetInCU: 0x1A41F, offset: 0x40D5F, size: 0x8, addend: 0x0, symName: __ZNSt3__114__split_bufferI4MeshRNS_9allocatorIS1_EEE5clearB8ue170006Ev, symObjAddr: 0x10CE4, symBinAddr: 0x100036408, symSize: 0x68 }
  - { offsetInCU: 0x1A443, offset: 0x40D83, size: 0x8, addend: 0x0, symName: __ZNSt3__116allocator_traitsINS_9allocatorI4MeshEEE10deallocateB8ue170006ERS3_PS2_m, symObjAddr: 0x10D4C, symBinAddr: 0x100036470, symSize: 0x34 }
  - { offsetInCU: 0x1A485, offset: 0x40DC5, size: 0x8, addend: 0x0, symName: __ZNKSt3__114__split_bufferI4MeshRNS_9allocatorIS1_EEE8capacityB8ue170006Ev, symObjAddr: 0x10D80, symBinAddr: 0x1000364A4, symSize: 0xBC }
  - { offsetInCU: 0x1A4A9, offset: 0x40DE9, size: 0x8, addend: 0x0, symName: __ZNSt3__114__split_bufferI4MeshRNS_9allocatorIS1_EEE17__destruct_at_endB8ue170006EPS1_, symObjAddr: 0x10E3C, symBinAddr: 0x100036560, symSize: 0x2C }
  - { offsetInCU: 0x1A4DB, offset: 0x40E1B, size: 0x8, addend: 0x0, symName: __ZNSt3__114__split_bufferI4MeshRNS_9allocatorIS1_EEE17__destruct_at_endB8ue170006EPS1_NS_17integral_constantIbLb0EEE, symObjAddr: 0x10E68, symBinAddr: 0x10003658C, symSize: 0x10C }
  - { offsetInCU: 0x1A51A, offset: 0x40E5A, size: 0x8, addend: 0x0, symName: __ZNSt3__19allocatorI4MeshE10deallocateB8ue170006EPS1_m, symObjAddr: 0x10F74, symBinAddr: 0x100036698, symSize: 0x50 }
  - { offsetInCU: 0x1A55A, offset: 0x40E9A, size: 0x8, addend: 0x0, symName: __ZNKSt3__114__split_bufferI4MeshRNS_9allocatorIS1_EEE9__end_capB8ue170006Ev, symObjAddr: 0x10FC4, symBinAddr: 0x1000366E8, symSize: 0x28 }
  - { offsetInCU: 0x1A57E, offset: 0x40EBE, size: 0x8, addend: 0x0, symName: __ZNKSt3__117__compressed_pairIP4MeshRNS_9allocatorIS1_EEE5firstB8ue170006Ev, symObjAddr: 0x10FEC, symBinAddr: 0x100036710, symSize: 0x24 }
  - { offsetInCU: 0x1A5A2, offset: 0x40EE2, size: 0x8, addend: 0x0, symName: __ZNSt3__16vectorIjNS_9allocatorIjEEEC2B8ue170006Ev, symObjAddr: 0x11E58, symBinAddr: 0x100036734, symSize: 0x2E8 }
  - { offsetInCU: 0x1A5CB, offset: 0x40F0B, size: 0x8, addend: 0x0, symName: __ZNSt3__117__compressed_pairIPjNS_9allocatorIjEEEC1B8ue170006IDnNS_18__default_init_tagEEEOT_OT0_, symObjAddr: 0x12140, symBinAddr: 0x100036A1C, symSize: 0x3C }
  - { offsetInCU: 0x1A621, offset: 0x40F61, size: 0x8, addend: 0x0, symName: __ZNSt3__117__compressed_pairIPjNS_9allocatorIjEEEC2B8ue170006IDnNS_18__default_init_tagEEEOT_OT0_, symObjAddr: 0x1217C, symBinAddr: 0x100036A58, symSize: 0x40 }
  - { offsetInCU: 0x1A677, offset: 0x40FB7, size: 0x8, addend: 0x0, symName: __ZNSt3__122__compressed_pair_elemIPjLi0ELb0EEC2B8ue170006IDnvEEOT_, symObjAddr: 0x121BC, symBinAddr: 0x100036A98, symSize: 0x64 }
  - { offsetInCU: 0x1A6B7, offset: 0x40FF7, size: 0x8, addend: 0x0, symName: __ZNSt3__122__compressed_pair_elemINS_9allocatorIjEELi1ELb1EEC2B8ue170006ENS_18__default_init_tagE, symObjAddr: 0x12220, symBinAddr: 0x100036AFC, symSize: 0x2C }
  - { offsetInCU: 0x1A6EA, offset: 0x4102A, size: 0x8, addend: 0x0, symName: __ZNSt3__19allocatorIjEC2B8ue170006Ev, symObjAddr: 0x1224C, symBinAddr: 0x100036B28, symSize: 0x2C }
  - { offsetInCU: 0x1A712, offset: 0x41052, size: 0x8, addend: 0x0, symName: __ZNSt3__116__non_trivial_ifILb1ENS_9allocatorIjEEEC2B8ue170006Ev, symObjAddr: 0x12278, symBinAddr: 0x100036B54, symSize: 0x14 }
  - { offsetInCU: 0x1A73B, offset: 0x4107B, size: 0x8, addend: 0x0, symName: __ZNSt3__16vectorIjNS_9allocatorIjEEED2B8ue170006Ev, symObjAddr: 0x1228C, symBinAddr: 0x100036B68, symSize: 0x1F8 }
  - { offsetInCU: 0x1A764, offset: 0x410A4, size: 0x8, addend: 0x0, symName: __ZNSt3__16vectorIjNS_9allocatorIjEEE16__destroy_vectorC1B8ue170006ERS3_, symObjAddr: 0x12484, symBinAddr: 0x100036D60, symSize: 0x34 }
  - { offsetInCU: 0x1A79B, offset: 0x410DB, size: 0x8, addend: 0x0, symName: __ZNSt3__16vectorIjNS_9allocatorIjEEE16__destroy_vectorclB8ue170006Ev, symObjAddr: 0x124B8, symBinAddr: 0x100036D94, symSize: 0x228 }
  - { offsetInCU: 0x1A7BF, offset: 0x410FF, size: 0x8, addend: 0x0, symName: __ZNSt3__16vectorIjNS_9allocatorIjEEE16__destroy_vectorC2B8ue170006ERS3_, symObjAddr: 0x126E0, symBinAddr: 0x100036FBC, symSize: 0x70 }
  - { offsetInCU: 0x1A7F6, offset: 0x41136, size: 0x8, addend: 0x0, symName: __ZNSt3__16vectorIjNS_9allocatorIjEEE7__clearB8ue170006Ev, symObjAddr: 0x12750, symBinAddr: 0x10003702C, symSize: 0x64 }
  - { offsetInCU: 0x1A81A, offset: 0x4115A, size: 0x8, addend: 0x0, symName: __ZNKSt3__16vectorIjNS_9allocatorIjEEE17__annotate_deleteB8ue170006Ev, symObjAddr: 0x127B4, symBinAddr: 0x100037090, symSize: 0xCC }
  - { offsetInCU: 0x1A83E, offset: 0x4117E, size: 0x8, addend: 0x0, symName: __ZNSt3__116allocator_traitsINS_9allocatorIjEEE10deallocateB8ue170006ERS2_Pjm, symObjAddr: 0x12880, symBinAddr: 0x10003715C, symSize: 0x34 }
  - { offsetInCU: 0x1A880, offset: 0x411C0, size: 0x8, addend: 0x0, symName: __ZNSt3__16vectorIjNS_9allocatorIjEEE7__allocB8ue170006Ev, symObjAddr: 0x128B4, symBinAddr: 0x100037190, symSize: 0x28 }
  - { offsetInCU: 0x1A8A4, offset: 0x411E4, size: 0x8, addend: 0x0, symName: __ZNKSt3__16vectorIjNS_9allocatorIjEEE8capacityB8ue170006Ev, symObjAddr: 0x128DC, symBinAddr: 0x1000371B8, symSize: 0xBC }
  - { offsetInCU: 0x1A8C8, offset: 0x41208, size: 0x8, addend: 0x0, symName: __ZNSt3__16vectorIjNS_9allocatorIjEEE22__base_destruct_at_endB8ue170006EPj, symObjAddr: 0x12998, symBinAddr: 0x100037274, symSize: 0x114 }
  - { offsetInCU: 0x1A90B, offset: 0x4124B, size: 0x8, addend: 0x0, symName: __ZNSt3__116allocator_traitsINS_9allocatorIjEEE7destroyB8ue170006IjvEEvRS2_PT_, symObjAddr: 0x12AAC, symBinAddr: 0x100037388, symSize: 0x2C }
  - { offsetInCU: 0x1A948, offset: 0x41288, size: 0x8, addend: 0x0, symName: __ZNSt3__19allocatorIjE7destroyB8ue170006EPj, symObjAddr: 0x12AEC, symBinAddr: 0x1000373C8, symSize: 0x14 }
  - { offsetInCU: 0x1A97A, offset: 0x412BA, size: 0x8, addend: 0x0, symName: __ZNKSt3__16vectorIjNS_9allocatorIjEEE31__annotate_contiguous_containerEPKvS5_S5_S5_, symObjAddr: 0x12B00, symBinAddr: 0x1000373DC, symSize: 0x58 }
  - { offsetInCU: 0x1A9DA, offset: 0x4131A, size: 0x8, addend: 0x0, symName: __ZNKSt3__16vectorIjNS_9allocatorIjEEE4dataB8ue170006Ev, symObjAddr: 0x12B58, symBinAddr: 0x100037434, symSize: 0x64 }
  - { offsetInCU: 0x1A9FE, offset: 0x4133E, size: 0x8, addend: 0x0, symName: __ZNSt3__19allocatorIjE10deallocateB8ue170006EPjm, symObjAddr: 0x12BBC, symBinAddr: 0x100037498, symSize: 0x4C }
  - { offsetInCU: 0x1AA3E, offset: 0x4137E, size: 0x8, addend: 0x0, symName: __ZNSt3__117__compressed_pairIPjNS_9allocatorIjEEE6secondB8ue170006Ev, symObjAddr: 0x12C08, symBinAddr: 0x1000374E4, symSize: 0x24 }
  - { offsetInCU: 0x1AA62, offset: 0x413A2, size: 0x8, addend: 0x0, symName: __ZNSt3__122__compressed_pair_elemINS_9allocatorIjEELi1ELb1EE5__getB8ue170006Ev, symObjAddr: 0x12C2C, symBinAddr: 0x100037508, symSize: 0x14 }
  - { offsetInCU: 0x1AA86, offset: 0x413C6, size: 0x8, addend: 0x0, symName: __ZNKSt3__16vectorIjNS_9allocatorIjEEE9__end_capB8ue170006Ev, symObjAddr: 0x12C40, symBinAddr: 0x10003751C, symSize: 0x28 }
  - { offsetInCU: 0x1AAAA, offset: 0x413EA, size: 0x8, addend: 0x0, symName: __ZNKSt3__117__compressed_pairIPjNS_9allocatorIjEEE5firstB8ue170006Ev, symObjAddr: 0x12C68, symBinAddr: 0x100037544, symSize: 0x24 }
  - { offsetInCU: 0x1AACE, offset: 0x4140E, size: 0x8, addend: 0x0, symName: __ZNKSt3__122__compressed_pair_elemIPjLi0ELb0EE5__getB8ue170006Ev, symObjAddr: 0x12C8C, symBinAddr: 0x100037568, symSize: 0x14 }
  - { offsetInCU: 0x1AB15, offset: 0x41455, size: 0x8, addend: 0x0, symName: __ZNSt3__16vectorIjNS_9allocatorIjEEE9__end_capB8ue170006Ev, symObjAddr: 0x18CA4, symBinAddr: 0x10003757C, symSize: 0x28 }
  - { offsetInCU: 0x1AB39, offset: 0x41479, size: 0x8, addend: 0x0, symName: __ZNSt3__16vectorIjNS_9allocatorIjEEE22__construct_one_at_endB8ue170006IJRKjEEEvDpOT_, symObjAddr: 0x18CCC, symBinAddr: 0x1000375A4, symSize: 0x36C }
  - { offsetInCU: 0x1AB8D, offset: 0x414CD, size: 0x8, addend: 0x0, symName: __ZNSt3__16vectorIjNS_9allocatorIjEEE21__push_back_slow_pathIRKjEEvOT_, symObjAddr: 0x19038, symBinAddr: 0x100037910, symSize: 0x3C0 }
  - { offsetInCU: 0x1ABF2, offset: 0x41532, size: 0x8, addend: 0x0, symName: __ZNSt3__117__compressed_pairIPjNS_9allocatorIjEEE5firstB8ue170006Ev, symObjAddr: 0x193F8, symBinAddr: 0x100037CD0, symSize: 0x24 }
  - { offsetInCU: 0x1AC16, offset: 0x41556, size: 0x8, addend: 0x0, symName: __ZNSt3__122__compressed_pair_elemIPjLi0ELb0EE5__getB8ue170006Ev, symObjAddr: 0x1941C, symBinAddr: 0x100037CF4, symSize: 0x14 }
  - { offsetInCU: 0x1AC53, offset: 0x41593, size: 0x8, addend: 0x0, symName: __ZNSt3__16vectorIjNS_9allocatorIjEEE21_ConstructTransactionC1B8ue170006ERS3_m, symObjAddr: 0x19430, symBinAddr: 0x100037D08, symSize: 0x3C }
  - { offsetInCU: 0x1AC99, offset: 0x415D9, size: 0x8, addend: 0x0, symName: __ZNSt3__116allocator_traitsINS_9allocatorIjEEE9constructB8ue170006IjJRKjEvEEvRS2_PT_DpOT0_, symObjAddr: 0x1946C, symBinAddr: 0x100037D44, symSize: 0x34 }
  - { offsetInCU: 0x1ACF0, offset: 0x41630, size: 0x8, addend: 0x0, symName: __ZNSt3__16vectorIjNS_9allocatorIjEEE21_ConstructTransactionD1B8ue170006Ev, symObjAddr: 0x194A0, symBinAddr: 0x100037D78, symSize: 0x2C }
  - { offsetInCU: 0x1AD18, offset: 0x41658, size: 0x8, addend: 0x0, symName: __ZNSt3__16vectorIjNS_9allocatorIjEEE21_ConstructTransactionC2B8ue170006ERS3_m, symObjAddr: 0x194CC, symBinAddr: 0x100037DA4, symSize: 0x1D0 }
  - { offsetInCU: 0x1AD5E, offset: 0x4169E, size: 0x8, addend: 0x0, symName: __ZNKSt3__16vectorIjNS_9allocatorIjEEE19__annotate_increaseB8ue170006Em, symObjAddr: 0x1969C, symBinAddr: 0x100037F74, symSize: 0xD8 }
  - { offsetInCU: 0x1AD91, offset: 0x416D1, size: 0x8, addend: 0x0, symName: __ZNSt3__19allocatorIjE9constructB8ue170006IjJRKjEEEvPT_DpOT0_, symObjAddr: 0x19774, symBinAddr: 0x10003804C, symSize: 0x104 }
  - { offsetInCU: 0x1ADE5, offset: 0x41725, size: 0x8, addend: 0x0, symName: __ZNSt3__16vectorIjNS_9allocatorIjEEE21_ConstructTransactionD2B8ue170006Ev, symObjAddr: 0x19878, symBinAddr: 0x100038150, symSize: 0x278 }
  - { offsetInCU: 0x1AE0D, offset: 0x4174D, size: 0x8, addend: 0x0, symName: __ZNKSt3__16vectorIjNS_9allocatorIjEEE17__annotate_shrinkB8ue170006Em, symObjAddr: 0x19AF0, symBinAddr: 0x1000383C8, symSize: 0xC8 }
  - { offsetInCU: 0x1AE40, offset: 0x41780, size: 0x8, addend: 0x0, symName: __ZNKSt3__16vectorIjNS_9allocatorIjEEE11__recommendB8ue170006Em, symObjAddr: 0x19BB8, symBinAddr: 0x100038490, symSize: 0x384 }
  - { offsetInCU: 0x1AE9C, offset: 0x417DC, size: 0x8, addend: 0x0, symName: __ZNSt3__114__split_bufferIjRNS_9allocatorIjEEEC1EmmS3_, symObjAddr: 0x19F3C, symBinAddr: 0x100038814, symSize: 0x44 }
  - { offsetInCU: 0x1AEF1, offset: 0x41831, size: 0x8, addend: 0x0, symName: __ZNSt3__114__split_bufferIjRNS_9allocatorIjEEED1Ev, symObjAddr: 0x1A4EC, symBinAddr: 0x100038DC4, symSize: 0x2C }
  - { offsetInCU: 0x1AF1C, offset: 0x4185C, size: 0x8, addend: 0x0, symName: __ZNKSt3__16vectorIjNS_9allocatorIjEEE8max_sizeEv, symObjAddr: 0x1A518, symBinAddr: 0x100038DF0, symSize: 0x2FC }
  - { offsetInCU: 0x1AF43, offset: 0x41883, size: 0x8, addend: 0x0, symName: __ZNKSt3__16vectorIjNS_9allocatorIjEEE20__throw_length_errorB8ue170006Ev, symObjAddr: 0x1A814, symBinAddr: 0x1000390EC, symSize: 0x20 }
  - { offsetInCU: 0x1AF71, offset: 0x418B1, size: 0x8, addend: 0x0, symName: __ZNSt3__116allocator_traitsINS_9allocatorIjEEE8max_sizeB8ue170006IS2_vEEmRKS2_, symObjAddr: 0x1A834, symBinAddr: 0x10003910C, symSize: 0x24 }
  - { offsetInCU: 0x1AF9F, offset: 0x418DF, size: 0x8, addend: 0x0, symName: __ZNKSt3__16vectorIjNS_9allocatorIjEEE7__allocB8ue170006Ev, symObjAddr: 0x1A858, symBinAddr: 0x100039130, symSize: 0x28 }
  - { offsetInCU: 0x1AFC3, offset: 0x41903, size: 0x8, addend: 0x0, symName: __ZNKSt3__19allocatorIjE8max_sizeB8ue170006Ev, symObjAddr: 0x1A880, symBinAddr: 0x100039158, symSize: 0x14 }
  - { offsetInCU: 0x1AFE7, offset: 0x41927, size: 0x8, addend: 0x0, symName: __ZNKSt3__117__compressed_pairIPjNS_9allocatorIjEEE6secondB8ue170006Ev, symObjAddr: 0x1A894, symBinAddr: 0x10003916C, symSize: 0x24 }
  - { offsetInCU: 0x1B00B, offset: 0x4194B, size: 0x8, addend: 0x0, symName: __ZNKSt3__122__compressed_pair_elemINS_9allocatorIjEELi1ELb1EE5__getB8ue170006Ev, symObjAddr: 0x1A8B8, symBinAddr: 0x100039190, symSize: 0x14 }
  - { offsetInCU: 0x1B02F, offset: 0x4196F, size: 0x8, addend: 0x0, symName: __ZNSt3__114__split_bufferIjRNS_9allocatorIjEEEC2EmmS3_, symObjAddr: 0x1A8CC, symBinAddr: 0x1000391A4, symSize: 0x520 }
  - { offsetInCU: 0x1B0AA, offset: 0x419EA, size: 0x8, addend: 0x0, symName: __ZNSt3__117__compressed_pairIPjRNS_9allocatorIjEEEC1B8ue170006IDnS4_EEOT_OT0_, symObjAddr: 0x1ADEC, symBinAddr: 0x1000396C4, symSize: 0x3C }
  - { offsetInCU: 0x1B100, offset: 0x41A40, size: 0x8, addend: 0x0, symName: __ZNSt3__114__split_bufferIjRNS_9allocatorIjEEE7__allocB8ue170006Ev, symObjAddr: 0x1B0B4, symBinAddr: 0x10003998C, symSize: 0x28 }
  - { offsetInCU: 0x1B124, offset: 0x41A64, size: 0x8, addend: 0x0, symName: __ZNSt3__114__split_bufferIjRNS_9allocatorIjEEE9__end_capB8ue170006Ev, symObjAddr: 0x1B0DC, symBinAddr: 0x1000399B4, symSize: 0x28 }
  - { offsetInCU: 0x1B148, offset: 0x41A88, size: 0x8, addend: 0x0, symName: __ZNSt3__117__compressed_pairIPjRNS_9allocatorIjEEEC2B8ue170006IDnS4_EEOT_OT0_, symObjAddr: 0x1B104, symBinAddr: 0x1000399DC, symSize: 0x48 }
  - { offsetInCU: 0x1B19E, offset: 0x41ADE, size: 0x8, addend: 0x0, symName: __ZNSt3__122__compressed_pair_elemIRNS_9allocatorIjEELi1ELb0EEC2B8ue170006IS3_vEEOT_, symObjAddr: 0x1B14C, symBinAddr: 0x100039A24, symSize: 0x70 }
  - { offsetInCU: 0x1B1DE, offset: 0x41B1E, size: 0x8, addend: 0x0, symName: __ZNSt3__19allocatorIjE8allocateB8ue170006Em, symObjAddr: 0x1B1BC, symBinAddr: 0x100039A94, symSize: 0x5C }
  - { offsetInCU: 0x1B210, offset: 0x41B50, size: 0x8, addend: 0x0, symName: __ZNSt3__117__compressed_pairIPjRNS_9allocatorIjEEE6secondB8ue170006Ev, symObjAddr: 0x1B218, symBinAddr: 0x100039AF0, symSize: 0x28 }
  - { offsetInCU: 0x1B234, offset: 0x41B74, size: 0x8, addend: 0x0, symName: __ZNSt3__122__compressed_pair_elemIRNS_9allocatorIjEELi1ELb0EE5__getB8ue170006Ev, symObjAddr: 0x1B240, symBinAddr: 0x100039B18, symSize: 0x60 }
  - { offsetInCU: 0x1B258, offset: 0x41B98, size: 0x8, addend: 0x0, symName: __ZNSt3__117__compressed_pairIPjRNS_9allocatorIjEEE5firstB8ue170006Ev, symObjAddr: 0x1B2A0, symBinAddr: 0x100039B78, symSize: 0x24 }
  - { offsetInCU: 0x1B27C, offset: 0x41BBC, size: 0x8, addend: 0x0, symName: __ZNSt3__116reverse_iteratorIPjEC1B8ue170006ES1_, symObjAddr: 0x1B76C, symBinAddr: 0x10003A044, symSize: 0x34 }
  - { offsetInCU: 0x1B2B2, offset: 0x41BF2, size: 0x8, addend: 0x0, symName: __ZNKSt3__116reverse_iteratorIPjE4baseB8ue170006Ev, symObjAddr: 0x1B7A0, symBinAddr: 0x10003A078, symSize: 0x64 }
  - { offsetInCU: 0x1B2D6, offset: 0x41C16, size: 0x8, addend: 0x0, symName: __ZNKSt3__16vectorIjNS_9allocatorIjEEE14__annotate_newB8ue170006Em, symObjAddr: 0x1B938, symBinAddr: 0x10003A210, symSize: 0xC0 }
  - { offsetInCU: 0x1B322, offset: 0x41C62, size: 0x8, addend: 0x0, symName: __ZNKSt3__111__move_loopINS_17_ClassicAlgPolicyEEclB8ue170006INS_16reverse_iteratorIPjEES6_S6_EENS_4pairIT_T1_EES8_T0_S9_, symObjAddr: 0x1D3B8, symBinAddr: 0x10003BC90, symSize: 0x3F8 }
  - { offsetInCU: 0x1B39D, offset: 0x41CDD, size: 0x8, addend: 0x0, symName: __ZNSt3__18_IterOpsINS_17_ClassicAlgPolicyEE11__iter_moveB8ue170006IRNS_16reverse_iteratorIPjEEEENS_9enable_ifIXsr12is_referenceIDTdeclsr3stdE7declvalIRT_EEEEE5valueEDTclsr3stdE4movedeclsr3stdE7declvalISA_EEEEE4typeEOS9_, symObjAddr: 0x1E2D8, symBinAddr: 0x10003CBB0, symSize: 0x28 }
  - { offsetInCU: 0x1B3C9, offset: 0x41D09, size: 0x8, addend: 0x0, symName: __ZNKSt3__116reverse_iteratorIPjEdeB8ue170006Ev, symObjAddr: 0x1E300, symBinAddr: 0x10003CBD8, symSize: 0x74 }
  - { offsetInCU: 0x1B3FB, offset: 0x41D3B, size: 0x8, addend: 0x0, symName: __ZNSt3__116reverse_iteratorIPjEppB8ue170006Ev, symObjAddr: 0x1E374, symBinAddr: 0x10003CC4C, symSize: 0x6C }
  - { offsetInCU: 0x1B41F, offset: 0x41D5F, size: 0x8, addend: 0x0, symName: __ZNSt3__18_IterOpsINS_17_ClassicAlgPolicyEE25__validate_iter_referenceB8ue170006IRNS_16reverse_iteratorIPjEEEEvv, symObjAddr: 0x1E3E0, symBinAddr: 0x10003CCB8, symSize: 0x4 }
  - { offsetInCU: 0x1B43D, offset: 0x41D7D, size: 0x8, addend: 0x0, symName: __ZNSt3__118__unwrap_iter_implINS_16reverse_iteratorIPjEELb0EE8__unwrapB8ue170006ES3_, symObjAddr: 0x1E3E4, symBinAddr: 0x10003CCBC, symSize: 0x274 }
  - { offsetInCU: 0x1B469, offset: 0x41DA9, size: 0x8, addend: 0x0, symName: __ZNSt3__14pairINS_16reverse_iteratorIPjEES3_EC1B8ue170006IS3_S3_LPv0EEEOT_OT0_, symObjAddr: 0x1E658, symBinAddr: 0x10003CF30, symSize: 0x3C }
  - { offsetInCU: 0x1B4C6, offset: 0x41E06, size: 0x8, addend: 0x0, symName: __ZNSt3__14pairINS_16reverse_iteratorIPjEES3_EC2B8ue170006IS3_S3_LPv0EEEOT_OT0_, symObjAddr: 0x1E694, symBinAddr: 0x10003CF6C, symSize: 0x54 }
  - { offsetInCU: 0x1B523, offset: 0x41E63, size: 0x8, addend: 0x0, symName: __ZNSt3__118__unwrap_iter_implINS_16reverse_iteratorIPjEELb0EE8__rewrapB8ue170006ES3_S3_, symObjAddr: 0x1E6E8, symBinAddr: 0x10003CFC0, symSize: 0x2E0 }
  - { offsetInCU: 0x1B559, offset: 0x41E99, size: 0x8, addend: 0x0, symName: __ZNSt3__116reverse_iteratorIPjEC2B8ue170006ES1_, symObjAddr: 0x1E9C8, symBinAddr: 0x10003D2A0, symSize: 0xB8 }
  - { offsetInCU: 0x1B58F, offset: 0x41ECF, size: 0x8, addend: 0x0, symName: __ZNSt3__114__split_bufferIjRNS_9allocatorIjEEED2Ev, symObjAddr: 0x1EA80, symBinAddr: 0x10003D358, symSize: 0x104 }
  - { offsetInCU: 0x1B5BA, offset: 0x41EFA, size: 0x8, addend: 0x0, symName: __ZNSt3__114__split_bufferIjRNS_9allocatorIjEEE5clearB8ue170006Ev, symObjAddr: 0x1EB84, symBinAddr: 0x10003D45C, symSize: 0x68 }
  - { offsetInCU: 0x1B5DE, offset: 0x41F1E, size: 0x8, addend: 0x0, symName: __ZNKSt3__114__split_bufferIjRNS_9allocatorIjEEE8capacityB8ue170006Ev, symObjAddr: 0x1EBEC, symBinAddr: 0x10003D4C4, symSize: 0xBC }
  - { offsetInCU: 0x1B602, offset: 0x41F42, size: 0x8, addend: 0x0, symName: __ZNSt3__114__split_bufferIjRNS_9allocatorIjEEE17__destruct_at_endB8ue170006EPj, symObjAddr: 0x1ECA8, symBinAddr: 0x10003D580, symSize: 0x2C }
  - { offsetInCU: 0x1B634, offset: 0x41F74, size: 0x8, addend: 0x0, symName: __ZNSt3__114__split_bufferIjRNS_9allocatorIjEEE17__destruct_at_endB8ue170006EPjNS_17integral_constantIbLb0EEE, symObjAddr: 0x1ECD4, symBinAddr: 0x10003D5AC, symSize: 0x10C }
  - { offsetInCU: 0x1B673, offset: 0x41FB3, size: 0x8, addend: 0x0, symName: __ZNKSt3__114__split_bufferIjRNS_9allocatorIjEEE9__end_capB8ue170006Ev, symObjAddr: 0x1EDE0, symBinAddr: 0x10003D6B8, symSize: 0x28 }
  - { offsetInCU: 0x1B697, offset: 0x41FD7, size: 0x8, addend: 0x0, symName: __ZNKSt3__117__compressed_pairIPjRNS_9allocatorIjEEE5firstB8ue170006Ev, symObjAddr: 0x1EE08, symBinAddr: 0x10003D6E0, symSize: 0x24 }
  - { offsetInCU: 0x1B6BB, offset: 0x41FFB, size: 0x8, addend: 0x0, symName: __ZNSt3__16vectorINS_10shared_ptrI9Texture2DEENS_9allocatorIS3_EEE11__make_iterB8ue170006EPS3_, symObjAddr: 0x1F260, symBinAddr: 0x10003D704, symSize: 0x1FC }
  - { offsetInCU: 0x1B6F0, offset: 0x42030, size: 0x8, addend: 0x0, symName: __ZNSt3__111__wrap_iterIPNS_10shared_ptrI9Texture2DEEEC1B8ue170006ES4_, symObjAddr: 0x1F45C, symBinAddr: 0x10003D900, symSize: 0x34 }
  - { offsetInCU: 0x1B726, offset: 0x42066, size: 0x8, addend: 0x0, symName: __ZNSt3__111__wrap_iterIPNS_10shared_ptrI9Texture2DEEEC2B8ue170006ES4_, symObjAddr: 0x1F490, symBinAddr: 0x10003D934, symSize: 0x70 }
  - { offsetInCU: 0x1B75C, offset: 0x4209C, size: 0x8, addend: 0x0, symName: __ZNSt3__16vectorINS_10shared_ptrI9Texture2DEENS_9allocatorIS3_EEE18__insert_with_sizeB8ue170006INS_11__wrap_iterIPS3_EESA_EESA_NS8_IPKS3_EET_T0_l, symObjAddr: 0x1F500, symBinAddr: 0x10003D9A4, symSize: 0xB6C }
  - { offsetInCU: 0x1B89C, offset: 0x421DC, size: 0x8, addend: 0x0, symName: __ZNSt3__16vectorINS_10shared_ptrI9Texture2DEENS_9allocatorIS3_EEE9__end_capB8ue170006Ev, symObjAddr: 0x20404, symBinAddr: 0x10003E8A8, symSize: 0x28 }
  - { offsetInCU: 0x1B8C0, offset: 0x42200, size: 0x8, addend: 0x0, symName: __ZNSt3__16vectorINS_10shared_ptrI9Texture2DEENS_9allocatorIS3_EEE18__construct_at_endINS_11__wrap_iterIPS3_EESA_EEvT_T0_m, symObjAddr: 0x206EC, symBinAddr: 0x10003EB90, symSize: 0x548 }
  - { offsetInCU: 0x1B943, offset: 0x42283, size: 0x8, addend: 0x0, symName: __ZNSt3__16vectorINS_10shared_ptrI9Texture2DEENS_9allocatorIS3_EEE12__move_rangeEPS3_S7_S7_, symObjAddr: 0x20C34, symBinAddr: 0x10003F0D8, symSize: 0x450 }
  - { offsetInCU: 0x1BA0E, offset: 0x4234E, size: 0x8, addend: 0x0, symName: __ZNKSt3__16vectorINS_10shared_ptrI9Texture2DEENS_9allocatorIS3_EEE11__recommendB8ue170006Em, symObjAddr: 0x214AC, symBinAddr: 0x10003F950, symSize: 0x384 }
  - { offsetInCU: 0x1BA6A, offset: 0x423AA, size: 0x8, addend: 0x0, symName: __ZNSt3__114__split_bufferINS_10shared_ptrI9Texture2DEERNS_9allocatorIS3_EEEC1EmmS6_, symObjAddr: 0x21830, symBinAddr: 0x10003FCD4, symSize: 0x44 }
  - { offsetInCU: 0x1BABF, offset: 0x423FF, size: 0x8, addend: 0x0, symName: __ZNSt3__114__split_bufferINS_10shared_ptrI9Texture2DEERNS_9allocatorIS3_EEE28__construct_at_end_with_sizeINS_11__wrap_iterIPS3_EEEEvT_m, symObjAddr: 0x21874, symBinAddr: 0x10003FD18, symSize: 0x478 }
  - { offsetInCU: 0x1BB24, offset: 0x42464, size: 0x8, addend: 0x0, symName: __ZNSt3__114__split_bufferINS_10shared_ptrI9Texture2DEERNS_9allocatorIS3_EEED1Ev, symObjAddr: 0x22364, symBinAddr: 0x100040808, symSize: 0x2C }
  - { offsetInCU: 0x1BB4F, offset: 0x4248F, size: 0x8, addend: 0x0, symName: __ZNKSt3__111__wrap_iterIPKNS_10shared_ptrI9Texture2DEEE4baseB8ue170006Ev, symObjAddr: 0x22390, symBinAddr: 0x100040834, symSize: 0x60 }
  - { offsetInCU: 0x1BB73, offset: 0x424B3, size: 0x8, addend: 0x0, symName: __ZNSt3__117__compressed_pairIPNS_10shared_ptrI9Texture2DEENS_9allocatorIS3_EEE5firstB8ue170006Ev, symObjAddr: 0x223F0, symBinAddr: 0x100040894, symSize: 0x24 }
  - { offsetInCU: 0x1BB97, offset: 0x424D7, size: 0x8, addend: 0x0, symName: __ZNSt3__122__compressed_pair_elemIPNS_10shared_ptrI9Texture2DEELi0ELb0EE5__getB8ue170006Ev, symObjAddr: 0x22414, symBinAddr: 0x1000408B8, symSize: 0x14 }
  - { offsetInCU: 0x1BBBB, offset: 0x424FB, size: 0x8, addend: 0x0, symName: __ZNSt3__111__wrap_iterIPNS_10shared_ptrI9Texture2DEEEpLB8ue170006El, symObjAddr: 0x22468, symBinAddr: 0x10004090C, symSize: 0x78 }
  - { offsetInCU: 0x1BC06, offset: 0x42546, size: 0x8, addend: 0x0, symName: __ZNSt3__16vectorINS_10shared_ptrI9Texture2DEENS_9allocatorIS3_EEE21_ConstructTransactionC1B8ue170006ERS6_m, symObjAddr: 0x224E0, symBinAddr: 0x100040984, symSize: 0x3C }
  - { offsetInCU: 0x1BC4C, offset: 0x4258C, size: 0x8, addend: 0x0, symName: __ZNSt3__16vectorINS_10shared_ptrI9Texture2DEENS_9allocatorIS3_EEE21_ConstructTransactionD1B8ue170006Ev, symObjAddr: 0x229B4, symBinAddr: 0x100040E58, symSize: 0x2C }
  - { offsetInCU: 0x1BC74, offset: 0x425B4, size: 0x8, addend: 0x0, symName: __ZNSt3__16vectorINS_10shared_ptrI9Texture2DEENS_9allocatorIS3_EEE21_ConstructTransactionC2B8ue170006ERS6_m, symObjAddr: 0x229E0, symBinAddr: 0x100040E84, symSize: 0x1D0 }
  - { offsetInCU: 0x1BCBA, offset: 0x425FA, size: 0x8, addend: 0x0, symName: __ZNKSt3__16vectorINS_10shared_ptrI9Texture2DEENS_9allocatorIS3_EEE19__annotate_increaseB8ue170006Em, symObjAddr: 0x22BB0, symBinAddr: 0x100041054, symSize: 0xD8 }
  - { offsetInCU: 0x1BD0B, offset: 0x4264B, size: 0x8, addend: 0x0, symName: __ZNSt3__14pairIPNS_10shared_ptrI9Texture2DEES4_EC1B8ue170006IS4_S4_LPv0EEEOT_OT0_, symObjAddr: 0x23B68, symBinAddr: 0x10004200C, symSize: 0x3C }
  - { offsetInCU: 0x1BD68, offset: 0x426A8, size: 0x8, addend: 0x0, symName: __ZNSt3__14pairIPNS_10shared_ptrI9Texture2DEES4_EC2B8ue170006IS4_S4_LPv0EEEOT_OT0_, symObjAddr: 0x23BA4, symBinAddr: 0x100042048, symSize: 0x138 }
  - { offsetInCU: 0x1BDC5, offset: 0x42705, size: 0x8, addend: 0x0, symName: __ZNSt3__118__unwrap_iter_implINS_11__wrap_iterIPNS_10shared_ptrI9Texture2DEEEELb1EE8__unwrapB8ue170006ES6_, symObjAddr: 0x23CDC, symBinAddr: 0x100042180, symSize: 0x1F0 }
  - { offsetInCU: 0x1BDF1, offset: 0x42731, size: 0x8, addend: 0x0, symName: __ZNSt3__119__to_address_helperINS_11__wrap_iterIPNS_10shared_ptrI9Texture2DEEEEvE6__callB8ue170006ERKS6_, symObjAddr: 0x23EF0, symBinAddr: 0x100042394, symSize: 0x200 }
  - { offsetInCU: 0x1BE15, offset: 0x42755, size: 0x8, addend: 0x0, symName: __ZNSt3__114pointer_traitsINS_11__wrap_iterIPNS_10shared_ptrI9Texture2DEEEEE10to_addressB8ue170006ES6_, symObjAddr: 0x240F0, symBinAddr: 0x100042594, symSize: 0x1F4 }
  - { offsetInCU: 0x1BE3C, offset: 0x4277C, size: 0x8, addend: 0x0, symName: __ZNSt3__129_AllocatorDestroyRangeReverseINS_9allocatorINS_10shared_ptrI9Texture2DEEEEPS4_EC1B8ue170006ERS5_RS6_S9_, symObjAddr: 0x244DC, symBinAddr: 0x100042980, symSize: 0x44 }
  - { offsetInCU: 0x1BE91, offset: 0x427D1, size: 0x8, addend: 0x0, symName: __ZNSt3__116allocator_traitsINS_9allocatorINS_10shared_ptrI9Texture2DEEEEE9constructB8ue170006IS4_JRS4_EvEEvRS5_PT_DpOT0_, symObjAddr: 0x24520, symBinAddr: 0x1000429C4, symSize: 0x34 }
  - { offsetInCU: 0x1BEE8, offset: 0x42828, size: 0x8, addend: 0x0, symName: __ZNSt3__128__exception_guard_exceptionsINS_29_AllocatorDestroyRangeReverseINS_9allocatorINS_10shared_ptrI9Texture2DEEEEPS5_EEE10__completeB8ue170006Ev, symObjAddr: 0x24554, symBinAddr: 0x1000429F8, symSize: 0x8C }
  - { offsetInCU: 0x1BF0C, offset: 0x4284C, size: 0x8, addend: 0x0, symName: __ZNSt3__128__exception_guard_exceptionsINS_29_AllocatorDestroyRangeReverseINS_9allocatorINS_10shared_ptrI9Texture2DEEEEPS5_EEED1B8ue170006Ev, symObjAddr: 0x245E0, symBinAddr: 0x100042A84, symSize: 0x2C }
  - { offsetInCU: 0x1BF34, offset: 0x42874, size: 0x8, addend: 0x0, symName: __ZNSt3__128__exception_guard_exceptionsINS_29_AllocatorDestroyRangeReverseINS_9allocatorINS_10shared_ptrI9Texture2DEEEEPS5_EEEC1B8ue170006ES8_, symObjAddr: 0x2460C, symBinAddr: 0x100042AB0, symSize: 0x34 }
  - { offsetInCU: 0x1BF6B, offset: 0x428AB, size: 0x8, addend: 0x0, symName: __ZNSt3__128__exception_guard_exceptionsINS_29_AllocatorDestroyRangeReverseINS_9allocatorINS_10shared_ptrI9Texture2DEEEEPS5_EEEC2B8ue170006ES8_, symObjAddr: 0x24640, symBinAddr: 0x100042AE4, symSize: 0xA4 }
  - { offsetInCU: 0x1BFA2, offset: 0x428E2, size: 0x8, addend: 0x0, symName: __ZNSt3__129_AllocatorDestroyRangeReverseINS_9allocatorINS_10shared_ptrI9Texture2DEEEEPS4_EC2B8ue170006ERS5_RS6_S9_, symObjAddr: 0x246E4, symBinAddr: 0x100042B88, symSize: 0x104 }
  - { offsetInCU: 0x1BFF7, offset: 0x42937, size: 0x8, addend: 0x0, symName: __ZNSt3__19allocatorINS_10shared_ptrI9Texture2DEEE9constructB8ue170006IS3_JRS3_EEEvPT_DpOT0_, symObjAddr: 0x247E8, symBinAddr: 0x100042C8C, symSize: 0x30 }
  - { offsetInCU: 0x1C04B, offset: 0x4298B, size: 0x8, addend: 0x0, symName: __ZNSt3__110shared_ptrI9Texture2DEC1B8ue170006ERKS2_, symObjAddr: 0x24818, symBinAddr: 0x100042CBC, symSize: 0x34 }
  - { offsetInCU: 0x1C082, offset: 0x429C2, size: 0x8, addend: 0x0, symName: __ZNSt3__110shared_ptrI9Texture2DEC2B8ue170006ERKS2_, symObjAddr: 0x2484C, symBinAddr: 0x100042CF0, symSize: 0x1CC }
  - { offsetInCU: 0x1C0B9, offset: 0x429F9, size: 0x8, addend: 0x0, symName: __ZNSt3__128__exception_guard_exceptionsINS_29_AllocatorDestroyRangeReverseINS_9allocatorINS_10shared_ptrI9Texture2DEEEEPS5_EEED2B8ue170006Ev, symObjAddr: 0x24A18, symBinAddr: 0x100042EBC, symSize: 0xBC }
  - { offsetInCU: 0x1C0E1, offset: 0x42A21, size: 0x8, addend: 0x0, symName: __ZNKSt3__129_AllocatorDestroyRangeReverseINS_9allocatorINS_10shared_ptrI9Texture2DEEEEPS4_EclB8ue170006Ev, symObjAddr: 0x24AD4, symBinAddr: 0x100042F78, symSize: 0x39C }
  - { offsetInCU: 0x1C106, offset: 0x42A46, size: 0x8, addend: 0x0, symName: __ZNSt3__116reverse_iteratorIPNS_10shared_ptrI9Texture2DEEEC1B8ue170006ES4_, symObjAddr: 0x25128, symBinAddr: 0x1000435CC, symSize: 0x34 }
  - { offsetInCU: 0x1C13C, offset: 0x42A7C, size: 0x8, addend: 0x0, symName: __ZNSt3__116reverse_iteratorIPNS_10shared_ptrI9Texture2DEEEppB8ue170006Ev, symObjAddr: 0x251C8, symBinAddr: 0x10004366C, symSize: 0x6C }
  - { offsetInCU: 0x1C160, offset: 0x42AA0, size: 0x8, addend: 0x0, symName: __ZNKSt3__116reverse_iteratorIPNS_10shared_ptrI9Texture2DEEE4baseB8ue170006Ev, symObjAddr: 0x25234, symBinAddr: 0x1000436D8, symSize: 0x64 }
  - { offsetInCU: 0x1C189, offset: 0x42AC9, size: 0x8, addend: 0x0, symName: __ZNSt3__119__to_address_helperINS_16reverse_iteratorIPNS_10shared_ptrI9Texture2DEEEEvE6__callB8ue170006ERKS6_, symObjAddr: 0x25298, symBinAddr: 0x10004373C, symSize: 0x44 }
  - { offsetInCU: 0x1C1AC, offset: 0x42AEC, size: 0x8, addend: 0x0, symName: __ZNKSt3__116reverse_iteratorIPNS_10shared_ptrI9Texture2DEEEptB8ue170006Ev, symObjAddr: 0x252DC, symBinAddr: 0x100043780, symSize: 0x24 }
  - { offsetInCU: 0x1C1D0, offset: 0x42B10, size: 0x8, addend: 0x0, symName: __ZNKSt3__116reverse_iteratorIPNS_10shared_ptrI9Texture2DEEEdeB8ue170006Ev, symObjAddr: 0x25300, symBinAddr: 0x1000437A4, symSize: 0x74 }
  - { offsetInCU: 0x1C202, offset: 0x42B42, size: 0x8, addend: 0x0, symName: __ZNSt3__116reverse_iteratorIPNS_10shared_ptrI9Texture2DEEEC2B8ue170006ES4_, symObjAddr: 0x25374, symBinAddr: 0x100043818, symSize: 0xB8 }
  - { offsetInCU: 0x1C238, offset: 0x42B78, size: 0x8, addend: 0x0, symName: __ZNSt3__118__unwrap_iter_implIPNS_10shared_ptrI9Texture2DEELb1EE8__unwrapB8ue170006ES4_, symObjAddr: 0x2542C, symBinAddr: 0x1000438D0, symSize: 0x24 }
  - { offsetInCU: 0x1C25B, offset: 0x42B9B, size: 0x8, addend: 0x0, symName: __ZNSt3__118__unwrap_iter_implIPNS_10shared_ptrI9Texture2DEELb1EE8__rewrapB8ue170006ES4_S4_, symObjAddr: 0x25450, symBinAddr: 0x1000438F4, symSize: 0x50 }
  - { offsetInCU: 0x1C28C, offset: 0x42BCC, size: 0x8, addend: 0x0, symName: __ZNSt3__16vectorINS_10shared_ptrI9Texture2DEENS_9allocatorIS3_EEE21_ConstructTransactionD2B8ue170006Ev, symObjAddr: 0x254A0, symBinAddr: 0x100043944, symSize: 0x278 }
  - { offsetInCU: 0x1C2B4, offset: 0x42BF4, size: 0x8, addend: 0x0, symName: __ZNKSt3__16vectorINS_10shared_ptrI9Texture2DEENS_9allocatorIS3_EEE17__annotate_shrinkB8ue170006Em, symObjAddr: 0x25718, symBinAddr: 0x100043BBC, symSize: 0xC8 }
  - { offsetInCU: 0x1C2E7, offset: 0x42C27, size: 0x8, addend: 0x0, symName: __ZNSt3__116allocator_traitsINS_9allocatorINS_10shared_ptrI9Texture2DEEEEE9constructB8ue170006IS4_JS4_EvEEvRS5_PT_DpOT0_, symObjAddr: 0x257E0, symBinAddr: 0x100043C84, symSize: 0x34 }
  - { offsetInCU: 0x1C33E, offset: 0x42C7E, size: 0x8, addend: 0x0, symName: __ZNSt3__19allocatorINS_10shared_ptrI9Texture2DEEE9constructB8ue170006IS3_JS3_EEEvPT_DpOT0_, symObjAddr: 0x25A80, symBinAddr: 0x100043F24, symSize: 0x30 }
  - { offsetInCU: 0x1C392, offset: 0x42CD2, size: 0x8, addend: 0x0, symName: __ZNSt3__110shared_ptrI9Texture2DEC1B8ue170006EOS2_, symObjAddr: 0x25AB0, symBinAddr: 0x100043F54, symSize: 0x34 }
  - { offsetInCU: 0x1C3C9, offset: 0x42D09, size: 0x8, addend: 0x0, symName: __ZNSt3__110shared_ptrI9Texture2DEC2B8ue170006EOS2_, symObjAddr: 0x25AE4, symBinAddr: 0x100043F88, symSize: 0x1B8 }
  - { offsetInCU: 0x1C40A, offset: 0x42D4A, size: 0x8, addend: 0x0, symName: __ZNKSt3__120__move_backward_loopINS_17_ClassicAlgPolicyEEclB8ue170006IPNS_10shared_ptrI9Texture2DEES7_S7_EENS_4pairIT_T1_EES9_T0_SA_, symObjAddr: 0x269E8, symBinAddr: 0x100044E8C, symSize: 0x4F0 }
  - { offsetInCU: 0x1C49F, offset: 0x42DDF, size: 0x8, addend: 0x0, symName: __ZNSt3__18_IterOpsINS_17_ClassicAlgPolicyEE4nextB8ue170006IPNS_10shared_ptrI9Texture2DEEEET_S8_S8_, symObjAddr: 0x26F04, symBinAddr: 0x1000453A8, symSize: 0x18 }
  - { offsetInCU: 0x1C4D6, offset: 0x42E16, size: 0x8, addend: 0x0, symName: __ZNSt3__18_IterOpsINS_17_ClassicAlgPolicyEE11__iter_moveB8ue170006IRPNS_10shared_ptrI9Texture2DEEEENS_9enable_ifIXsr12is_referenceIDTdeclsr3stdE7declvalIRT_EEEEE5valueEDTclsr3stdE4movedeclsr3stdE7declvalISB_EEEEE4typeEOSA_, symObjAddr: 0x26F1C, symBinAddr: 0x1000453C0, symSize: 0x6C }
  - { offsetInCU: 0x1C502, offset: 0x42E42, size: 0x8, addend: 0x0, symName: __ZNSt3__18_IterOpsINS_17_ClassicAlgPolicyEE25__validate_iter_referenceB8ue170006IRPNS_10shared_ptrI9Texture2DEEEEvv, symObjAddr: 0x26F88, symBinAddr: 0x10004542C, symSize: 0x4 }
  - { offsetInCU: 0x1C52A, offset: 0x42E6A, size: 0x8, addend: 0x0, symName: __ZNKSt3__111__copy_loopINS_17_ClassicAlgPolicyEEclB8ue170006IPNS_10shared_ptrI9Texture2DEES7_S7_EENS_4pairIT_T1_EES9_T0_SA_, symObjAddr: 0x27EBC, symBinAddr: 0x100046360, symSize: 0x458 }
  - { offsetInCU: 0x1C5BB, offset: 0x42EFB, size: 0x8, addend: 0x0, symName: __ZNSt3__14pairINS_11__wrap_iterIPNS_10shared_ptrI9Texture2DEEEES5_EC1B8ue170006IS6_S5_LPv0EEEOT_OT0_, symObjAddr: 0x28844, symBinAddr: 0x100046CE8, symSize: 0x3C }
  - { offsetInCU: 0x1C618, offset: 0x42F58, size: 0x8, addend: 0x0, symName: __ZNSt3__14pairINS_11__wrap_iterIPNS_10shared_ptrI9Texture2DEEEES5_EC2B8ue170006IS6_S5_LPv0EEEOT_OT0_, symObjAddr: 0x28880, symBinAddr: 0x100046D24, symSize: 0xD0 }
  - { offsetInCU: 0x1C675, offset: 0x42FB5, size: 0x8, addend: 0x0, symName: __ZNSt3__118__unwrap_iter_implINS_11__wrap_iterIPNS_10shared_ptrI9Texture2DEEEELb1EE8__rewrapB8ue170006ES6_S5_, symObjAddr: 0x28C88, symBinAddr: 0x10004712C, symSize: 0x2D4 }
  - { offsetInCU: 0x1C6AB, offset: 0x42FEB, size: 0x8, addend: 0x0, symName: __ZNKSt3__111__wrap_iterIPNS_10shared_ptrI9Texture2DEEEplB8ue170006El, symObjAddr: 0x28F5C, symBinAddr: 0x100047400, symSize: 0x20C }
  - { offsetInCU: 0x1C6F1, offset: 0x43031, size: 0x8, addend: 0x0, symName: __ZNKSt3__16vectorINS_10shared_ptrI9Texture2DEENS_9allocatorIS3_EEE8max_sizeEv, symObjAddr: 0x29168, symBinAddr: 0x10004760C, symSize: 0x2FC }
  - { offsetInCU: 0x1C718, offset: 0x43058, size: 0x8, addend: 0x0, symName: __ZNKSt3__16vectorINS_10shared_ptrI9Texture2DEENS_9allocatorIS3_EEE20__throw_length_errorB8ue170006Ev, symObjAddr: 0x29464, symBinAddr: 0x100047908, symSize: 0x20 }
  - { offsetInCU: 0x1C746, offset: 0x43086, size: 0x8, addend: 0x0, symName: __ZNSt3__116allocator_traitsINS_9allocatorINS_10shared_ptrI9Texture2DEEEEE8max_sizeB8ue170006IS5_vEEmRKS5_, symObjAddr: 0x29484, symBinAddr: 0x100047928, symSize: 0x24 }
  - { offsetInCU: 0x1C774, offset: 0x430B4, size: 0x8, addend: 0x0, symName: __ZNKSt3__16vectorINS_10shared_ptrI9Texture2DEENS_9allocatorIS3_EEE7__allocB8ue170006Ev, symObjAddr: 0x294A8, symBinAddr: 0x10004794C, symSize: 0x28 }
  - { offsetInCU: 0x1C798, offset: 0x430D8, size: 0x8, addend: 0x0, symName: __ZNKSt3__19allocatorINS_10shared_ptrI9Texture2DEEE8max_sizeB8ue170006Ev, symObjAddr: 0x294D0, symBinAddr: 0x100047974, symSize: 0x14 }
  - { offsetInCU: 0x1C7BC, offset: 0x430FC, size: 0x8, addend: 0x0, symName: __ZNKSt3__117__compressed_pairIPNS_10shared_ptrI9Texture2DEENS_9allocatorIS3_EEE6secondB8ue170006Ev, symObjAddr: 0x294E4, symBinAddr: 0x100047988, symSize: 0x24 }
  - { offsetInCU: 0x1C7E0, offset: 0x43120, size: 0x8, addend: 0x0, symName: __ZNKSt3__122__compressed_pair_elemINS_9allocatorINS_10shared_ptrI9Texture2DEEEELi1ELb1EE5__getB8ue170006Ev, symObjAddr: 0x29508, symBinAddr: 0x1000479AC, symSize: 0x14 }
  - { offsetInCU: 0x1C804, offset: 0x43144, size: 0x8, addend: 0x0, symName: __ZNSt3__114__split_bufferINS_10shared_ptrI9Texture2DEERNS_9allocatorIS3_EEEC2EmmS6_, symObjAddr: 0x2951C, symBinAddr: 0x1000479C0, symSize: 0x520 }
  - { offsetInCU: 0x1C87F, offset: 0x431BF, size: 0x8, addend: 0x0, symName: __ZNSt3__117__compressed_pairIPNS_10shared_ptrI9Texture2DEERNS_9allocatorIS3_EEEC1B8ue170006IDnS7_EEOT_OT0_, symObjAddr: 0x29A3C, symBinAddr: 0x100047EE0, symSize: 0x3C }
  - { offsetInCU: 0x1C8D5, offset: 0x43215, size: 0x8, addend: 0x0, symName: __ZNSt3__114__split_bufferINS_10shared_ptrI9Texture2DEERNS_9allocatorIS3_EEE7__allocB8ue170006Ev, symObjAddr: 0x29D04, symBinAddr: 0x1000481A8, symSize: 0x28 }
  - { offsetInCU: 0x1C8F9, offset: 0x43239, size: 0x8, addend: 0x0, symName: __ZNSt3__114__split_bufferINS_10shared_ptrI9Texture2DEERNS_9allocatorIS3_EEE9__end_capB8ue170006Ev, symObjAddr: 0x29D2C, symBinAddr: 0x1000481D0, symSize: 0x28 }
  - { offsetInCU: 0x1C91D, offset: 0x4325D, size: 0x8, addend: 0x0, symName: __ZNSt3__117__compressed_pairIPNS_10shared_ptrI9Texture2DEERNS_9allocatorIS3_EEEC2B8ue170006IDnS7_EEOT_OT0_, symObjAddr: 0x29D54, symBinAddr: 0x1000481F8, symSize: 0x48 }
  - { offsetInCU: 0x1C973, offset: 0x432B3, size: 0x8, addend: 0x0, symName: __ZNSt3__122__compressed_pair_elemIRNS_9allocatorINS_10shared_ptrI9Texture2DEEEELi1ELb0EEC2B8ue170006IS6_vEEOT_, symObjAddr: 0x29D9C, symBinAddr: 0x100048240, symSize: 0x70 }
  - { offsetInCU: 0x1C9B3, offset: 0x432F3, size: 0x8, addend: 0x0, symName: __ZNSt3__19allocatorINS_10shared_ptrI9Texture2DEEE8allocateB8ue170006Em, symObjAddr: 0x29E0C, symBinAddr: 0x1000482B0, symSize: 0x5C }
  - { offsetInCU: 0x1C9E5, offset: 0x43325, size: 0x8, addend: 0x0, symName: __ZNSt3__117__compressed_pairIPNS_10shared_ptrI9Texture2DEERNS_9allocatorIS3_EEE6secondB8ue170006Ev, symObjAddr: 0x29E68, symBinAddr: 0x10004830C, symSize: 0x28 }
  - { offsetInCU: 0x1CA09, offset: 0x43349, size: 0x8, addend: 0x0, symName: __ZNSt3__122__compressed_pair_elemIRNS_9allocatorINS_10shared_ptrI9Texture2DEEEELi1ELb0EE5__getB8ue170006Ev, symObjAddr: 0x29E90, symBinAddr: 0x100048334, symSize: 0x60 }
  - { offsetInCU: 0x1CA2D, offset: 0x4336D, size: 0x8, addend: 0x0, symName: __ZNSt3__117__compressed_pairIPNS_10shared_ptrI9Texture2DEERNS_9allocatorIS3_EEE5firstB8ue170006Ev, symObjAddr: 0x29EF0, symBinAddr: 0x100048394, symSize: 0x24 }
  - { offsetInCU: 0x1CA5B, offset: 0x4339B, size: 0x8, addend: 0x0, symName: __ZNSt3__114__split_bufferINS_10shared_ptrI9Texture2DEERNS_9allocatorIS3_EEE21_ConstructTransactionC1B8ue170006EPPS3_m, symObjAddr: 0x29F14, symBinAddr: 0x1000483B8, symSize: 0x3C }
  - { offsetInCU: 0x1CA9F, offset: 0x433DF, size: 0x8, addend: 0x0, symName: __ZNKSt3__111__wrap_iterIPNS_10shared_ptrI9Texture2DEEEdeB8ue170006Ev, symObjAddr: 0x29F50, symBinAddr: 0x1000483F4, symSize: 0x60 }
  - { offsetInCU: 0x1CAC3, offset: 0x43403, size: 0x8, addend: 0x0, symName: __ZNSt3__111__wrap_iterIPNS_10shared_ptrI9Texture2DEEEppB8ue170006Ev, symObjAddr: 0x29FB0, symBinAddr: 0x100048454, symSize: 0x68 }
  - { offsetInCU: 0x1CAE7, offset: 0x43427, size: 0x8, addend: 0x0, symName: __ZNSt3__114__split_bufferINS_10shared_ptrI9Texture2DEERNS_9allocatorIS3_EEE21_ConstructTransactionD1B8ue170006Ev, symObjAddr: 0x2A018, symBinAddr: 0x1000484BC, symSize: 0x2C }
  - { offsetInCU: 0x1CB0F, offset: 0x4344F, size: 0x8, addend: 0x0, symName: __ZNSt3__114__split_bufferINS_10shared_ptrI9Texture2DEERNS_9allocatorIS3_EEE21_ConstructTransactionC2B8ue170006EPPS3_m, symObjAddr: 0x2A044, symBinAddr: 0x1000484E8, symSize: 0x184 }
  - { offsetInCU: 0x1CB53, offset: 0x43493, size: 0x8, addend: 0x0, symName: __ZNSt3__114__split_bufferINS_10shared_ptrI9Texture2DEERNS_9allocatorIS3_EEE21_ConstructTransactionD2B8ue170006Ev, symObjAddr: 0x2A1C8, symBinAddr: 0x10004866C, symSize: 0xE0 }
  - { offsetInCU: 0x1CB7B, offset: 0x434BB, size: 0x8, addend: 0x0, symName: __ZNKSt3__16vectorINS_10shared_ptrI9Texture2DEENS_9allocatorIS3_EEE14__annotate_newB8ue170006Em, symObjAddr: 0x2AE30, symBinAddr: 0x1000492D4, symSize: 0xC0 }
  - { offsetInCU: 0x1CBAE, offset: 0x434EE, size: 0x8, addend: 0x0, symName: __ZNSt3__129_AllocatorDestroyRangeReverseINS_9allocatorINS_10shared_ptrI9Texture2DEEEENS_16reverse_iteratorIPS4_EEEC1B8ue170006ERS5_RS8_SB_, symObjAddr: 0x2B0E8, symBinAddr: 0x10004958C, symSize: 0x44 }
  - { offsetInCU: 0x1CC03, offset: 0x43543, size: 0x8, addend: 0x0, symName: __ZNSt3__128__exception_guard_exceptionsINS_29_AllocatorDestroyRangeReverseINS_9allocatorINS_10shared_ptrI9Texture2DEEEENS_16reverse_iteratorIPS5_EEEEE10__completeB8ue170006Ev, symObjAddr: 0x2B12C, symBinAddr: 0x1000495D0, symSize: 0x8C }
  - { offsetInCU: 0x1CC27, offset: 0x43567, size: 0x8, addend: 0x0, symName: __ZNSt3__128__exception_guard_exceptionsINS_29_AllocatorDestroyRangeReverseINS_9allocatorINS_10shared_ptrI9Texture2DEEEENS_16reverse_iteratorIPS5_EEEEED1B8ue170006Ev, symObjAddr: 0x2B1B8, symBinAddr: 0x10004965C, symSize: 0x2C }
  - { offsetInCU: 0x1CC4F, offset: 0x4358F, size: 0x8, addend: 0x0, symName: __ZNSt3__128__exception_guard_exceptionsINS_29_AllocatorDestroyRangeReverseINS_9allocatorINS_10shared_ptrI9Texture2DEEEENS_16reverse_iteratorIPS5_EEEEEC1B8ue170006ESA_, symObjAddr: 0x2B1E4, symBinAddr: 0x100049688, symSize: 0x34 }
  - { offsetInCU: 0x1CC86, offset: 0x435C6, size: 0x8, addend: 0x0, symName: __ZNSt3__128__exception_guard_exceptionsINS_29_AllocatorDestroyRangeReverseINS_9allocatorINS_10shared_ptrI9Texture2DEEEENS_16reverse_iteratorIPS5_EEEEEC2B8ue170006ESA_, symObjAddr: 0x2B218, symBinAddr: 0x1000496BC, symSize: 0xA4 }
  - { offsetInCU: 0x1CCBD, offset: 0x435FD, size: 0x8, addend: 0x0, symName: __ZNSt3__129_AllocatorDestroyRangeReverseINS_9allocatorINS_10shared_ptrI9Texture2DEEEENS_16reverse_iteratorIPS4_EEEC2B8ue170006ERS5_RS8_SB_, symObjAddr: 0x2B2BC, symBinAddr: 0x100049760, symSize: 0x104 }
  - { offsetInCU: 0x1CD12, offset: 0x43652, size: 0x8, addend: 0x0, symName: __ZNSt3__128__exception_guard_exceptionsINS_29_AllocatorDestroyRangeReverseINS_9allocatorINS_10shared_ptrI9Texture2DEEEENS_16reverse_iteratorIPS5_EEEEED2B8ue170006Ev, symObjAddr: 0x2B3C0, symBinAddr: 0x100049864, symSize: 0xBC }
  - { offsetInCU: 0x1CD3A, offset: 0x4367A, size: 0x8, addend: 0x0, symName: __ZNKSt3__129_AllocatorDestroyRangeReverseINS_9allocatorINS_10shared_ptrI9Texture2DEEEENS_16reverse_iteratorIPS4_EEEclB8ue170006Ev, symObjAddr: 0x2B47C, symBinAddr: 0x100049920, symSize: 0x3A8 }
  - { offsetInCU: 0x1CD5F, offset: 0x4369F, size: 0x8, addend: 0x0, symName: __ZNSt3__116reverse_iteratorINS0_IPNS_10shared_ptrI9Texture2DEEEEEC1B8ue170006ES5_, symObjAddr: 0x2B894, symBinAddr: 0x100049D38, symSize: 0x248 }
  - { offsetInCU: 0x1CD9A, offset: 0x436DA, size: 0x8, addend: 0x0, symName: __ZNSt3__116reverse_iteratorINS0_IPNS_10shared_ptrI9Texture2DEEEEEppB8ue170006Ev, symObjAddr: 0x2BDCC, symBinAddr: 0x10004A270, symSize: 0x30 }
  - { offsetInCU: 0x1CDBE, offset: 0x436FE, size: 0x8, addend: 0x0, symName: __ZNKSt3__116reverse_iteratorINS0_IPNS_10shared_ptrI9Texture2DEEEEE4baseB8ue170006Ev, symObjAddr: 0x2BDFC, symBinAddr: 0x10004A2A0, symSize: 0x20C }
  - { offsetInCU: 0x1CDE8, offset: 0x43728, size: 0x8, addend: 0x0, symName: __ZNSt3__119__to_address_helperINS_16reverse_iteratorINS1_IPNS_10shared_ptrI9Texture2DEEEEEEvE6__callB8ue170006ERKS7_, symObjAddr: 0x2C008, symBinAddr: 0x10004A4AC, symSize: 0x44 }
  - { offsetInCU: 0x1CE0B, offset: 0x4374B, size: 0x8, addend: 0x0, symName: __ZNKSt3__116reverse_iteratorINS0_IPNS_10shared_ptrI9Texture2DEEEEEptB8ue170006Ev, symObjAddr: 0x2C04C, symBinAddr: 0x10004A4F0, symSize: 0x24 }
  - { offsetInCU: 0x1CE2F, offset: 0x4376F, size: 0x8, addend: 0x0, symName: __ZNKSt3__116reverse_iteratorINS0_IPNS_10shared_ptrI9Texture2DEEEEEdeB8ue170006Ev, symObjAddr: 0x2C070, symBinAddr: 0x10004A514, symSize: 0x1EC }
  - { offsetInCU: 0x1CE66, offset: 0x437A6, size: 0x8, addend: 0x0, symName: __ZNSt3__116reverse_iteratorIPNS_10shared_ptrI9Texture2DEEEmmB8ue170006Ev, symObjAddr: 0x2C25C, symBinAddr: 0x10004A700, symSize: 0x6C }
  - { offsetInCU: 0x1CE8A, offset: 0x437CA, size: 0x8, addend: 0x0, symName: __ZNSt3__116reverse_iteratorINS0_IPNS_10shared_ptrI9Texture2DEEEEEC2B8ue170006ES5_, symObjAddr: 0x2C2C8, symBinAddr: 0x10004A76C, symSize: 0x22C }
  - { offsetInCU: 0x1CEC5, offset: 0x43805, size: 0x8, addend: 0x0, symName: __ZNSt3__114__split_bufferINS_10shared_ptrI9Texture2DEERNS_9allocatorIS3_EEED2Ev, symObjAddr: 0x2C4F4, symBinAddr: 0x10004A998, symSize: 0x104 }
  - { offsetInCU: 0x1CEF0, offset: 0x43830, size: 0x8, addend: 0x0, symName: __ZNSt3__114__split_bufferINS_10shared_ptrI9Texture2DEERNS_9allocatorIS3_EEE5clearB8ue170006Ev, symObjAddr: 0x2C5F8, symBinAddr: 0x10004AA9C, symSize: 0x68 }
  - { offsetInCU: 0x1CF14, offset: 0x43854, size: 0x8, addend: 0x0, symName: __ZNKSt3__114__split_bufferINS_10shared_ptrI9Texture2DEERNS_9allocatorIS3_EEE8capacityB8ue170006Ev, symObjAddr: 0x2C660, symBinAddr: 0x10004AB04, symSize: 0xBC }
  - { offsetInCU: 0x1CF38, offset: 0x43878, size: 0x8, addend: 0x0, symName: __ZNSt3__114__split_bufferINS_10shared_ptrI9Texture2DEERNS_9allocatorIS3_EEE17__destruct_at_endB8ue170006EPS3_, symObjAddr: 0x2C71C, symBinAddr: 0x10004ABC0, symSize: 0x2C }
  - { offsetInCU: 0x1CF6A, offset: 0x438AA, size: 0x8, addend: 0x0, symName: __ZNSt3__114__split_bufferINS_10shared_ptrI9Texture2DEERNS_9allocatorIS3_EEE17__destruct_at_endB8ue170006EPS3_NS_17integral_constantIbLb0EEE, symObjAddr: 0x2C748, symBinAddr: 0x10004ABEC, symSize: 0x10C }
  - { offsetInCU: 0x1CFA9, offset: 0x438E9, size: 0x8, addend: 0x0, symName: __ZNKSt3__114__split_bufferINS_10shared_ptrI9Texture2DEERNS_9allocatorIS3_EEE9__end_capB8ue170006Ev, symObjAddr: 0x2C854, symBinAddr: 0x10004ACF8, symSize: 0x28 }
  - { offsetInCU: 0x1CFCD, offset: 0x4390D, size: 0x8, addend: 0x0, symName: __ZNKSt3__117__compressed_pairIPNS_10shared_ptrI9Texture2DEERNS_9allocatorIS3_EEE5firstB8ue170006Ev, symObjAddr: 0x2C87C, symBinAddr: 0x10004AD20, symSize: 0x24 }
  - { offsetInCU: 0x1CFF1, offset: 0x43931, size: 0x8, addend: 0x0, symName: __ZNKSt3__112__hash_tableINS_17__hash_value_typeINS_12basic_stringIcNS_11char_traitsIcEENS_9allocatorIcEEEENS_10shared_ptrI9Texture2DEEEENS_22__unordered_map_hasherIS7_SB_NS_4hashIS7_EENS_8equal_toIS7_EELb1EEENS_21__unordered_map_equalIS7_SB_SG_SE_Lb1EEENS5_ISB_EEE14__count_uniqueIS7_EEmRKT_, symObjAddr: 0x2CB5C, symBinAddr: 0x10004B000, symSize: 0x2C0 }
  - { offsetInCU: 0x1D031, offset: 0x43971, size: 0x8, addend: 0x0, symName: __ZNKSt3__112__hash_tableINS_17__hash_value_typeINS_12basic_stringIcNS_11char_traitsIcEENS_9allocatorIcEEEENS_10shared_ptrI9Texture2DEEEENS_22__unordered_map_hasherIS7_SB_NS_4hashIS7_EENS_8equal_toIS7_EELb1EEENS_21__unordered_map_equalIS7_SB_SG_SE_Lb1EEENS5_ISB_EEE4findIS7_EENS_21__hash_const_iteratorIPNS_11__hash_nodeISB_PvEEEERKT_, symObjAddr: 0x2CE50, symBinAddr: 0x10004B2F4, symSize: 0x48C }
  - { offsetInCU: 0x1D0BC, offset: 0x439FC, size: 0x8, addend: 0x0, symName: __ZNKSt3__112__hash_tableINS_17__hash_value_typeINS_12basic_stringIcNS_11char_traitsIcEENS_9allocatorIcEEEENS_10shared_ptrI9Texture2DEEEENS_22__unordered_map_hasherIS7_SB_NS_4hashIS7_EENS_8equal_toIS7_EELb1EEENS_21__unordered_map_equalIS7_SB_SG_SE_Lb1EEENS5_ISB_EEE3endEv, symObjAddr: 0x2D2DC, symBinAddr: 0x10004B780, symSize: 0x1F8 }
  - { offsetInCU: 0x1D0E3, offset: 0x43A23, size: 0x8, addend: 0x0, symName: __ZNKSt3__112__hash_tableINS_17__hash_value_typeINS_12basic_stringIcNS_11char_traitsIcEENS_9allocatorIcEEEENS_10shared_ptrI9Texture2DEEEENS_22__unordered_map_hasherIS7_SB_NS_4hashIS7_EENS_8equal_toIS7_EELb1EEENS_21__unordered_map_equalIS7_SB_SG_SE_Lb1EEENS5_ISB_EEE13hash_functionB8ue170006Ev, symObjAddr: 0x2D58C, symBinAddr: 0x10004BA30, symSize: 0x28 }
  - { offsetInCU: 0x1D107, offset: 0x43A47, size: 0x8, addend: 0x0, symName: __ZNKSt3__122__unordered_map_hasherINS_12basic_stringIcNS_11char_traitsIcEENS_9allocatorIcEEEENS_17__hash_value_typeIS6_NS_10shared_ptrI9Texture2DEEEENS_4hashIS6_EENS_8equal_toIS6_EELb1EEclB8ue170006ERKS6_, symObjAddr: 0x2D5B4, symBinAddr: 0x10004BA58, symSize: 0x2C }
  - { offsetInCU: 0x1D13A, offset: 0x43A7A, size: 0x8, addend: 0x0, symName: __ZNKSt3__112__hash_tableINS_17__hash_value_typeINS_12basic_stringIcNS_11char_traitsIcEENS_9allocatorIcEEEENS_10shared_ptrI9Texture2DEEEENS_22__unordered_map_hasherIS7_SB_NS_4hashIS7_EENS_8equal_toIS7_EELb1EEENS_21__unordered_map_equalIS7_SB_SG_SE_Lb1EEENS5_ISB_EEE12bucket_countB8ue170006Ev, symObjAddr: 0x2D5E0, symBinAddr: 0x10004BA84, symSize: 0x28 }
  - { offsetInCU: 0x1D15E, offset: 0x43A9E, size: 0x8, addend: 0x0, symName: __ZNKSt3__110unique_ptrIA_PNS_16__hash_node_baseIPNS_11__hash_nodeINS_17__hash_value_typeINS_12basic_stringIcNS_11char_traitsIcEENS_9allocatorIcEEEENS_10shared_ptrI9Texture2DEEEEPvEEEENS_25__bucket_list_deallocatorINS7_ISI_EEEEEixB8ue170006Em, symObjAddr: 0x2D6A0, symBinAddr: 0x10004BB44, symSize: 0x78 }
  - { offsetInCU: 0x1D191, offset: 0x43AD1, size: 0x8, addend: 0x0, symName: __ZNKSt3__116__hash_node_baseIPNS_11__hash_nodeINS_17__hash_value_typeINS_12basic_stringIcNS_11char_traitsIcEENS_9allocatorIcEEEENS_10shared_ptrI9Texture2DEEEEPvEEE6__hashB8ue170006Ev, symObjAddr: 0x2D718, symBinAddr: 0x10004BBBC, symSize: 0x64 }
  - { offsetInCU: 0x1D1B5, offset: 0x43AF5, size: 0x8, addend: 0x0, symName: __ZNKSt3__112__hash_tableINS_17__hash_value_typeINS_12basic_stringIcNS_11char_traitsIcEENS_9allocatorIcEEEENS_10shared_ptrI9Texture2DEEEENS_22__unordered_map_hasherIS7_SB_NS_4hashIS7_EENS_8equal_toIS7_EELb1EEENS_21__unordered_map_equalIS7_SB_SG_SE_Lb1EEENS5_ISB_EEE6key_eqB8ue170006Ev, symObjAddr: 0x2D77C, symBinAddr: 0x10004BC20, symSize: 0x28 }
  - { offsetInCU: 0x1D1D9, offset: 0x43B19, size: 0x8, addend: 0x0, symName: __ZNKSt3__121__unordered_map_equalINS_12basic_stringIcNS_11char_traitsIcEENS_9allocatorIcEEEENS_17__hash_value_typeIS6_NS_10shared_ptrI9Texture2DEEEENS_8equal_toIS6_EENS_4hashIS6_EELb1EEclB8ue170006ERKSB_RKS6_, symObjAddr: 0x2D7A4, symBinAddr: 0x10004BC48, symSize: 0x48 }
  - { offsetInCU: 0x1D21B, offset: 0x43B5B, size: 0x8, addend: 0x0, symName: __ZNSt3__116__hash_node_baseIPNS_11__hash_nodeINS_17__hash_value_typeINS_12basic_stringIcNS_11char_traitsIcEENS_9allocatorIcEEEENS_10shared_ptrI9Texture2DEEEEPvEEE8__upcastB8ue170006Ev, symObjAddr: 0x2D7EC, symBinAddr: 0x10004BC90, symSize: 0x24 }
  - { offsetInCU: 0x1D23F, offset: 0x43B7F, size: 0x8, addend: 0x0, symName: __ZNSt3__121__hash_const_iteratorIPNS_11__hash_nodeINS_17__hash_value_typeINS_12basic_stringIcNS_11char_traitsIcEENS_9allocatorIcEEEENS_10shared_ptrI9Texture2DEEEEPvEEEC1B8ue170006EPNS_16__hash_node_baseISF_EE, symObjAddr: 0x2D810, symBinAddr: 0x10004BCB4, symSize: 0x34 }
  - { offsetInCU: 0x1D276, offset: 0x43BB6, size: 0x8, addend: 0x0, symName: __ZNKSt3__117__compressed_pairImNS_22__unordered_map_hasherINS_12basic_stringIcNS_11char_traitsIcEENS_9allocatorIcEEEENS_17__hash_value_typeIS7_NS_10shared_ptrI9Texture2DEEEENS_4hashIS7_EENS_8equal_toIS7_EELb1EEEE6secondB8ue170006Ev, symObjAddr: 0x2D844, symBinAddr: 0x10004BCE8, symSize: 0x24 }
  - { offsetInCU: 0x1D29A, offset: 0x43BDA, size: 0x8, addend: 0x0, symName: __ZNKSt3__122__compressed_pair_elemINS_22__unordered_map_hasherINS_12basic_stringIcNS_11char_traitsIcEENS_9allocatorIcEEEENS_17__hash_value_typeIS7_NS_10shared_ptrI9Texture2DEEEENS_4hashIS7_EENS_8equal_toIS7_EELb1EEELi1ELb1EE5__getB8ue170006Ev, symObjAddr: 0x2D868, symBinAddr: 0x10004BD0C, symSize: 0x14 }
  - { offsetInCU: 0x1D2BE, offset: 0x43BFE, size: 0x8, addend: 0x0, symName: __ZNKSt3__113__string_hashIcNS_9allocatorIcEEEclB8ue170006ERKNS_12basic_stringIcNS_11char_traitsIcEES2_EE, symObjAddr: 0x2D87C, symBinAddr: 0x10004BD20, symSize: 0x70 }
  - { offsetInCU: 0x1D2F1, offset: 0x43C31, size: 0x8, addend: 0x0, symName: __ZNKSt3__121__murmur2_or_cityhashImLm64EEclB8ue170006EPKvm, symObjAddr: 0x2DAD8, symBinAddr: 0x10004BF7C, symSize: 0xE04 }
  - { offsetInCU: 0x1D39B, offset: 0x43CDB, size: 0x8, addend: 0x0, symName: __ZNSt3__121__murmur2_or_cityhashImLm64EE18__hash_len_0_to_16B8ue170006EPKcm, symObjAddr: 0x2E8DC, symBinAddr: 0x10004CD80, symSize: 0x2D8 }
  - { offsetInCU: 0x1D474, offset: 0x43DB4, size: 0x8, addend: 0x0, symName: __ZNSt3__121__murmur2_or_cityhashImLm64EE19__hash_len_17_to_32B8ue170006EPKcm, symObjAddr: 0x2EBB4, symBinAddr: 0x10004D058, symSize: 0x130 }
  - { offsetInCU: 0x1D4DD, offset: 0x43E1D, size: 0x8, addend: 0x0, symName: __ZNSt3__121__murmur2_or_cityhashImLm64EE19__hash_len_33_to_64B8ue170006EPKcm, symObjAddr: 0x2ECE4, symBinAddr: 0x10004D188, symSize: 0x2B8 }
  - { offsetInCU: 0x1D595, offset: 0x43ED5, size: 0x8, addend: 0x0, symName: __ZNSt3__121__murmur2_or_cityhashImLm64EE13__hash_len_16B8ue170006Emm, symObjAddr: 0x2F1B0, symBinAddr: 0x10004D654, symSize: 0x80 }
  - { offsetInCU: 0x1D5F0, offset: 0x43F30, size: 0x8, addend: 0x0, symName: __ZNSt3__121__murmur2_or_cityhashImLm64EE29__weak_hash_len_32_with_seedsB8ue170006EPKcmm, symObjAddr: 0x2F230, symBinAddr: 0x10004D6D4, symSize: 0x270 }
  - { offsetInCU: 0x1D632, offset: 0x43F72, size: 0x8, addend: 0x0, symName: __ZNSt3__121__murmur2_or_cityhashImLm64EE8__rotateB8ue170006Emi, symObjAddr: 0x2F4A0, symBinAddr: 0x10004D944, symSize: 0x64 }
  - { offsetInCU: 0x1D663, offset: 0x43FA3, size: 0x8, addend: 0x0, symName: __ZNSt3__14pairImmEaSB8ue170006EOS1_, symObjAddr: 0x2F504, symBinAddr: 0x10004D9A8, symSize: 0x134 }
  - { offsetInCU: 0x1D696, offset: 0x43FD6, size: 0x8, addend: 0x0, symName: __ZNSt3__121__murmur2_or_cityhashImLm64EE11__shift_mixB8ue170006Em, symObjAddr: 0x2F76C, symBinAddr: 0x10004DC10, symSize: 0x1C }
  - { offsetInCU: 0x1D6B9, offset: 0x43FF9, size: 0x8, addend: 0x0, symName: __ZNSt3__121__murmur2_or_cityhashImLm64EE22__rotate_by_at_least_1B8ue170006Emi, symObjAddr: 0x2F788, symBinAddr: 0x10004DC2C, symSize: 0x38 }
  - { offsetInCU: 0x1D6EA, offset: 0x4402A, size: 0x8, addend: 0x0, symName: __ZNSt3__121__murmur2_or_cityhashImLm64EE29__weak_hash_len_32_with_seedsB8ue170006Emmmmmm, symObjAddr: 0x2FA00, symBinAddr: 0x10004DEA4, symSize: 0x398 }
  - { offsetInCU: 0x1D76D, offset: 0x440AD, size: 0x8, addend: 0x0, symName: __ZNSt3__14pairImmEC1B8ue170006ImmLPv0EEEOT_OT0_, symObjAddr: 0x2FD98, symBinAddr: 0x10004E23C, symSize: 0x3C }
  - { offsetInCU: 0x1D7CA, offset: 0x4410A, size: 0x8, addend: 0x0, symName: __ZNSt3__14pairImmEC2B8ue170006ImmLPv0EEEOT_OT0_, symObjAddr: 0x2FDD4, symBinAddr: 0x10004E278, symSize: 0x138 }
  - { offsetInCU: 0x1D827, offset: 0x44167, size: 0x8, addend: 0x0, symName: __ZNKSt3__110unique_ptrIA_PNS_16__hash_node_baseIPNS_11__hash_nodeINS_17__hash_value_typeINS_12basic_stringIcNS_11char_traitsIcEENS_9allocatorIcEEEENS_10shared_ptrI9Texture2DEEEEPvEEEENS_25__bucket_list_deallocatorINS7_ISI_EEEEE11get_deleterB8ue170006Ev, symObjAddr: 0x2FF0C, symBinAddr: 0x10004E3B0, symSize: 0x24 }
  - { offsetInCU: 0x1D84B, offset: 0x4418B, size: 0x8, addend: 0x0, symName: __ZNKSt3__125__bucket_list_deallocatorINS_9allocatorIPNS_16__hash_node_baseIPNS_11__hash_nodeINS_17__hash_value_typeINS_12basic_stringIcNS_11char_traitsIcEENS1_IcEEEENS_10shared_ptrI9Texture2DEEEEPvEEEEEEE4sizeB8ue170006Ev, symObjAddr: 0x2FF30, symBinAddr: 0x10004E3D4, symSize: 0x6C }
  - { offsetInCU: 0x1D86F, offset: 0x441AF, size: 0x8, addend: 0x0, symName: __ZNKSt3__117__compressed_pairIPPNS_16__hash_node_baseIPNS_11__hash_nodeINS_17__hash_value_typeINS_12basic_stringIcNS_11char_traitsIcEENS_9allocatorIcEEEENS_10shared_ptrI9Texture2DEEEEPvEEEENS_25__bucket_list_deallocatorINS7_ISI_EEEEE6secondB8ue170006Ev, symObjAddr: 0x2FF9C, symBinAddr: 0x10004E440, symSize: 0x28 }
  - { offsetInCU: 0x1D893, offset: 0x441D3, size: 0x8, addend: 0x0, symName: __ZNKSt3__122__compressed_pair_elemINS_25__bucket_list_deallocatorINS_9allocatorIPNS_16__hash_node_baseIPNS_11__hash_nodeINS_17__hash_value_typeINS_12basic_stringIcNS_11char_traitsIcEENS2_IcEEEENS_10shared_ptrI9Texture2DEEEEPvEEEEEEEELi1ELb0EE5__getB8ue170006Ev, symObjAddr: 0x2FFC4, symBinAddr: 0x10004E468, symSize: 0x14 }
  - { offsetInCU: 0x1D8B7, offset: 0x441F7, size: 0x8, addend: 0x0, symName: __ZNKSt3__117__compressed_pairImNS_9allocatorIPNS_16__hash_node_baseIPNS_11__hash_nodeINS_17__hash_value_typeINS_12basic_stringIcNS_11char_traitsIcEENS1_IcEEEENS_10shared_ptrI9Texture2DEEEEPvEEEEEEE5firstB8ue170006Ev, symObjAddr: 0x2FFD8, symBinAddr: 0x10004E47C, symSize: 0x24 }
  - { offsetInCU: 0x1D8DB, offset: 0x4421B, size: 0x8, addend: 0x0, symName: __ZNKSt3__122__compressed_pair_elemImLi0ELb0EE5__getB8ue170006Ev, symObjAddr: 0x2FFFC, symBinAddr: 0x10004E4A0, symSize: 0x14 }
  - { offsetInCU: 0x1D8FF, offset: 0x4423F, size: 0x8, addend: 0x0, symName: __ZNKSt3__117__compressed_pairIPPNS_16__hash_node_baseIPNS_11__hash_nodeINS_17__hash_value_typeINS_12basic_stringIcNS_11char_traitsIcEENS_9allocatorIcEEEENS_10shared_ptrI9Texture2DEEEEPvEEEENS_25__bucket_list_deallocatorINS7_ISI_EEEEE5firstB8ue170006Ev, symObjAddr: 0x30010, symBinAddr: 0x10004E4B4, symSize: 0x24 }
  - { offsetInCU: 0x1D923, offset: 0x44263, size: 0x8, addend: 0x0, symName: __ZNKSt3__122__compressed_pair_elemIPPNS_16__hash_node_baseIPNS_11__hash_nodeINS_17__hash_value_typeINS_12basic_stringIcNS_11char_traitsIcEENS_9allocatorIcEEEENS_10shared_ptrI9Texture2DEEEEPvEEEELi0ELb0EE5__getB8ue170006Ev, symObjAddr: 0x30034, symBinAddr: 0x10004E4D8, symSize: 0x14 }
  - { offsetInCU: 0x1D947, offset: 0x44287, size: 0x8, addend: 0x0, symName: __ZNKSt3__117__compressed_pairIfNS_21__unordered_map_equalINS_12basic_stringIcNS_11char_traitsIcEENS_9allocatorIcEEEENS_17__hash_value_typeIS7_NS_10shared_ptrI9Texture2DEEEENS_8equal_toIS7_EENS_4hashIS7_EELb1EEEE6secondB8ue170006Ev, symObjAddr: 0x30048, symBinAddr: 0x10004E4EC, symSize: 0x24 }
  - { offsetInCU: 0x1D96B, offset: 0x442AB, size: 0x8, addend: 0x0, symName: __ZNKSt3__122__compressed_pair_elemINS_21__unordered_map_equalINS_12basic_stringIcNS_11char_traitsIcEENS_9allocatorIcEEEENS_17__hash_value_typeIS7_NS_10shared_ptrI9Texture2DEEEENS_8equal_toIS7_EENS_4hashIS7_EELb1EEELi1ELb1EE5__getB8ue170006Ev, symObjAddr: 0x3006C, symBinAddr: 0x10004E510, symSize: 0x14 }
  - { offsetInCU: 0x1D98F, offset: 0x442CF, size: 0x8, addend: 0x0, symName: __ZNKSt3__18equal_toINS_12basic_stringIcNS_11char_traitsIcEENS_9allocatorIcEEEEEclB8ue170006ERKS6_S9_, symObjAddr: 0x30080, symBinAddr: 0x10004E524, symSize: 0x34 }
  - { offsetInCU: 0x1D9D1, offset: 0x44311, size: 0x8, addend: 0x0, symName: __ZNKSt3__117__hash_value_typeINS_12basic_stringIcNS_11char_traitsIcEENS_9allocatorIcEEEENS_10shared_ptrI9Texture2DEEE11__get_valueB8ue170006Ev, symObjAddr: 0x300B4, symBinAddr: 0x10004E558, symSize: 0x24 }
  - { offsetInCU: 0x1D9F5, offset: 0x44335, size: 0x8, addend: 0x0, symName: __ZNSt3__111char_traitsIcE7compareB8ue170006EPKcS3_m, symObjAddr: 0x3030C, symBinAddr: 0x10004E7B0, symSize: 0x34 }
  - { offsetInCU: 0x1DA34, offset: 0x44374, size: 0x8, addend: 0x0, symName: __ZNSt3__114pointer_traitsIPNS_16__hash_node_baseIPNS_11__hash_nodeINS_17__hash_value_typeINS_12basic_stringIcNS_11char_traitsIcEENS_9allocatorIcEEEENS_10shared_ptrI9Texture2DEEEEPvEEEEE10pointer_toB8ue170006ERSH_, symObjAddr: 0x30378, symBinAddr: 0x10004E81C, symSize: 0x14 }
  - { offsetInCU: 0x1DA57, offset: 0x44397, size: 0x8, addend: 0x0, symName: __ZNSt3__121__hash_const_iteratorIPNS_11__hash_nodeINS_17__hash_value_typeINS_12basic_stringIcNS_11char_traitsIcEENS_9allocatorIcEEEENS_10shared_ptrI9Texture2DEEEEPvEEEC2B8ue170006EPNS_16__hash_node_baseISF_EE, symObjAddr: 0x3038C, symBinAddr: 0x10004E830, symSize: 0x70 }
  - { offsetInCU: 0x1DA8E, offset: 0x443CE, size: 0x8, addend: 0x0, symName: __ZNSt3__110shared_ptrI9Texture2DED2B8ue170006Ev, symObjAddr: 0x303FC, symBinAddr: 0x10004E8A0, symSize: 0xC8 }
  - { offsetInCU: 0x1DAB6, offset: 0x443F6, size: 0x8, addend: 0x0, symName: __ZNSt3__110shared_ptrI9Texture2DE4swapB8ue170006ERS2_, symObjAddr: 0x304C4, symBinAddr: 0x10004E968, symSize: 0x44 }
  - { offsetInCU: 0x1DAE9, offset: 0x44429, size: 0x8, addend: 0x0, symName: __ZNSt3__16vectorINS_10shared_ptrI9Texture2DEENS_9allocatorIS3_EEE22__construct_one_at_endB8ue170006IJRKS3_EEEvDpOT_, symObjAddr: 0x30770, symBinAddr: 0x10004EC14, symSize: 0x36C }
  - { offsetInCU: 0x1DB3D, offset: 0x4447D, size: 0x8, addend: 0x0, symName: __ZNSt3__16vectorINS_10shared_ptrI9Texture2DEENS_9allocatorIS3_EEE21__push_back_slow_pathIRKS3_EEvOT_, symObjAddr: 0x30ADC, symBinAddr: 0x10004EF80, symSize: 0x3C0 }
  - { offsetInCU: 0x1DBA2, offset: 0x444E2, size: 0x8, addend: 0x0, symName: __ZNSt3__116allocator_traitsINS_9allocatorINS_10shared_ptrI9Texture2DEEEEE9constructB8ue170006IS4_JRKS4_EvEEvRS5_PT_DpOT0_, symObjAddr: 0x30E9C, symBinAddr: 0x10004F340, symSize: 0x34 }
  - { offsetInCU: 0x1DBF9, offset: 0x44539, size: 0x8, addend: 0x0, symName: __ZNSt3__19allocatorINS_10shared_ptrI9Texture2DEEE9constructB8ue170006IS3_JRKS3_EEEvPT_DpOT0_, symObjAddr: 0x30ED0, symBinAddr: 0x10004F374, symSize: 0x30 }
  - { offsetInCU: 0x1DC61, offset: 0x445A1, size: 0x8, addend: 0x0, symName: __ZNSt3__112__hash_tableINS_17__hash_value_typeINS_12basic_stringIcNS_11char_traitsIcEENS_9allocatorIcEEEENS_10shared_ptrI9Texture2DEEEENS_22__unordered_map_hasherIS7_SB_NS_4hashIS7_EENS_8equal_toIS7_EELb1EEENS_21__unordered_map_equalIS7_SB_SG_SE_Lb1EEENS5_ISB_EEE25__emplace_unique_key_argsIS7_JRKNS_21piecewise_construct_tENS_5tupleIJOS7_EEENSQ_IJEEEEEENS_4pairINS_15__hash_iteratorIPNS_11__hash_nodeISB_PvEEEEbEERKT_DpOT0_, symObjAddr: 0x3146C, symBinAddr: 0x10004F910, symSize: 0xE04 }
  - { offsetInCU: 0x1DD7B, offset: 0x446BB, size: 0x8, addend: 0x0, symName: __ZNKSt3__115__hash_iteratorIPNS_11__hash_nodeINS_17__hash_value_typeINS_12basic_stringIcNS_11char_traitsIcEENS_9allocatorIcEEEENS_10shared_ptrI9Texture2DEEEEPvEEEptB8ue170006Ev, symObjAddr: 0x3246C, symBinAddr: 0x100050910, symSize: 0x6C }
  - { offsetInCU: 0x1DD9F, offset: 0x446DF, size: 0x8, addend: 0x0, symName: __ZNSt3__117__hash_value_typeINS_12basic_stringIcNS_11char_traitsIcEENS_9allocatorIcEEEENS_10shared_ptrI9Texture2DEEE11__get_valueB8ue170006Ev, symObjAddr: 0x324D8, symBinAddr: 0x10005097C, symSize: 0x24 }
  - { offsetInCU: 0x1DDC3, offset: 0x44703, size: 0x8, addend: 0x0, symName: __ZNSt3__112__hash_tableINS_17__hash_value_typeINS_12basic_stringIcNS_11char_traitsIcEENS_9allocatorIcEEEENS_10shared_ptrI9Texture2DEEEENS_22__unordered_map_hasherIS7_SB_NS_4hashIS7_EENS_8equal_toIS7_EELb1EEENS_21__unordered_map_equalIS7_SB_SG_SE_Lb1EEENS5_ISB_EEE13hash_functionB8ue170006Ev, symObjAddr: 0x324FC, symBinAddr: 0x1000509A0, symSize: 0x28 }
  - { offsetInCU: 0x1DDE7, offset: 0x44727, size: 0x8, addend: 0x0, symName: __ZNSt3__112__hash_tableINS_17__hash_value_typeINS_12basic_stringIcNS_11char_traitsIcEENS_9allocatorIcEEEENS_10shared_ptrI9Texture2DEEEENS_22__unordered_map_hasherIS7_SB_NS_4hashIS7_EENS_8equal_toIS7_EELb1EEENS_21__unordered_map_equalIS7_SB_SG_SE_Lb1EEENS5_ISB_EEE6key_eqB8ue170006Ev, symObjAddr: 0x32524, symBinAddr: 0x1000509C8, symSize: 0x28 }
  - { offsetInCU: 0x1DE0B, offset: 0x4474B, size: 0x8, addend: 0x0, symName: __ZNSt3__112__hash_tableINS_17__hash_value_typeINS_12basic_stringIcNS_11char_traitsIcEENS_9allocatorIcEEEENS_10shared_ptrI9Texture2DEEEENS_22__unordered_map_hasherIS7_SB_NS_4hashIS7_EENS_8equal_toIS7_EELb1EEENS_21__unordered_map_equalIS7_SB_SG_SE_Lb1EEENS5_ISB_EEE21__construct_node_hashIRKNS_21piecewise_construct_tEJNS_5tupleIJOS7_EEENSQ_IJEEEEEENS_10unique_ptrINS_11__hash_nodeISB_PvEENS_22__hash_node_destructorINS5_ISX_EEEEEEmOT_DpOT0_, symObjAddr: 0x3254C, symBinAddr: 0x1000509F0, symSize: 0x428 }
  - { offsetInCU: 0x1DEAE, offset: 0x447EE, size: 0x8, addend: 0x0, symName: __ZNSt3__112__hash_tableINS_17__hash_value_typeINS_12basic_stringIcNS_11char_traitsIcEENS_9allocatorIcEEEENS_10shared_ptrI9Texture2DEEEENS_22__unordered_map_hasherIS7_SB_NS_4hashIS7_EENS_8equal_toIS7_EELb1EEENS_21__unordered_map_equalIS7_SB_SG_SE_Lb1EEENS5_ISB_EEE4sizeB8ue170006Ev, symObjAddr: 0x32974, symBinAddr: 0x100050E18, symSize: 0x28 }
  - { offsetInCU: 0x1DED2, offset: 0x44812, size: 0x8, addend: 0x0, symName: __ZNSt3__112__hash_tableINS_17__hash_value_typeINS_12basic_stringIcNS_11char_traitsIcEENS_9allocatorIcEEEENS_10shared_ptrI9Texture2DEEEENS_22__unordered_map_hasherIS7_SB_NS_4hashIS7_EENS_8equal_toIS7_EELb1EEENS_21__unordered_map_equalIS7_SB_SG_SE_Lb1EEENS5_ISB_EEE15max_load_factorB8ue170006Ev, symObjAddr: 0x3299C, symBinAddr: 0x100050E40, symSize: 0x28 }
  - { offsetInCU: 0x1DEF6, offset: 0x44836, size: 0x8, addend: 0x0, symName: __ZNSt3__112__hash_tableINS_17__hash_value_typeINS_12basic_stringIcNS_11char_traitsIcEENS_9allocatorIcEEEENS_10shared_ptrI9Texture2DEEEENS_22__unordered_map_hasherIS7_SB_NS_4hashIS7_EENS_8equal_toIS7_EELb1EEENS_21__unordered_map_equalIS7_SB_SG_SE_Lb1EEENS5_ISB_EEE15__rehash_uniqueB8ue170006Em, symObjAddr: 0x329C4, symBinAddr: 0x100050E68, symSize: 0x2C }
  - { offsetInCU: 0x1DF28, offset: 0x44868, size: 0x8, addend: 0x0, symName: __Z4ceilB8ue170006f, symObjAddr: 0x32A40, symBinAddr: 0x100050EE4, symSize: 0x18 }
  - { offsetInCU: 0x1DF58, offset: 0x44898, size: 0x8, addend: 0x0, symName: __ZNSt3__117__compressed_pairINS_16__hash_node_baseIPNS_11__hash_nodeINS_17__hash_value_typeINS_12basic_stringIcNS_11char_traitsIcEENS_9allocatorIcEEEENS_10shared_ptrI9Texture2DEEEEPvEEEENS7_ISF_EEE5firstB8ue170006Ev, symObjAddr: 0x32A58, symBinAddr: 0x100050EFC, symSize: 0x24 }
  - { offsetInCU: 0x1DF7C, offset: 0x448BC, size: 0x8, addend: 0x0, symName: __ZNSt3__116__hash_node_baseIPNS_11__hash_nodeINS_17__hash_value_typeINS_12basic_stringIcNS_11char_traitsIcEENS_9allocatorIcEEEENS_10shared_ptrI9Texture2DEEEEPvEEE5__ptrB8ue170006Ev, symObjAddr: 0x32A7C, symBinAddr: 0x100050F20, symSize: 0x24 }
  - { offsetInCU: 0x1DFA0, offset: 0x448E0, size: 0x8, addend: 0x0, symName: __ZNKSt3__110unique_ptrINS_11__hash_nodeINS_17__hash_value_typeINS_12basic_stringIcNS_11char_traitsIcEENS_9allocatorIcEEEENS_10shared_ptrI9Texture2DEEEEPvEENS_22__hash_node_destructorINS6_ISE_EEEEEptB8ue170006Ev, symObjAddr: 0x32AA0, symBinAddr: 0x100050F44, symSize: 0x6C }
  - { offsetInCU: 0x1DFC4, offset: 0x44904, size: 0x8, addend: 0x0, symName: __ZNKSt3__110unique_ptrINS_11__hash_nodeINS_17__hash_value_typeINS_12basic_stringIcNS_11char_traitsIcEENS_9allocatorIcEEEENS_10shared_ptrI9Texture2DEEEEPvEENS_22__hash_node_destructorINS6_ISE_EEEEE3getB8ue170006Ev, symObjAddr: 0x32B0C, symBinAddr: 0x100050FB0, symSize: 0x6C }
  - { offsetInCU: 0x1DFE8, offset: 0x44928, size: 0x8, addend: 0x0, symName: __ZNSt3__110unique_ptrINS_11__hash_nodeINS_17__hash_value_typeINS_12basic_stringIcNS_11char_traitsIcEENS_9allocatorIcEEEENS_10shared_ptrI9Texture2DEEEEPvEENS_22__hash_node_destructorINS6_ISE_EEEEE7releaseB8ue170006Ev, symObjAddr: 0x32B78, symBinAddr: 0x10005101C, symSize: 0xB8 }
  - { offsetInCU: 0x1E01C, offset: 0x4495C, size: 0x8, addend: 0x0, symName: __ZNSt3__110unique_ptrINS_11__hash_nodeINS_17__hash_value_typeINS_12basic_stringIcNS_11char_traitsIcEENS_9allocatorIcEEEENS_10shared_ptrI9Texture2DEEEEPvEENS_22__hash_node_destructorINS6_ISE_EEEEED1B8ue170006Ev, symObjAddr: 0x32C30, symBinAddr: 0x1000510D4, symSize: 0x2C }
  - { offsetInCU: 0x1E044, offset: 0x44984, size: 0x8, addend: 0x0, symName: __ZNSt3__115__hash_iteratorIPNS_11__hash_nodeINS_17__hash_value_typeINS_12basic_stringIcNS_11char_traitsIcEENS_9allocatorIcEEEENS_10shared_ptrI9Texture2DEEEEPvEEEC1B8ue170006EPNS_16__hash_node_baseISF_EE, symObjAddr: 0x32C5C, symBinAddr: 0x100051100, symSize: 0x34 }
  - { offsetInCU: 0x1E085, offset: 0x449C5, size: 0x8, addend: 0x0, symName: __ZNSt3__14pairINS_15__hash_iteratorIPNS_11__hash_nodeINS_17__hash_value_typeINS_12basic_stringIcNS_11char_traitsIcEENS_9allocatorIcEEEENS_10shared_ptrI9Texture2DEEEEPvEEEEbEC1B8ue170006ISH_RbLSE_0EEEOT_OT0_, symObjAddr: 0x32C90, symBinAddr: 0x100051134, symSize: 0x3C }
  - { offsetInCU: 0x1E0E2, offset: 0x44A22, size: 0x8, addend: 0x0, symName: __ZNSt3__117__compressed_pairImNS_22__unordered_map_hasherINS_12basic_stringIcNS_11char_traitsIcEENS_9allocatorIcEEEENS_17__hash_value_typeIS7_NS_10shared_ptrI9Texture2DEEEENS_4hashIS7_EENS_8equal_toIS7_EELb1EEEE6secondB8ue170006Ev, symObjAddr: 0x32CCC, symBinAddr: 0x100051170, symSize: 0x24 }
  - { offsetInCU: 0x1E106, offset: 0x44A46, size: 0x8, addend: 0x0, symName: __ZNSt3__122__compressed_pair_elemINS_22__unordered_map_hasherINS_12basic_stringIcNS_11char_traitsIcEENS_9allocatorIcEEEENS_17__hash_value_typeIS7_NS_10shared_ptrI9Texture2DEEEENS_4hashIS7_EENS_8equal_toIS7_EELb1EEELi1ELb1EE5__getB8ue170006Ev, symObjAddr: 0x32CF0, symBinAddr: 0x100051194, symSize: 0x14 }
  - { offsetInCU: 0x1E12A, offset: 0x44A6A, size: 0x8, addend: 0x0, symName: __ZNSt3__117__compressed_pairIfNS_21__unordered_map_equalINS_12basic_stringIcNS_11char_traitsIcEENS_9allocatorIcEEEENS_17__hash_value_typeIS7_NS_10shared_ptrI9Texture2DEEEENS_8equal_toIS7_EENS_4hashIS7_EELb1EEEE6secondB8ue170006Ev, symObjAddr: 0x32D04, symBinAddr: 0x1000511A8, symSize: 0x24 }
  - { offsetInCU: 0x1E14E, offset: 0x44A8E, size: 0x8, addend: 0x0, symName: __ZNSt3__122__compressed_pair_elemINS_21__unordered_map_equalINS_12basic_stringIcNS_11char_traitsIcEENS_9allocatorIcEEEENS_17__hash_value_typeIS7_NS_10shared_ptrI9Texture2DEEEENS_8equal_toIS7_EENS_4hashIS7_EELb1EEELi1ELb1EE5__getB8ue170006Ev, symObjAddr: 0x32D28, symBinAddr: 0x1000511CC, symSize: 0x14 }
  - { offsetInCU: 0x1E172, offset: 0x44AB2, size: 0x8, addend: 0x0, symName: __ZNSt3__112__hash_tableINS_17__hash_value_typeINS_12basic_stringIcNS_11char_traitsIcEENS_9allocatorIcEEEENS_10shared_ptrI9Texture2DEEEENS_22__unordered_map_hasherIS7_SB_NS_4hashIS7_EENS_8equal_toIS7_EELb1EEENS_21__unordered_map_equalIS7_SB_SG_SE_Lb1EEENS5_ISB_EEE12__node_allocB8ue170006Ev, symObjAddr: 0x32D3C, symBinAddr: 0x1000511E0, symSize: 0x28 }
  - { offsetInCU: 0x1E196, offset: 0x44AD6, size: 0x8, addend: 0x0, symName: __ZNSt3__116allocator_traitsINS_9allocatorINS_11__hash_nodeINS_17__hash_value_typeINS_12basic_stringIcNS_11char_traitsIcEENS1_IcEEEENS_10shared_ptrI9Texture2DEEEEPvEEEEE8allocateB8ue170006ERSF_m, symObjAddr: 0x32D64, symBinAddr: 0x100051208, symSize: 0x2C }
  - { offsetInCU: 0x1E1C9, offset: 0x44B09, size: 0x8, addend: 0x0, symName: __ZNSt3__122__hash_node_destructorINS_9allocatorINS_11__hash_nodeINS_17__hash_value_typeINS_12basic_stringIcNS_11char_traitsIcEENS1_IcEEEENS_10shared_ptrI9Texture2DEEEEPvEEEEEC1B8ue170006ERSF_b, symObjAddr: 0x32D90, symBinAddr: 0x100051234, symSize: 0x48 }
  - { offsetInCU: 0x1E214, offset: 0x44B54, size: 0x8, addend: 0x0, symName: __ZNSt3__110unique_ptrINS_11__hash_nodeINS_17__hash_value_typeINS_12basic_stringIcNS_11char_traitsIcEENS_9allocatorIcEEEENS_10shared_ptrI9Texture2DEEEEPvEENS_22__hash_node_destructorINS6_ISE_EEEEEC1B8ue170006ILb1EvEEPSE_NS_16__dependent_typeINS_27__unique_ptr_deleter_sfinaeISH_EEXT_EE20__good_rval_ref_typeE, symObjAddr: 0x32DD8, symBinAddr: 0x10005127C, symSize: 0x3C }
  - { offsetInCU: 0x1E263, offset: 0x44BA3, size: 0x8, addend: 0x0, symName: __ZNSt3__116allocator_traitsINS_9allocatorINS_11__hash_nodeINS_17__hash_value_typeINS_12basic_stringIcNS_11char_traitsIcEENS1_IcEEEENS_10shared_ptrI9Texture2DEEEEPvEEEEE9constructB8ue170006INS_4pairIKS8_SB_EEJRKNS_21piecewise_construct_tENS_5tupleIJOS8_EEENSO_IJEEEEvEEvRSF_PT_DpOT0_, symObjAddr: 0x32E14, symBinAddr: 0x1000512B8, symSize: 0x44 }
  - { offsetInCU: 0x1E2E2, offset: 0x44C22, size: 0x8, addend: 0x0, symName: __ZNSt3__122__hash_key_value_typesINS_17__hash_value_typeINS_12basic_stringIcNS_11char_traitsIcEENS_9allocatorIcEEEENS_10shared_ptrI9Texture2DEEEEE9__get_ptrB8ue170006ERSB_, symObjAddr: 0x32E58, symBinAddr: 0x1000512FC, symSize: 0x24 }
  - { offsetInCU: 0x1E305, offset: 0x44C45, size: 0x8, addend: 0x0, symName: __ZNSt3__110unique_ptrINS_11__hash_nodeINS_17__hash_value_typeINS_12basic_stringIcNS_11char_traitsIcEENS_9allocatorIcEEEENS_10shared_ptrI9Texture2DEEEEPvEENS_22__hash_node_destructorINS6_ISE_EEEEE11get_deleterB8ue170006Ev, symObjAddr: 0x32E7C, symBinAddr: 0x100051320, symSize: 0x24 }
  - { offsetInCU: 0x1E329, offset: 0x44C69, size: 0x8, addend: 0x0, symName: __ZNSt3__117__compressed_pairINS_16__hash_node_baseIPNS_11__hash_nodeINS_17__hash_value_typeINS_12basic_stringIcNS_11char_traitsIcEENS_9allocatorIcEEEENS_10shared_ptrI9Texture2DEEEEPvEEEENS7_ISF_EEE6secondB8ue170006Ev, symObjAddr: 0x32EA0, symBinAddr: 0x100051344, symSize: 0x24 }
  - { offsetInCU: 0x1E34D, offset: 0x44C8D, size: 0x8, addend: 0x0, symName: __ZNSt3__122__compressed_pair_elemINS_9allocatorINS_11__hash_nodeINS_17__hash_value_typeINS_12basic_stringIcNS_11char_traitsIcEENS1_IcEEEENS_10shared_ptrI9Texture2DEEEEPvEEEELi1ELb1EE5__getB8ue170006Ev, symObjAddr: 0x32EC4, symBinAddr: 0x100051368, symSize: 0x14 }
  - { offsetInCU: 0x1E371, offset: 0x44CB1, size: 0x8, addend: 0x0, symName: __ZNSt3__19allocatorINS_11__hash_nodeINS_17__hash_value_typeINS_12basic_stringIcNS_11char_traitsIcEENS0_IcEEEENS_10shared_ptrI9Texture2DEEEEPvEEE8allocateB8ue170006Em, symObjAddr: 0x32ED8, symBinAddr: 0x10005137C, symSize: 0x60 }
  - { offsetInCU: 0x1E3AD, offset: 0x44CED, size: 0x8, addend: 0x0, symName: __ZNSt3__116allocator_traitsINS_9allocatorINS_11__hash_nodeINS_17__hash_value_typeINS_12basic_stringIcNS_11char_traitsIcEENS1_IcEEEENS_10shared_ptrI9Texture2DEEEEPvEEEEE8max_sizeB8ue170006ISF_vEEmRKSF_, symObjAddr: 0x32F38, symBinAddr: 0x1000513DC, symSize: 0x24 }
  - { offsetInCU: 0x1E3DB, offset: 0x44D1B, size: 0x8, addend: 0x0, symName: __ZNKSt3__19allocatorINS_11__hash_nodeINS_17__hash_value_typeINS_12basic_stringIcNS_11char_traitsIcEENS0_IcEEEENS_10shared_ptrI9Texture2DEEEEPvEEE8max_sizeB8ue170006Ev, symObjAddr: 0x32F5C, symBinAddr: 0x100051400, symSize: 0x20 }
  - { offsetInCU: 0x1E3FF, offset: 0x44D3F, size: 0x8, addend: 0x0, symName: __ZNSt3__122__hash_node_destructorINS_9allocatorINS_11__hash_nodeINS_17__hash_value_typeINS_12basic_stringIcNS_11char_traitsIcEENS1_IcEEEENS_10shared_ptrI9Texture2DEEEEPvEEEEEC2B8ue170006ERSF_b, symObjAddr: 0x32F7C, symBinAddr: 0x100051420, symSize: 0xF0 }
  - { offsetInCU: 0x1E445, offset: 0x44D85, size: 0x8, addend: 0x0, symName: __ZNSt3__110unique_ptrINS_11__hash_nodeINS_17__hash_value_typeINS_12basic_stringIcNS_11char_traitsIcEENS_9allocatorIcEEEENS_10shared_ptrI9Texture2DEEEEPvEENS_22__hash_node_destructorINS6_ISE_EEEEEC2B8ue170006ILb1EvEEPSE_NS_16__dependent_typeINS_27__unique_ptr_deleter_sfinaeISH_EEXT_EE20__good_rval_ref_typeE, symObjAddr: 0x3306C, symBinAddr: 0x100051510, symSize: 0x21C }
  - { offsetInCU: 0x1E49A, offset: 0x44DDA, size: 0x8, addend: 0x0, symName: __ZNSt3__117__compressed_pairIPNS_11__hash_nodeINS_17__hash_value_typeINS_12basic_stringIcNS_11char_traitsIcEENS_9allocatorIcEEEENS_10shared_ptrI9Texture2DEEEEPvEENS_22__hash_node_destructorINS6_ISE_EEEEEC1B8ue170006IRSF_SI_EEOT_OT0_, symObjAddr: 0x33288, symBinAddr: 0x10005172C, symSize: 0x3C }
  - { offsetInCU: 0x1E4F0, offset: 0x44E30, size: 0x8, addend: 0x0, symName: __ZNSt3__117__compressed_pairIPNS_11__hash_nodeINS_17__hash_value_typeINS_12basic_stringIcNS_11char_traitsIcEENS_9allocatorIcEEEENS_10shared_ptrI9Texture2DEEEEPvEENS_22__hash_node_destructorINS6_ISE_EEEEEC2B8ue170006IRSF_SI_EEOT_OT0_, symObjAddr: 0x332C4, symBinAddr: 0x100051768, symSize: 0x48 }
  - { offsetInCU: 0x1E546, offset: 0x44E86, size: 0x8, addend: 0x0, symName: __ZNSt3__122__compressed_pair_elemIPNS_11__hash_nodeINS_17__hash_value_typeINS_12basic_stringIcNS_11char_traitsIcEENS_9allocatorIcEEEENS_10shared_ptrI9Texture2DEEEEPvEELi0ELb0EEC2B8ue170006IRSF_vEEOT_, symObjAddr: 0x3330C, symBinAddr: 0x1000517B0, symSize: 0xB0 }
  - { offsetInCU: 0x1E586, offset: 0x44EC6, size: 0x8, addend: 0x0, symName: __ZNSt3__122__compressed_pair_elemINS_22__hash_node_destructorINS_9allocatorINS_11__hash_nodeINS_17__hash_value_typeINS_12basic_stringIcNS_11char_traitsIcEENS2_IcEEEENS_10shared_ptrI9Texture2DEEEEPvEEEEEELi1ELb0EEC2B8ue170006ISH_vEEOT_, symObjAddr: 0x333BC, symBinAddr: 0x100051860, symSize: 0x38 }
  - { offsetInCU: 0x1E5C6, offset: 0x44F06, size: 0x8, addend: 0x0, symName: __ZNSt3__19allocatorINS_11__hash_nodeINS_17__hash_value_typeINS_12basic_stringIcNS_11char_traitsIcEENS0_IcEEEENS_10shared_ptrI9Texture2DEEEEPvEEE9constructB8ue170006INS_4pairIKS7_SA_EEJRKNS_21piecewise_construct_tENS_5tupleIJOS7_EEENSM_IJEEEEEEvPT_DpOT0_, symObjAddr: 0x333F4, symBinAddr: 0x100051898, symSize: 0x214 }
  - { offsetInCU: 0x1E645, offset: 0x44F85, size: 0x8, addend: 0x0, symName: __ZNSt3__14pairIKNS_12basic_stringIcNS_11char_traitsIcEENS_9allocatorIcEEEENS_10shared_ptrI9Texture2DEEEC1B8ue170006IJOS6_EJEEENS_21piecewise_construct_tENS_5tupleIJDpT_EEENSF_IJDpT0_EEE, symObjAddr: 0x33608, symBinAddr: 0x100051AAC, symSize: 0x248 }
  - { offsetInCU: 0x1E6B5, offset: 0x44FF5, size: 0x8, addend: 0x0, symName: __ZNSt3__14pairIKNS_12basic_stringIcNS_11char_traitsIcEENS_9allocatorIcEEEENS_10shared_ptrI9Texture2DEEEC1B8ue170006IJOS6_EJEJLm0EEJEEENS_21piecewise_construct_tERNS_5tupleIJDpT_EEERNSF_IJDpT0_EEENS_15__tuple_indicesIJXspT1_EEEENSO_IJXspT2_EEEE, symObjAddr: 0x33850, symBinAddr: 0x100051CF4, symSize: 0x3C }
  - { offsetInCU: 0x1E747, offset: 0x45087, size: 0x8, addend: 0x0, symName: __ZNSt3__14pairIKNS_12basic_stringIcNS_11char_traitsIcEENS_9allocatorIcEEEENS_10shared_ptrI9Texture2DEEEC2B8ue170006IJOS6_EJEJLm0EEJEEENS_21piecewise_construct_tERNS_5tupleIJDpT_EEERNSF_IJDpT0_EEENS_15__tuple_indicesIJXspT1_EEEENSO_IJXspT2_EEEE, symObjAddr: 0x3388C, symBinAddr: 0x100051D30, symSize: 0x50 }
  - { offsetInCU: 0x1E7D9, offset: 0x45119, size: 0x8, addend: 0x0, symName: __ZNSt3__112basic_stringIcNS_11char_traitsIcEENS_9allocatorIcEEEC1B8ue170006EOS5_, symObjAddr: 0x33900, symBinAddr: 0x100051DA4, symSize: 0x34 }
  - { offsetInCU: 0x1E810, offset: 0x45150, size: 0x8, addend: 0x0, symName: __ZNSt3__112__tuple_leafILm0EONS_12basic_stringIcNS_11char_traitsIcEENS_9allocatorIcEEEELb0EE3getB8ue170006Ev, symObjAddr: 0x33934, symBinAddr: 0x100051DD8, symSize: 0x60 }
  - { offsetInCU: 0x1E834, offset: 0x45174, size: 0x8, addend: 0x0, symName: __ZNSt3__112basic_stringIcNS_11char_traitsIcEENS_9allocatorIcEEEC2B8ue170006EOS5_, symObjAddr: 0x33994, symBinAddr: 0x100051E38, symSize: 0x54 }
  - { offsetInCU: 0x1E86B, offset: 0x451AB, size: 0x8, addend: 0x0, symName: __ZNSt3__112basic_stringIcNS_11char_traitsIcEENS_9allocatorIcEEE14__default_initB8ue170006Ev, symObjAddr: 0x339E8, symBinAddr: 0x100051E8C, symSize: 0x22C }
  - { offsetInCU: 0x1E890, offset: 0x451D0, size: 0x8, addend: 0x0, symName: __ZNSt3__117__compressed_pairIPNS_11__hash_nodeINS_17__hash_value_typeINS_12basic_stringIcNS_11char_traitsIcEENS_9allocatorIcEEEENS_10shared_ptrI9Texture2DEEEEPvEENS_22__hash_node_destructorINS6_ISE_EEEEE6secondB8ue170006Ev, symObjAddr: 0x33C14, symBinAddr: 0x1000520B8, symSize: 0x28 }
  - { offsetInCU: 0x1E8B4, offset: 0x451F4, size: 0x8, addend: 0x0, symName: __ZNSt3__122__compressed_pair_elemINS_22__hash_node_destructorINS_9allocatorINS_11__hash_nodeINS_17__hash_value_typeINS_12basic_stringIcNS_11char_traitsIcEENS2_IcEEEENS_10shared_ptrI9Texture2DEEEEPvEEEEEELi1ELb0EE5__getB8ue170006Ev, symObjAddr: 0x33C3C, symBinAddr: 0x1000520E0, symSize: 0x14 }
  - { offsetInCU: 0x1E8D8, offset: 0x45218, size: 0x8, addend: 0x0, symName: __ZNSt3__117__compressed_pairImNS_22__unordered_map_hasherINS_12basic_stringIcNS_11char_traitsIcEENS_9allocatorIcEEEENS_17__hash_value_typeIS7_NS_10shared_ptrI9Texture2DEEEENS_4hashIS7_EENS_8equal_toIS7_EELb1EEEE5firstB8ue170006Ev, symObjAddr: 0x33C50, symBinAddr: 0x1000520F4, symSize: 0x24 }
  - { offsetInCU: 0x1E8FC, offset: 0x4523C, size: 0x8, addend: 0x0, symName: __ZNSt3__122__compressed_pair_elemImLi0ELb0EE5__getB8ue170006Ev, symObjAddr: 0x33C74, symBinAddr: 0x100052118, symSize: 0x14 }
  - { offsetInCU: 0x1E920, offset: 0x45260, size: 0x8, addend: 0x0, symName: __ZNSt3__117__compressed_pairIfNS_21__unordered_map_equalINS_12basic_stringIcNS_11char_traitsIcEENS_9allocatorIcEEEENS_17__hash_value_typeIS7_NS_10shared_ptrI9Texture2DEEEENS_8equal_toIS7_EENS_4hashIS7_EELb1EEEE5firstB8ue170006Ev, symObjAddr: 0x33C88, symBinAddr: 0x10005212C, symSize: 0x24 }
  - { offsetInCU: 0x1E944, offset: 0x45284, size: 0x8, addend: 0x0, symName: __ZNSt3__122__compressed_pair_elemIfLi0ELb0EE5__getB8ue170006Ev, symObjAddr: 0x33CAC, symBinAddr: 0x100052150, symSize: 0x14 }
  - { offsetInCU: 0x1E968, offset: 0x452A8, size: 0x8, addend: 0x0, symName: __ZNSt3__112__hash_tableINS_17__hash_value_typeINS_12basic_stringIcNS_11char_traitsIcEENS_9allocatorIcEEEENS_10shared_ptrI9Texture2DEEEENS_22__unordered_map_hasherIS7_SB_NS_4hashIS7_EENS_8equal_toIS7_EELb1EEENS_21__unordered_map_equalIS7_SB_SG_SE_Lb1EEENS5_ISB_EEE8__rehashILb1EEEvm, symObjAddr: 0x33CC0, symBinAddr: 0x100052164, symSize: 0x784 }
  - { offsetInCU: 0x1E9BD, offset: 0x452FD, size: 0x8, addend: 0x0, symName: __ZNSt3__112__hash_tableINS_17__hash_value_typeINS_12basic_stringIcNS_11char_traitsIcEENS_9allocatorIcEEEENS_10shared_ptrI9Texture2DEEEENS_22__unordered_map_hasherIS7_SB_NS_4hashIS7_EENS_8equal_toIS7_EELb1EEENS_21__unordered_map_equalIS7_SB_SG_SE_Lb1EEENS5_ISB_EEE11__do_rehashILb1EEEvm, symObjAddr: 0x34444, symBinAddr: 0x1000528E8, symSize: 0x5BC }
  - { offsetInCU: 0x1EAA7, offset: 0x453E7, size: 0x8, addend: 0x0, symName: __ZNSt3__110unique_ptrIA_PNS_16__hash_node_baseIPNS_11__hash_nodeINS_17__hash_value_typeINS_12basic_stringIcNS_11char_traitsIcEENS_9allocatorIcEEEENS_10shared_ptrI9Texture2DEEEEPvEEEENS_25__bucket_list_deallocatorINS7_ISI_EEEEE11get_deleterB8ue170006Ev, symObjAddr: 0x34A6C, symBinAddr: 0x100052F10, symSize: 0x24 }
  - { offsetInCU: 0x1EACB, offset: 0x4540B, size: 0x8, addend: 0x0, symName: __ZNSt3__125__bucket_list_deallocatorINS_9allocatorIPNS_16__hash_node_baseIPNS_11__hash_nodeINS_17__hash_value_typeINS_12basic_stringIcNS_11char_traitsIcEENS1_IcEEEENS_10shared_ptrI9Texture2DEEEEPvEEEEEEE7__allocB8ue170006Ev, symObjAddr: 0x34A90, symBinAddr: 0x100052F34, symSize: 0x24 }
  - { offsetInCU: 0x1EAEF, offset: 0x4542F, size: 0x8, addend: 0x0, symName: __ZNSt3__110unique_ptrIA_PNS_16__hash_node_baseIPNS_11__hash_nodeINS_17__hash_value_typeINS_12basic_stringIcNS_11char_traitsIcEENS_9allocatorIcEEEENS_10shared_ptrI9Texture2DEEEEPvEEEENS_25__bucket_list_deallocatorINS7_ISI_EEEEE5resetB8ue170006IPSI_EENS_9enable_ifIXsr28_CheckArrayPointerConversionIT_EE5valueEvE4typeESR_, symObjAddr: 0x34AB4, symBinAddr: 0x100052F58, symSize: 0xEC }
  - { offsetInCU: 0x1EB3B, offset: 0x4547B, size: 0x8, addend: 0x0, symName: __ZNSt3__116allocator_traitsINS_9allocatorIPNS_16__hash_node_baseIPNS_11__hash_nodeINS_17__hash_value_typeINS_12basic_stringIcNS_11char_traitsIcEENS1_IcEEEENS_10shared_ptrI9Texture2DEEEEPvEEEEEEE8allocateB8ue170006ERSJ_m, symObjAddr: 0x34BA0, symBinAddr: 0x100053044, symSize: 0x2C }
  - { offsetInCU: 0x1EB6E, offset: 0x454AE, size: 0x8, addend: 0x0, symName: __ZNSt3__125__bucket_list_deallocatorINS_9allocatorIPNS_16__hash_node_baseIPNS_11__hash_nodeINS_17__hash_value_typeINS_12basic_stringIcNS_11char_traitsIcEENS1_IcEEEENS_10shared_ptrI9Texture2DEEEEPvEEEEEEE4sizeB8ue170006Ev, symObjAddr: 0x34BCC, symBinAddr: 0x100053070, symSize: 0x24 }
  - { offsetInCU: 0x1EB92, offset: 0x454D2, size: 0x8, addend: 0x0, symName: __ZNSt3__117__compressed_pairIPPNS_16__hash_node_baseIPNS_11__hash_nodeINS_17__hash_value_typeINS_12basic_stringIcNS_11char_traitsIcEENS_9allocatorIcEEEENS_10shared_ptrI9Texture2DEEEEPvEEEENS_25__bucket_list_deallocatorINS7_ISI_EEEEE6secondB8ue170006Ev, symObjAddr: 0x34BF0, symBinAddr: 0x100053094, symSize: 0x28 }
  - { offsetInCU: 0x1EBB6, offset: 0x454F6, size: 0x8, addend: 0x0, symName: __ZNSt3__122__compressed_pair_elemINS_25__bucket_list_deallocatorINS_9allocatorIPNS_16__hash_node_baseIPNS_11__hash_nodeINS_17__hash_value_typeINS_12basic_stringIcNS_11char_traitsIcEENS2_IcEEEENS_10shared_ptrI9Texture2DEEEEPvEEEEEEEELi1ELb0EE5__getB8ue170006Ev, symObjAddr: 0x34C18, symBinAddr: 0x1000530BC, symSize: 0x14 }
  - { offsetInCU: 0x1EBDA, offset: 0x4551A, size: 0x8, addend: 0x0, symName: __ZNSt3__117__compressed_pairImNS_9allocatorIPNS_16__hash_node_baseIPNS_11__hash_nodeINS_17__hash_value_typeINS_12basic_stringIcNS_11char_traitsIcEENS1_IcEEEENS_10shared_ptrI9Texture2DEEEEPvEEEEEEE6secondB8ue170006Ev, symObjAddr: 0x34C2C, symBinAddr: 0x1000530D0, symSize: 0x24 }
  - { offsetInCU: 0x1EBFE, offset: 0x4553E, size: 0x8, addend: 0x0, symName: __ZNSt3__122__compressed_pair_elemINS_9allocatorIPNS_16__hash_node_baseIPNS_11__hash_nodeINS_17__hash_value_typeINS_12basic_stringIcNS_11char_traitsIcEENS1_IcEEEENS_10shared_ptrI9Texture2DEEEEPvEEEEEELi1ELb1EE5__getB8ue170006Ev, symObjAddr: 0x34C50, symBinAddr: 0x1000530F4, symSize: 0x14 }
  - { offsetInCU: 0x1EC22, offset: 0x45562, size: 0x8, addend: 0x0, symName: __ZNSt3__117__compressed_pairIPPNS_16__hash_node_baseIPNS_11__hash_nodeINS_17__hash_value_typeINS_12basic_stringIcNS_11char_traitsIcEENS_9allocatorIcEEEENS_10shared_ptrI9Texture2DEEEEPvEEEENS_25__bucket_list_deallocatorINS7_ISI_EEEEE5firstB8ue170006Ev, symObjAddr: 0x34C64, symBinAddr: 0x100053108, symSize: 0x24 }
  - { offsetInCU: 0x1EC46, offset: 0x45586, size: 0x8, addend: 0x0, symName: __ZNSt3__125__bucket_list_deallocatorINS_9allocatorIPNS_16__hash_node_baseIPNS_11__hash_nodeINS_17__hash_value_typeINS_12basic_stringIcNS_11char_traitsIcEENS1_IcEEEENS_10shared_ptrI9Texture2DEEEEPvEEEEEEEclB8ue170006EPSI_, symObjAddr: 0x34C88, symBinAddr: 0x10005312C, symSize: 0x98 }
  - { offsetInCU: 0x1EC79, offset: 0x455B9, size: 0x8, addend: 0x0, symName: __ZNSt3__122__compressed_pair_elemIPPNS_16__hash_node_baseIPNS_11__hash_nodeINS_17__hash_value_typeINS_12basic_stringIcNS_11char_traitsIcEENS_9allocatorIcEEEENS_10shared_ptrI9Texture2DEEEEPvEEEELi0ELb0EE5__getB8ue170006Ev, symObjAddr: 0x34D20, symBinAddr: 0x1000531C4, symSize: 0x14 }
  - { offsetInCU: 0x1EC9D, offset: 0x455DD, size: 0x8, addend: 0x0, symName: __ZNSt3__116allocator_traitsINS_9allocatorIPNS_16__hash_node_baseIPNS_11__hash_nodeINS_17__hash_value_typeINS_12basic_stringIcNS_11char_traitsIcEENS1_IcEEEENS_10shared_ptrI9Texture2DEEEEPvEEEEEEE10deallocateB8ue170006ERSJ_PSI_m, symObjAddr: 0x34D34, symBinAddr: 0x1000531D8, symSize: 0x34 }
  - { offsetInCU: 0x1ECDF, offset: 0x4561F, size: 0x8, addend: 0x0, symName: __ZNSt3__19allocatorIPNS_16__hash_node_baseIPNS_11__hash_nodeINS_17__hash_value_typeINS_12basic_stringIcNS_11char_traitsIcEENS0_IcEEEENS_10shared_ptrI9Texture2DEEEEPvEEEEE10deallocateB8ue170006EPSH_m, symObjAddr: 0x34D68, symBinAddr: 0x10005320C, symSize: 0x4C }
  - { offsetInCU: 0x1ED1F, offset: 0x4565F, size: 0x8, addend: 0x0, symName: __ZNSt3__19allocatorIPNS_16__hash_node_baseIPNS_11__hash_nodeINS_17__hash_value_typeINS_12basic_stringIcNS_11char_traitsIcEENS0_IcEEEENS_10shared_ptrI9Texture2DEEEEPvEEEEE8allocateB8ue170006Em, symObjAddr: 0x34DB4, symBinAddr: 0x100053258, symSize: 0x5C }
  - { offsetInCU: 0x1ED5B, offset: 0x4569B, size: 0x8, addend: 0x0, symName: __ZNSt3__116allocator_traitsINS_9allocatorIPNS_16__hash_node_baseIPNS_11__hash_nodeINS_17__hash_value_typeINS_12basic_stringIcNS_11char_traitsIcEENS1_IcEEEENS_10shared_ptrI9Texture2DEEEEPvEEEEEEE8max_sizeB8ue170006ISJ_vEEmRKSJ_, symObjAddr: 0x34E10, symBinAddr: 0x1000532B4, symSize: 0x24 }
  - { offsetInCU: 0x1ED89, offset: 0x456C9, size: 0x8, addend: 0x0, symName: __ZNKSt3__19allocatorIPNS_16__hash_node_baseIPNS_11__hash_nodeINS_17__hash_value_typeINS_12basic_stringIcNS_11char_traitsIcEENS0_IcEEEENS_10shared_ptrI9Texture2DEEEEPvEEEEE8max_sizeB8ue170006Ev, symObjAddr: 0x34E34, symBinAddr: 0x1000532D8, symSize: 0x14 }
  - { offsetInCU: 0x1EDAD, offset: 0x456ED, size: 0x8, addend: 0x0, symName: __ZNSt3__117__compressed_pairImNS_9allocatorIPNS_16__hash_node_baseIPNS_11__hash_nodeINS_17__hash_value_typeINS_12basic_stringIcNS_11char_traitsIcEENS1_IcEEEENS_10shared_ptrI9Texture2DEEEEPvEEEEEEE5firstB8ue170006Ev, symObjAddr: 0x34E48, symBinAddr: 0x1000532EC, symSize: 0x24 }
  - { offsetInCU: 0x1EDD1, offset: 0x45711, size: 0x8, addend: 0x0, symName: __ZNSt3__122__compressed_pair_elemINS_16__hash_node_baseIPNS_11__hash_nodeINS_17__hash_value_typeINS_12basic_stringIcNS_11char_traitsIcEENS_9allocatorIcEEEENS_10shared_ptrI9Texture2DEEEEPvEEEELi0ELb0EE5__getB8ue170006Ev, symObjAddr: 0x34E88, symBinAddr: 0x10005332C, symSize: 0x14 }
  - { offsetInCU: 0x1EDF5, offset: 0x45735, size: 0x8, addend: 0x0, symName: __ZNKSt3__117__compressed_pairIPNS_11__hash_nodeINS_17__hash_value_typeINS_12basic_stringIcNS_11char_traitsIcEENS_9allocatorIcEEEENS_10shared_ptrI9Texture2DEEEEPvEENS_22__hash_node_destructorINS6_ISE_EEEEE5firstB8ue170006Ev, symObjAddr: 0x34E9C, symBinAddr: 0x100053340, symSize: 0x24 }
  - { offsetInCU: 0x1EE19, offset: 0x45759, size: 0x8, addend: 0x0, symName: __ZNKSt3__122__compressed_pair_elemIPNS_11__hash_nodeINS_17__hash_value_typeINS_12basic_stringIcNS_11char_traitsIcEENS_9allocatorIcEEEENS_10shared_ptrI9Texture2DEEEEPvEELi0ELb0EE5__getB8ue170006Ev, symObjAddr: 0x34EC0, symBinAddr: 0x100053364, symSize: 0x14 }
  - { offsetInCU: 0x1EE3D, offset: 0x4577D, size: 0x8, addend: 0x0, symName: __ZNSt3__117__compressed_pairIPNS_11__hash_nodeINS_17__hash_value_typeINS_12basic_stringIcNS_11char_traitsIcEENS_9allocatorIcEEEENS_10shared_ptrI9Texture2DEEEEPvEENS_22__hash_node_destructorINS6_ISE_EEEEE5firstB8ue170006Ev, symObjAddr: 0x34ED4, symBinAddr: 0x100053378, symSize: 0x24 }
  - { offsetInCU: 0x1EE61, offset: 0x457A1, size: 0x8, addend: 0x0, symName: __ZNSt3__122__compressed_pair_elemIPNS_11__hash_nodeINS_17__hash_value_typeINS_12basic_stringIcNS_11char_traitsIcEENS_9allocatorIcEEEENS_10shared_ptrI9Texture2DEEEEPvEELi0ELb0EE5__getB8ue170006Ev, symObjAddr: 0x34EF8, symBinAddr: 0x10005339C, symSize: 0x14 }
  - { offsetInCU: 0x1EE85, offset: 0x457C5, size: 0x8, addend: 0x0, symName: __ZNSt3__110unique_ptrINS_11__hash_nodeINS_17__hash_value_typeINS_12basic_stringIcNS_11char_traitsIcEENS_9allocatorIcEEEENS_10shared_ptrI9Texture2DEEEEPvEENS_22__hash_node_destructorINS6_ISE_EEEEED2B8ue170006Ev, symObjAddr: 0x34F0C, symBinAddr: 0x1000533B0, symSize: 0x30 }
  - { offsetInCU: 0x1EEAD, offset: 0x457ED, size: 0x8, addend: 0x0, symName: __ZNSt3__110unique_ptrINS_11__hash_nodeINS_17__hash_value_typeINS_12basic_stringIcNS_11char_traitsIcEENS_9allocatorIcEEEENS_10shared_ptrI9Texture2DEEEEPvEENS_22__hash_node_destructorINS6_ISE_EEEEE5resetB8ue170006EPSE_, symObjAddr: 0x34F3C, symBinAddr: 0x1000533E0, symSize: 0xEC }
  - { offsetInCU: 0x1EEF0, offset: 0x45830, size: 0x8, addend: 0x0, symName: __ZNSt3__122__hash_node_destructorINS_9allocatorINS_11__hash_nodeINS_17__hash_value_typeINS_12basic_stringIcNS_11char_traitsIcEENS1_IcEEEENS_10shared_ptrI9Texture2DEEEEPvEEEEEclB8ue170006EPSE_, symObjAddr: 0x35028, symBinAddr: 0x1000534CC, symSize: 0x168 }
  - { offsetInCU: 0x1EF23, offset: 0x45863, size: 0x8, addend: 0x0, symName: __ZNSt3__116allocator_traitsINS_9allocatorINS_11__hash_nodeINS_17__hash_value_typeINS_12basic_stringIcNS_11char_traitsIcEENS1_IcEEEENS_10shared_ptrI9Texture2DEEEEPvEEEEE7destroyB8ue170006INS_4pairIKS8_SB_EEvvEEvRSF_PT_, symObjAddr: 0x35190, symBinAddr: 0x100053634, symSize: 0x28 }
  - { offsetInCU: 0x1EF5E, offset: 0x4589E, size: 0x8, addend: 0x0, symName: __ZNSt3__116allocator_traitsINS_9allocatorINS_11__hash_nodeINS_17__hash_value_typeINS_12basic_stringIcNS_11char_traitsIcEENS1_IcEEEENS_10shared_ptrI9Texture2DEEEEPvEEEEE10deallocateB8ue170006ERSF_PSE_m, symObjAddr: 0x351B8, symBinAddr: 0x10005365C, symSize: 0x34 }
  - { offsetInCU: 0x1EFA0, offset: 0x458E0, size: 0x8, addend: 0x0, symName: __ZNSt3__14pairIKNS_12basic_stringIcNS_11char_traitsIcEENS_9allocatorIcEEEENS_10shared_ptrI9Texture2DEEED1Ev, symObjAddr: 0x351EC, symBinAddr: 0x100053690, symSize: 0x2C }
  - { offsetInCU: 0x1EFCB, offset: 0x4590B, size: 0x8, addend: 0x0, symName: __ZNSt3__14pairIKNS_12basic_stringIcNS_11char_traitsIcEENS_9allocatorIcEEEENS_10shared_ptrI9Texture2DEEED2Ev, symObjAddr: 0x35218, symBinAddr: 0x1000536BC, symSize: 0x38 }
  - { offsetInCU: 0x1EFF6, offset: 0x45936, size: 0x8, addend: 0x0, symName: __ZNSt3__19allocatorINS_11__hash_nodeINS_17__hash_value_typeINS_12basic_stringIcNS_11char_traitsIcEENS0_IcEEEENS_10shared_ptrI9Texture2DEEEEPvEEE10deallocateB8ue170006EPSD_m, symObjAddr: 0x35250, symBinAddr: 0x1000536F4, symSize: 0x50 }
  - { offsetInCU: 0x1F036, offset: 0x45976, size: 0x8, addend: 0x0, symName: __ZNSt3__115__hash_iteratorIPNS_11__hash_nodeINS_17__hash_value_typeINS_12basic_stringIcNS_11char_traitsIcEENS_9allocatorIcEEEENS_10shared_ptrI9Texture2DEEEEPvEEEC2B8ue170006EPNS_16__hash_node_baseISF_EE, symObjAddr: 0x352A0, symBinAddr: 0x100053744, symSize: 0x70 }
  - { offsetInCU: 0x1F06D, offset: 0x459AD, size: 0x8, addend: 0x0, symName: __ZNSt3__14pairINS_15__hash_iteratorIPNS_11__hash_nodeINS_17__hash_value_typeINS_12basic_stringIcNS_11char_traitsIcEENS_9allocatorIcEEEENS_10shared_ptrI9Texture2DEEEEPvEEEEbEC2B8ue170006ISH_RbLSE_0EEEOT_OT0_, symObjAddr: 0x35310, symBinAddr: 0x1000537B4, symSize: 0x120 }
  - { offsetInCU: 0x1F0CA, offset: 0x45A0A, size: 0x8, addend: 0x0, symName: __ZNSt3__15tupleIJONS_12basic_stringIcNS_11char_traitsIcEENS_9allocatorIcEEEEEEC1B8ue170006IJS6_ELi0EEEDpOT_, symObjAddr: 0x35430, symBinAddr: 0x1000538D4, symSize: 0x34 }
  - { offsetInCU: 0x1F113, offset: 0x45A53, size: 0x8, addend: 0x0, symName: __ZNSt3__15tupleIJONS_12basic_stringIcNS_11char_traitsIcEENS_9allocatorIcEEEEEEC2B8ue170006IJS6_ELi0EEEDpOT_, symObjAddr: 0x35464, symBinAddr: 0x100053908, symSize: 0x34 }
  - { offsetInCU: 0x1F15C, offset: 0x45A9C, size: 0x8, addend: 0x0, symName: __ZNSt3__112__tuple_implINS_15__tuple_indicesIJLm0EEEEJONS_12basic_stringIcNS_11char_traitsIcEENS_9allocatorIcEEEEEEC1B8ue170006IJLm0EEJS9_EJEJEJS8_EEENS1_IJXspT_EEEENS_13__tuple_typesIJDpT0_EEENS1_IJXspT1_EEEENSD_IJDpT2_EEEDpOT3_, symObjAddr: 0x35498, symBinAddr: 0x10005393C, symSize: 0x34 }
  - { offsetInCU: 0x1F1F2, offset: 0x45B32, size: 0x8, addend: 0x0, symName: __ZNSt3__112__tuple_implINS_15__tuple_indicesIJLm0EEEEJONS_12basic_stringIcNS_11char_traitsIcEENS_9allocatorIcEEEEEEC2B8ue170006IJLm0EEJS9_EJEJEJS8_EEENS1_IJXspT_EEEENS_13__tuple_typesIJDpT0_EEENS1_IJXspT1_EEEENSD_IJDpT2_EEEDpOT3_, symObjAddr: 0x354CC, symBinAddr: 0x100053970, symSize: 0x34 }
  - { offsetInCU: 0x1F288, offset: 0x45BC8, size: 0x8, addend: 0x0, symName: __ZNSt3__112__tuple_leafILm0EONS_12basic_stringIcNS_11char_traitsIcEENS_9allocatorIcEEEELb0EEC2B8ue170006IS6_vEEOT_, symObjAddr: 0x35500, symBinAddr: 0x1000539A4, symSize: 0x70 }
  - { offsetInCU: 0x1F2C9, offset: 0x45C09, size: 0x8, addend: 0x0, symName: __ZNSt3__114pointer_traitsIPNS_17__hash_value_typeINS_12basic_stringIcNS_11char_traitsIcEENS_9allocatorIcEEEENS_10shared_ptrI9Texture2DEEEEE10pointer_toB8ue170006ERSB_, symObjAddr: 0x35570, symBinAddr: 0x100053A14, symSize: 0x14 }
  - { offsetInCU: 0x3B, offset: 0x45F1D, size: 0x8, addend: 0x0, symName: _.str, symObjAddr: 0x65C0, symBinAddr: 0x100491300, symSize: 0x0 }
  - { offsetInCU: 0x470F, offset: 0x4A5F1, size: 0x8, addend: 0x0, symName: __ZNSt3__111make_uniqueB8ue170006I5ReachJRA6_KciiEEENS_11__unique_ifIT_E15__unique_singleEDpOT0_, symObjAddr: 0x3D8, symBinAddr: 0x100053ED0, symSize: 0x3E0 }
  - { offsetInCU: 0x477C, offset: 0x4A65E, size: 0x8, addend: 0x0, symName: __ZNSt3__111make_sharedB8ue170006I6WindowJRNS_12basic_stringIcNS_11char_traitsIcEENS_9allocatorIcEEEERtS9_EvEENS_10shared_ptrIT_EEDpOT0_, symObjAddr: 0x18D8, symBinAddr: 0x100055024, symSize: 0x1F8 }
  - { offsetInCU: 0x47EA, offset: 0x4A6CC, size: 0x8, addend: 0x0, symName: __ZNSt3__111make_uniqueB8ue170006I10LayerStackJEEENS_11__unique_ifIT_E15__unique_singleEDpOT0_, symObjAddr: 0x1CF0, symBinAddr: 0x10005543C, symSize: 0x64 }
  - { offsetInCU: 0x4818, offset: 0x4A6FA, size: 0x8, addend: 0x0, symName: __ZNSt3__115allocate_sharedB8ue170006I6WindowNS_9allocatorIS1_EEJRNS_12basic_stringIcNS_11char_traitsIcEENS2_IcEEEERtSA_EvEENS_10shared_ptrIT_EERKT0_DpOT1_, symObjAddr: 0x244C, symBinAddr: 0x100055B98, symSize: 0x310 }
  - { offsetInCU: 0x4BF6, offset: 0x4AAD8, size: 0x8, addend: 0x0, symName: __ZNSt3__14swapB8ue170006IP6WindowEENS_9enable_ifIXaasr21is_move_constructibleIT_EE5valuesr18is_move_assignableIS4_EE5valueEvE4typeERS4_S7_, symObjAddr: 0x4114, symBinAddr: 0x100057650, symSize: 0x134 }
  - { offsetInCU: 0x4C47, offset: 0x4AB29, size: 0x8, addend: 0x0, symName: __ZNSt3__14swapB8ue170006IP11FramebufferEENS_9enable_ifIXaasr21is_move_constructibleIT_EE5valuesr18is_move_assignableIS4_EE5valueEvE4typeERS4_S7_, symObjAddr: 0x5B88, symBinAddr: 0x100058870, symSize: 0x134 }
  - { offsetInCU: 0x7384, offset: 0x4D266, size: 0x8, addend: 0x0, symName: _main, symObjAddr: 0x0, symBinAddr: 0x100053AF8, symSize: 0x3D8 }
  - { offsetInCU: 0x73B1, offset: 0x4D293, size: 0x8, addend: 0x0, symName: __ZNKSt3__110unique_ptrI5ReachNS_14default_deleteIS1_EEEptB8ue170006Ev, symObjAddr: 0x7B8, symBinAddr: 0x1000542B0, symSize: 0x6C }
  - { offsetInCU: 0x73D6, offset: 0x4D2B8, size: 0x8, addend: 0x0, symName: __ZNSt3__110unique_ptrI5ReachNS_14default_deleteIS1_EEED1B8ue170006Ev, symObjAddr: 0x824, symBinAddr: 0x10005431C, symSize: 0x2C }
  - { offsetInCU: 0x7403, offset: 0x4D2E5, size: 0x8, addend: 0x0, symName: __ZN5ReachC1ENSt3__112basic_stringIcNS0_11char_traitsIcEENS0_9allocatorIcEEEEtt, symObjAddr: 0x884, symBinAddr: 0x100054348, symSize: 0x44 }
  - { offsetInCU: 0x7456, offset: 0x4D338, size: 0x8, addend: 0x0, symName: __ZNSt3__110unique_ptrI5ReachNS_14default_deleteIS1_EEEC1B8ue170006ILb1EvEEPS1_, symObjAddr: 0x8C8, symBinAddr: 0x10005438C, symSize: 0x34 }
  - { offsetInCU: 0x749C, offset: 0x4D37E, size: 0x8, addend: 0x0, symName: __ZN5ReachC2ENSt3__112basic_stringIcNS0_11char_traitsIcEENS0_9allocatorIcEEEEtt, symObjAddr: 0xC74, symBinAddr: 0x1000543C0, symSize: 0x358 }
  - { offsetInCU: 0x74F3, offset: 0x4D3D5, size: 0x8, addend: 0x0, symName: __ZN3AppC2ENSt3__112basic_stringIcNS0_11char_traitsIcEENS0_9allocatorIcEEEEtt, symObjAddr: 0xFCC, symBinAddr: 0x100054718, symSize: 0x82C }
  - { offsetInCU: 0x756A, offset: 0x4D44C, size: 0x8, addend: 0x0, symName: __ZN3AppD2Ev, symObjAddr: 0x17F8, symBinAddr: 0x100054F44, symSize: 0x44 }
  - { offsetInCU: 0x7595, offset: 0x4D477, size: 0x8, addend: 0x0, symName: __ZNSt3__110shared_ptrI6WindowEC1B8ue170006EDn, symObjAddr: 0x183C, symBinAddr: 0x100054F88, symSize: 0x34 }
  - { offsetInCU: 0x75C9, offset: 0x4D4AB, size: 0x8, addend: 0x0, symName: __ZNSt3__110unique_ptrI10LayerStackNS_14default_deleteIS1_EEEC1B8ue170006ILb1EvEEDn, symObjAddr: 0x1870, symBinAddr: 0x100054FBC, symSize: 0x34 }
  - { offsetInCU: 0x7607, offset: 0x4D4E9, size: 0x8, addend: 0x0, symName: __ZNSt3__110shared_ptrI11FramebufferEC1B8ue170006EDn, symObjAddr: 0x18A4, symBinAddr: 0x100054FF0, symSize: 0x34 }
  - { offsetInCU: 0x763A, offset: 0x4D51C, size: 0x8, addend: 0x0, symName: __ZNSt3__110shared_ptrI6WindowEaSB8ue170006EOS2_, symObjAddr: 0x1AD0, symBinAddr: 0x10005521C, symSize: 0x1F4 }
  - { offsetInCU: 0x7670, offset: 0x4D552, size: 0x8, addend: 0x0, symName: __ZNSt3__110shared_ptrI6WindowED1B8ue170006Ev, symObjAddr: 0x1CC4, symBinAddr: 0x100055410, symSize: 0x2C }
  - { offsetInCU: 0x7697, offset: 0x4D579, size: 0x8, addend: 0x0, symName: __ZNSt3__110unique_ptrI10LayerStackNS_14default_deleteIS1_EEEaSB8ue170006EOS4_, symObjAddr: 0x1D54, symBinAddr: 0x1000554A0, symSize: 0x50 }
  - { offsetInCU: 0x76CA, offset: 0x4D5AC, size: 0x8, addend: 0x0, symName: __ZNSt3__110unique_ptrI10LayerStackNS_14default_deleteIS1_EEED1B8ue170006Ev, symObjAddr: 0x1DA4, symBinAddr: 0x1000554F0, symSize: 0x2C }
  - { offsetInCU: 0x76F7, offset: 0x4D5D9, size: 0x8, addend: 0x0, symName: __ZN17FramebufferConfigC1Ev, symObjAddr: 0x1DD0, symBinAddr: 0x10005551C, symSize: 0x2C }
  - { offsetInCU: 0x7721, offset: 0x4D603, size: 0x8, addend: 0x0, symName: __ZNSt3__110shared_ptrI11FramebufferEaSB8ue170006EOS2_, symObjAddr: 0x1DFC, symBinAddr: 0x100055548, symSize: 0x1F4 }
  - { offsetInCU: 0x7757, offset: 0x4D639, size: 0x8, addend: 0x0, symName: __ZNSt3__110shared_ptrI11FramebufferED1B8ue170006Ev, symObjAddr: 0x1FF0, symBinAddr: 0x10005573C, symSize: 0x2C }
  - { offsetInCU: 0x777F, offset: 0x4D661, size: 0x8, addend: 0x0, symName: __ZNSt3__110shared_ptrI6WindowEC2B8ue170006EDn, symObjAddr: 0x201C, symBinAddr: 0x100055768, symSize: 0xA0 }
  - { offsetInCU: 0x77B3, offset: 0x4D695, size: 0x8, addend: 0x0, symName: __ZNSt3__110unique_ptrI10LayerStackNS_14default_deleteIS1_EEEC2B8ue170006ILb1EvEEDn, symObjAddr: 0x20BC, symBinAddr: 0x100055808, symSize: 0x204 }
  - { offsetInCU: 0x77F8, offset: 0x4D6DA, size: 0x8, addend: 0x0, symName: __ZNSt3__117__compressed_pairIP10LayerStackNS_14default_deleteIS1_EEEC1B8ue170006INS_16__value_init_tagES7_EEOT_OT0_, symObjAddr: 0x22C0, symBinAddr: 0x100055A0C, symSize: 0x3C }
  - { offsetInCU: 0x784E, offset: 0x4D730, size: 0x8, addend: 0x0, symName: __ZNSt3__117__compressed_pairIP10LayerStackNS_14default_deleteIS1_EEEC2B8ue170006INS_16__value_init_tagES7_EEOT_OT0_, symObjAddr: 0x22FC, symBinAddr: 0x100055A48, symSize: 0x3C }
  - { offsetInCU: 0x78A4, offset: 0x4D786, size: 0x8, addend: 0x0, symName: __ZNSt3__122__compressed_pair_elemIP10LayerStackLi0ELb0EEC2B8ue170006ENS_16__value_init_tagE, symObjAddr: 0x2338, symBinAddr: 0x100055A84, symSize: 0x60 }
  - { offsetInCU: 0x78D7, offset: 0x4D7B9, size: 0x8, addend: 0x0, symName: __ZNSt3__122__compressed_pair_elemINS_14default_deleteI10LayerStackEELi1ELb1EEC2B8ue170006ENS_16__value_init_tagE, symObjAddr: 0x2398, symBinAddr: 0x100055AE4, symSize: 0x14 }
  - { offsetInCU: 0x790B, offset: 0x4D7ED, size: 0x8, addend: 0x0, symName: __ZNSt3__110shared_ptrI11FramebufferEC2B8ue170006EDn, symObjAddr: 0x23AC, symBinAddr: 0x100055AF8, symSize: 0xA0 }
  - { offsetInCU: 0x793F, offset: 0x4D821, size: 0x8, addend: 0x0, symName: __ZNSt3__19allocatorI6WindowEC1B8ue170006Ev, symObjAddr: 0x275C, symBinAddr: 0x100055EA8, symSize: 0x2C }
  - { offsetInCU: 0x79B2, offset: 0x4D894, size: 0x8, addend: 0x0, symName: __ZNSt3__118__allocation_guardINS_9allocatorINS_20__shared_ptr_emplaceI6WindowNS1_IS3_EEEEEEEC1B8ue170006IS4_EET_m, symObjAddr: 0x2788, symBinAddr: 0x100055ED4, symSize: 0x34 }
  - { offsetInCU: 0x79FE, offset: 0x4D8E0, size: 0x8, addend: 0x0, symName: __ZNKSt3__118__allocation_guardINS_9allocatorINS_20__shared_ptr_emplaceI6WindowNS1_IS3_EEEEEEE5__getB8ue170006Ev, symObjAddr: 0x27BC, symBinAddr: 0x100055F08, symSize: 0x64 }
  - { offsetInCU: 0x7A2D, offset: 0x4D90F, size: 0x8, addend: 0x0, symName: __ZNSt3__120__shared_ptr_emplaceI6WindowNS_9allocatorIS1_EEEC1B8ue170006IJRNS_12basic_stringIcNS_11char_traitsIcEENS2_IcEEEERtSC_EEES3_DpOT_, symObjAddr: 0x2820, symBinAddr: 0x100055F6C, symSize: 0x44 }
  - { offsetInCU: 0x7AA5, offset: 0x4D987, size: 0x8, addend: 0x0, symName: __ZNSt3__118__allocation_guardINS_9allocatorINS_20__shared_ptr_emplaceI6WindowNS1_IS3_EEEEEEE13__release_ptrB8ue170006Ev, symObjAddr: 0x2864, symBinAddr: 0x100055FB0, symSize: 0xA8 }
  - { offsetInCU: 0x7AD8, offset: 0x4D9BA, size: 0x8, addend: 0x0, symName: __ZNSt3__110shared_ptrI6WindowE27__create_with_control_blockB8ue170006IS1_NS_20__shared_ptr_emplaceIS1_NS_9allocatorIS1_EEEEEES2_PT_PT0_, symObjAddr: 0x290C, symBinAddr: 0x100056058, symSize: 0x188 }
  - { offsetInCU: 0x7B2D, offset: 0x4DA0F, size: 0x8, addend: 0x0, symName: __ZNSt3__120__shared_ptr_emplaceI6WindowNS_9allocatorIS1_EEE10__get_elemB8ue170006Ev, symObjAddr: 0x2A94, symBinAddr: 0x1000561E0, symSize: 0x28 }
  - { offsetInCU: 0x7B52, offset: 0x4DA34, size: 0x8, addend: 0x0, symName: __ZNSt3__118__allocation_guardINS_9allocatorINS_20__shared_ptr_emplaceI6WindowNS1_IS3_EEEEEEED1B8ue170006Ev, symObjAddr: 0x2ABC, symBinAddr: 0x100056208, symSize: 0x2C }
  - { offsetInCU: 0x7B7A, offset: 0x4DA5C, size: 0x8, addend: 0x0, symName: __ZNSt3__118__allocation_guardINS_9allocatorINS_20__shared_ptr_emplaceI6WindowNS1_IS3_EEEEEEEC2B8ue170006IS4_EET_m, symObjAddr: 0x2AE8, symBinAddr: 0x100056234, symSize: 0x28C }
  - { offsetInCU: 0x7BCD, offset: 0x4DAAF, size: 0x8, addend: 0x0, symName: __ZNSt3__19allocatorINS_20__shared_ptr_emplaceI6WindowNS0_IS2_EEEEEC1B8ue170006IS2_EERKNS0_IT_EE, symObjAddr: 0x2D74, symBinAddr: 0x1000564C0, symSize: 0x34 }
  - { offsetInCU: 0x7C09, offset: 0x4DAEB, size: 0x8, addend: 0x0, symName: __ZNSt3__116allocator_traitsINS_9allocatorINS_20__shared_ptr_emplaceI6WindowNS1_IS3_EEEEEEE8allocateB8ue170006ERS6_m, symObjAddr: 0x2DA8, symBinAddr: 0x1000564F4, symSize: 0x2C }
  - { offsetInCU: 0x7C3C, offset: 0x4DB1E, size: 0x8, addend: 0x0, symName: __ZNSt3__19allocatorINS_20__shared_ptr_emplaceI6WindowNS0_IS2_EEEEEC2B8ue170006IS2_EERKNS0_IT_EE, symObjAddr: 0x2DD4, symBinAddr: 0x100056520, symSize: 0x30 }
  - { offsetInCU: 0x7C78, offset: 0x4DB5A, size: 0x8, addend: 0x0, symName: __ZNSt3__116__non_trivial_ifILb1ENS_9allocatorINS_20__shared_ptr_emplaceI6WindowNS1_IS3_EEEEEEEC2B8ue170006Ev, symObjAddr: 0x2E04, symBinAddr: 0x100056550, symSize: 0x14 }
  - { offsetInCU: 0x7CA0, offset: 0x4DB82, size: 0x8, addend: 0x0, symName: __ZNSt3__19allocatorINS_20__shared_ptr_emplaceI6WindowNS0_IS2_EEEEE8allocateB8ue170006Em, symObjAddr: 0x2E18, symBinAddr: 0x100056564, symSize: 0x60 }
  - { offsetInCU: 0x7CDD, offset: 0x4DBBF, size: 0x8, addend: 0x0, symName: __ZNSt3__116allocator_traitsINS_9allocatorINS_20__shared_ptr_emplaceI6WindowNS1_IS3_EEEEEEE8max_sizeB8ue170006IS6_vEEmRKS6_, symObjAddr: 0x2E78, symBinAddr: 0x1000565C4, symSize: 0x24 }
  - { offsetInCU: 0x7D0B, offset: 0x4DBED, size: 0x8, addend: 0x0, symName: __ZNKSt3__19allocatorINS_20__shared_ptr_emplaceI6WindowNS0_IS2_EEEEE8max_sizeB8ue170006Ev, symObjAddr: 0x2F34, symBinAddr: 0x1000565E8, symSize: 0x18 }
  - { offsetInCU: 0x7D2F, offset: 0x4DC11, size: 0x8, addend: 0x0, symName: __ZNSt3__120__shared_ptr_emplaceI6WindowNS_9allocatorIS1_EEEC2B8ue170006IJRNS_12basic_stringIcNS_11char_traitsIcEENS2_IcEEEERtSC_EEES3_DpOT_, symObjAddr: 0x2FBC, symBinAddr: 0x100056600, symSize: 0x468 }
  - { offsetInCU: 0x7DB0, offset: 0x4DC92, size: 0x8, addend: 0x0, symName: __ZNSt3__119__shared_weak_countC2B8ue170006El, symObjAddr: 0x3424, symBinAddr: 0x100056A68, symSize: 0xD0 }
  - { offsetInCU: 0x7DE6, offset: 0x4DCC8, size: 0x8, addend: 0x0, symName: __ZNSt3__120__shared_ptr_emplaceI6WindowNS_9allocatorIS1_EEE8_StorageC1B8ue170006EOS3_, symObjAddr: 0x34F4, symBinAddr: 0x100056B38, symSize: 0x34 }
  - { offsetInCU: 0x7E1D, offset: 0x4DCFF, size: 0x8, addend: 0x0, symName: __ZNSt3__120__shared_ptr_emplaceI6WindowNS_9allocatorIS1_EEE8_StorageD1B8ue170006Ev, symObjAddr: 0x3528, symBinAddr: 0x100056B6C, symSize: 0x2C }
  - { offsetInCU: 0x7E45, offset: 0x4DD27, size: 0x8, addend: 0x0, symName: __ZNSt3__120__shared_ptr_emplaceI6WindowNS_9allocatorIS1_EEED1Ev, symObjAddr: 0x3554, symBinAddr: 0x100056B98, symSize: 0x2C }
  - { offsetInCU: 0x7E71, offset: 0x4DD53, size: 0x8, addend: 0x0, symName: __ZNSt3__120__shared_ptr_emplaceI6WindowNS_9allocatorIS1_EEED0Ev, symObjAddr: 0x3580, symBinAddr: 0x100056BC4, symSize: 0x30 }
  - { offsetInCU: 0x7E9C, offset: 0x4DD7E, size: 0x8, addend: 0x0, symName: __ZNSt3__120__shared_ptr_emplaceI6WindowNS_9allocatorIS1_EEE16__on_zero_sharedEv, symObjAddr: 0x35B0, symBinAddr: 0x100056BF4, symSize: 0x28 }
  - { offsetInCU: 0x7EC0, offset: 0x4DDA2, size: 0x8, addend: 0x0, symName: __ZNSt3__120__shared_ptr_emplaceI6WindowNS_9allocatorIS1_EEE21__on_zero_shared_weakEv, symObjAddr: 0x35D8, symBinAddr: 0x100056C1C, symSize: 0x208 }
  - { offsetInCU: 0x7F06, offset: 0x4DDE8, size: 0x8, addend: 0x0, symName: __ZNSt3__114__shared_countC2B8ue170006El, symObjAddr: 0x37E0, symBinAddr: 0x100056E24, symSize: 0xC0 }
  - { offsetInCU: 0x7F3C, offset: 0x4DE1E, size: 0x8, addend: 0x0, symName: __ZNSt3__120__shared_ptr_emplaceI6WindowNS_9allocatorIS1_EEE8_StorageC2B8ue170006EOS3_, symObjAddr: 0x38A0, symBinAddr: 0x100056EE4, symSize: 0x30 }
  - { offsetInCU: 0x7F72, offset: 0x4DE54, size: 0x8, addend: 0x0, symName: __ZNSt3__120__shared_ptr_emplaceI6WindowNS_9allocatorIS1_EEE8_Storage11__get_allocB8ue170006Ev, symObjAddr: 0x38D0, symBinAddr: 0x100056F14, symSize: 0x3C }
  - { offsetInCU: 0x7FC7, offset: 0x4DEA9, size: 0x8, addend: 0x0, symName: __ZNSt3__117__compressed_pairINS_9allocatorI6WindowEES2_E16__get_first_baseB8ue170006EPS4_, symObjAddr: 0x390C, symBinAddr: 0x100056F50, symSize: 0x14 }
  - { offsetInCU: 0x7FEA, offset: 0x4DECC, size: 0x8, addend: 0x0, symName: __ZNSt3__120__shared_ptr_emplaceI6WindowNS_9allocatorIS1_EEE8_StorageD2B8ue170006Ev, symObjAddr: 0x3920, symBinAddr: 0x100056F64, symSize: 0x2C }
  - { offsetInCU: 0x8012, offset: 0x4DEF4, size: 0x8, addend: 0x0, symName: __ZNSt3__120__shared_ptr_emplaceI6WindowNS_9allocatorIS1_EEED2Ev, symObjAddr: 0x394C, symBinAddr: 0x100056F90, symSize: 0x88 }
  - { offsetInCU: 0x803E, offset: 0x4DF20, size: 0x8, addend: 0x0, symName: __ZN6WindowD1Ev, symObjAddr: 0x39D4, symBinAddr: 0x100057018, symSize: 0x2C }
  - { offsetInCU: 0x8066, offset: 0x4DF48, size: 0x8, addend: 0x0, symName: __ZN6WindowD2Ev, symObjAddr: 0x3A00, symBinAddr: 0x100057044, symSize: 0x30 }
  - { offsetInCU: 0x8093, offset: 0x4DF75, size: 0x8, addend: 0x0, symName: __ZN11WindowPropsD1Ev, symObjAddr: 0x3A30, symBinAddr: 0x100057074, symSize: 0x2C }
  - { offsetInCU: 0x80BE, offset: 0x4DFA0, size: 0x8, addend: 0x0, symName: __ZN11WindowPropsD2Ev, symObjAddr: 0x3A5C, symBinAddr: 0x1000570A0, symSize: 0x30 }
  - { offsetInCU: 0x80E8, offset: 0x4DFCA, size: 0x8, addend: 0x0, symName: __ZNSt3__120__shared_ptr_emplaceI6WindowNS_9allocatorIS1_EEE11__get_allocB8ue170006Ev, symObjAddr: 0x3A8C, symBinAddr: 0x1000570D0, symSize: 0x28 }
  - { offsetInCU: 0x810D, offset: 0x4DFEF, size: 0x8, addend: 0x0, symName: __ZNSt3__116allocator_traitsINS_9allocatorINS_20__shared_ptr_emplaceI6WindowNS1_IS3_EEEEEEE10deallocateB8ue170006ERS6_PS5_m, symObjAddr: 0x3AB4, symBinAddr: 0x1000570F8, symSize: 0x34 }
  - { offsetInCU: 0x814F, offset: 0x4E031, size: 0x8, addend: 0x0, symName: __ZNSt3__114pointer_traitsIPNS_20__shared_ptr_emplaceI6WindowNS_9allocatorIS2_EEEEE10pointer_toB8ue170006ERS5_, symObjAddr: 0x3AE8, symBinAddr: 0x10005712C, symSize: 0x14 }
  - { offsetInCU: 0x8171, offset: 0x4E053, size: 0x8, addend: 0x0, symName: __ZNSt3__19allocatorINS_20__shared_ptr_emplaceI6WindowNS0_IS2_EEEEE10deallocateB8ue170006EPS4_m, symObjAddr: 0x3AFC, symBinAddr: 0x100057140, symSize: 0x50 }
  - { offsetInCU: 0x81B2, offset: 0x4E094, size: 0x8, addend: 0x0, symName: __ZNSt3__110shared_ptrI6WindowEC1B8ue170006Ev, symObjAddr: 0x3C54, symBinAddr: 0x100057190, symSize: 0x2C }
  - { offsetInCU: 0x81DA, offset: 0x4E0BC, size: 0x8, addend: 0x0, symName: __ZNSt3__110shared_ptrI6WindowE18__enable_weak_thisB8ue170006Ez, symObjAddr: 0x3C80, symBinAddr: 0x1000571BC, symSize: 0x10 }
  - { offsetInCU: 0x81FF, offset: 0x4E0E1, size: 0x8, addend: 0x0, symName: __ZNSt3__110shared_ptrI6WindowEC2B8ue170006Ev, symObjAddr: 0x3C90, symBinAddr: 0x1000571CC, symSize: 0x9C }
  - { offsetInCU: 0x8226, offset: 0x4E108, size: 0x8, addend: 0x0, symName: __ZNSt3__120__shared_ptr_emplaceI6WindowNS_9allocatorIS1_EEE8_Storage10__get_elemB8ue170006Ev, symObjAddr: 0x3D2C, symBinAddr: 0x100057268, symSize: 0x3C }
  - { offsetInCU: 0x827B, offset: 0x4E15D, size: 0x8, addend: 0x0, symName: __ZNSt3__117__compressed_pairINS_9allocatorI6WindowEES2_E17__get_second_baseB8ue170006EPS4_, symObjAddr: 0x3D68, symBinAddr: 0x1000572A4, symSize: 0x14 }
  - { offsetInCU: 0x829E, offset: 0x4E180, size: 0x8, addend: 0x0, symName: __ZNSt3__118__allocation_guardINS_9allocatorINS_20__shared_ptr_emplaceI6WindowNS1_IS3_EEEEEEED2B8ue170006Ev, symObjAddr: 0x3D7C, symBinAddr: 0x1000572B8, symSize: 0x2C }
  - { offsetInCU: 0x82C5, offset: 0x4E1A7, size: 0x8, addend: 0x0, symName: __ZNSt3__118__allocation_guardINS_9allocatorINS_20__shared_ptr_emplaceI6WindowNS1_IS3_EEEEEEE9__destroyB8ue170006Ev, symObjAddr: 0x3DA8, symBinAddr: 0x1000572E4, symSize: 0xFC }
  - { offsetInCU: 0x82EA, offset: 0x4E1CC, size: 0x8, addend: 0x0, symName: __ZNSt3__19allocatorI6WindowEC2B8ue170006Ev, symObjAddr: 0x3EA4, symBinAddr: 0x1000573E0, symSize: 0x2C }
  - { offsetInCU: 0x8312, offset: 0x4E1F4, size: 0x8, addend: 0x0, symName: __ZNSt3__116__non_trivial_ifILb1ENS_9allocatorI6WindowEEEC2B8ue170006Ev, symObjAddr: 0x3ED0, symBinAddr: 0x10005740C, symSize: 0x14 }
  - { offsetInCU: 0x833B, offset: 0x4E21D, size: 0x8, addend: 0x0, symName: __ZNSt3__110shared_ptrI6WindowEC1B8ue170006EOS2_, symObjAddr: 0x3EE4, symBinAddr: 0x100057420, symSize: 0x34 }
  - { offsetInCU: 0x8371, offset: 0x4E253, size: 0x8, addend: 0x0, symName: __ZNSt3__110shared_ptrI6WindowE4swapB8ue170006ERS2_, symObjAddr: 0x3F18, symBinAddr: 0x100057454, symSize: 0x44 }
  - { offsetInCU: 0x83A5, offset: 0x4E287, size: 0x8, addend: 0x0, symName: __ZNSt3__110shared_ptrI6WindowEC2B8ue170006EOS2_, symObjAddr: 0x3F5C, symBinAddr: 0x100057498, symSize: 0x1B8 }
  - { offsetInCU: 0x83DC, offset: 0x4E2BE, size: 0x8, addend: 0x0, symName: __ZNSt3__110shared_ptrI6WindowED2B8ue170006Ev, symObjAddr: 0x437C, symBinAddr: 0x100057784, symSize: 0xC8 }
  - { offsetInCU: 0x8404, offset: 0x4E2E6, size: 0x8, addend: 0x0, symName: __ZN10LayerStackC1Ev, symObjAddr: 0x45F8, symBinAddr: 0x10005784C, symSize: 0x2C }
  - { offsetInCU: 0x842C, offset: 0x4E30E, size: 0x8, addend: 0x0, symName: __ZNSt3__110unique_ptrI10LayerStackNS_14default_deleteIS1_EEEC1B8ue170006ILb1EvEEPS1_, symObjAddr: 0x4624, symBinAddr: 0x100057878, symSize: 0x34 }
  - { offsetInCU: 0x846D, offset: 0x4E34F, size: 0x8, addend: 0x0, symName: __ZN10LayerStackC2Ev, symObjAddr: 0x4658, symBinAddr: 0x1000578AC, symSize: 0x240 }
  - { offsetInCU: 0x8496, offset: 0x4E378, size: 0x8, addend: 0x0, symName: __ZNSt3__16vectorIP5LayerNS_9allocatorIS2_EEEC1B8ue170006Ev, symObjAddr: 0x4898, symBinAddr: 0x100057AEC, symSize: 0x2C }
  - { offsetInCU: 0x84BE, offset: 0x4E3A0, size: 0x8, addend: 0x0, symName: __ZNSt3__111__wrap_iterIPP5LayerEC1B8ue170006Ev, symObjAddr: 0x48C4, symBinAddr: 0x100057B18, symSize: 0x2C }
  - { offsetInCU: 0x84E6, offset: 0x4E3C8, size: 0x8, addend: 0x0, symName: __ZNSt3__16vectorIP5LayerNS_9allocatorIS2_EEEC2B8ue170006Ev, symObjAddr: 0x4B58, symBinAddr: 0x100057B44, symSize: 0x2E8 }
  - { offsetInCU: 0x8514, offset: 0x4E3F6, size: 0x8, addend: 0x0, symName: __ZNSt3__117__compressed_pairIPP5LayerNS_9allocatorIS2_EEEC1B8ue170006IDnNS_18__default_init_tagEEEOT_OT0_, symObjAddr: 0x4E40, symBinAddr: 0x100057E2C, symSize: 0x3C }
  - { offsetInCU: 0x856A, offset: 0x4E44C, size: 0x8, addend: 0x0, symName: __ZNSt3__117__compressed_pairIPP5LayerNS_9allocatorIS2_EEEC2B8ue170006IDnNS_18__default_init_tagEEEOT_OT0_, symObjAddr: 0x4E7C, symBinAddr: 0x100057E68, symSize: 0x40 }
  - { offsetInCU: 0x85C0, offset: 0x4E4A2, size: 0x8, addend: 0x0, symName: __ZNSt3__122__compressed_pair_elemINS_9allocatorIP5LayerEELi1ELb1EEC2B8ue170006ENS_18__default_init_tagE, symObjAddr: 0x4F20, symBinAddr: 0x100057EA8, symSize: 0x2C }
  - { offsetInCU: 0x85F3, offset: 0x4E4D5, size: 0x8, addend: 0x0, symName: __ZNSt3__19allocatorIP5LayerEC2B8ue170006Ev, symObjAddr: 0x4F4C, symBinAddr: 0x100057ED4, symSize: 0x2C }
  - { offsetInCU: 0x861B, offset: 0x4E4FD, size: 0x8, addend: 0x0, symName: __ZNSt3__116__non_trivial_ifILb1ENS_9allocatorIP5LayerEEEC2B8ue170006Ev, symObjAddr: 0x4F78, symBinAddr: 0x100057F00, symSize: 0x14 }
  - { offsetInCU: 0x8644, offset: 0x4E526, size: 0x8, addend: 0x0, symName: __ZNSt3__111__wrap_iterIPP5LayerEC2B8ue170006Ev, symObjAddr: 0x4F8C, symBinAddr: 0x100057F14, symSize: 0x60 }
  - { offsetInCU: 0x866C, offset: 0x4E54E, size: 0x8, addend: 0x0, symName: __ZNSt3__110unique_ptrI10LayerStackNS_14default_deleteIS1_EEEC2B8ue170006ILb1EvEEPS1_, symObjAddr: 0x528C, symBinAddr: 0x100057F74, symSize: 0x260 }
  - { offsetInCU: 0x86B2, offset: 0x4E594, size: 0x8, addend: 0x0, symName: __ZNSt3__117__compressed_pairIP10LayerStackNS_14default_deleteIS1_EEEC1B8ue170006IRS2_NS_16__value_init_tagEEEOT_OT0_, symObjAddr: 0x54EC, symBinAddr: 0x1000581D4, symSize: 0x3C }
  - { offsetInCU: 0x8708, offset: 0x4E5EA, size: 0x8, addend: 0x0, symName: __ZNSt3__117__compressed_pairIP10LayerStackNS_14default_deleteIS1_EEEC2B8ue170006IRS2_NS_16__value_init_tagEEEOT_OT0_, symObjAddr: 0x5528, symBinAddr: 0x100058210, symSize: 0x40 }
  - { offsetInCU: 0x875E, offset: 0x4E640, size: 0x8, addend: 0x0, symName: __ZNSt3__122__compressed_pair_elemIP10LayerStackLi0ELb0EEC2B8ue170006IRS2_vEEOT_, symObjAddr: 0x5568, symBinAddr: 0x100058250, symSize: 0xB0 }
  - { offsetInCU: 0x879D, offset: 0x4E67F, size: 0x8, addend: 0x0, symName: __ZNSt3__110unique_ptrI10LayerStackNS_14default_deleteIS1_EEE5resetB8ue170006EPS1_, symObjAddr: 0x5618, symBinAddr: 0x100058300, symSize: 0xEC }
  - { offsetInCU: 0x87E0, offset: 0x4E6C2, size: 0x8, addend: 0x0, symName: __ZNSt3__110unique_ptrI10LayerStackNS_14default_deleteIS1_EEE7releaseB8ue170006Ev, symObjAddr: 0x5704, symBinAddr: 0x1000583EC, symSize: 0xB8 }
  - { offsetInCU: 0x8814, offset: 0x4E6F6, size: 0x8, addend: 0x0, symName: __ZNSt3__110unique_ptrI10LayerStackNS_14default_deleteIS1_EEE11get_deleterB8ue170006Ev, symObjAddr: 0x57BC, symBinAddr: 0x1000584A4, symSize: 0x24 }
  - { offsetInCU: 0x8838, offset: 0x4E71A, size: 0x8, addend: 0x0, symName: __ZNSt3__117__compressed_pairIP10LayerStackNS_14default_deleteIS1_EEE6secondB8ue170006Ev, symObjAddr: 0x57E0, symBinAddr: 0x1000584C8, symSize: 0x24 }
  - { offsetInCU: 0x885C, offset: 0x4E73E, size: 0x8, addend: 0x0, symName: __ZNSt3__117__compressed_pairIP10LayerStackNS_14default_deleteIS1_EEE5firstB8ue170006Ev, symObjAddr: 0x5804, symBinAddr: 0x1000584EC, symSize: 0x24 }
  - { offsetInCU: 0x8880, offset: 0x4E762, size: 0x8, addend: 0x0, symName: __ZNKSt3__114default_deleteI10LayerStackEclB8ue170006EPS1_, symObjAddr: 0x5828, symBinAddr: 0x100058510, symSize: 0x4C }
  - { offsetInCU: 0x88B3, offset: 0x4E795, size: 0x8, addend: 0x0, symName: __ZNSt3__122__compressed_pair_elemIP10LayerStackLi0ELb0EE5__getB8ue170006Ev, symObjAddr: 0x5874, symBinAddr: 0x10005855C, symSize: 0x14 }
  - { offsetInCU: 0x88D7, offset: 0x4E7B9, size: 0x8, addend: 0x0, symName: __ZNSt3__122__compressed_pair_elemINS_14default_deleteI10LayerStackEELi1ELb1EE5__getB8ue170006Ev, symObjAddr: 0x5888, symBinAddr: 0x100058570, symSize: 0x14 }
  - { offsetInCU: 0x88FB, offset: 0x4E7DD, size: 0x8, addend: 0x0, symName: __ZNSt3__110unique_ptrI10LayerStackNS_14default_deleteIS1_EEED2B8ue170006Ev, symObjAddr: 0x589C, symBinAddr: 0x100058584, symSize: 0x30 }
  - { offsetInCU: 0x8923, offset: 0x4E805, size: 0x8, addend: 0x0, symName: __ZN17FramebufferConfigC2Ev, symObjAddr: 0x58CC, symBinAddr: 0x1000585B4, symSize: 0x8C }
  - { offsetInCU: 0x894E, offset: 0x4E830, size: 0x8, addend: 0x0, symName: __ZNSt3__110shared_ptrI11FramebufferEC1B8ue170006EOS2_, symObjAddr: 0x5958, symBinAddr: 0x100058640, symSize: 0x34 }
  - { offsetInCU: 0x8984, offset: 0x4E866, size: 0x8, addend: 0x0, symName: __ZNSt3__110shared_ptrI11FramebufferE4swapB8ue170006ERS2_, symObjAddr: 0x598C, symBinAddr: 0x100058674, symSize: 0x44 }
  - { offsetInCU: 0x89B8, offset: 0x4E89A, size: 0x8, addend: 0x0, symName: __ZNSt3__110shared_ptrI11FramebufferEC2B8ue170006EOS2_, symObjAddr: 0x59D0, symBinAddr: 0x1000586B8, symSize: 0x1B8 }
  - { offsetInCU: 0x89EF, offset: 0x4E8D1, size: 0x8, addend: 0x0, symName: __ZNSt3__110shared_ptrI11FramebufferED2B8ue170006Ev, symObjAddr: 0x5CBC, symBinAddr: 0x1000589A4, symSize: 0xC8 }
  - { offsetInCU: 0x8A17, offset: 0x4E8F9, size: 0x8, addend: 0x0, symName: __ZNSt3__110unique_ptrI5ReachNS_14default_deleteIS1_EEEC2B8ue170006ILb1EvEEPS1_, symObjAddr: 0x5D84, symBinAddr: 0x100058A6C, symSize: 0x260 }
  - { offsetInCU: 0x8A5D, offset: 0x4E93F, size: 0x8, addend: 0x0, symName: __ZNSt3__117__compressed_pairIP5ReachNS_14default_deleteIS1_EEEC1B8ue170006IRS2_NS_16__value_init_tagEEEOT_OT0_, symObjAddr: 0x5FE4, symBinAddr: 0x100058CCC, symSize: 0x3C }
  - { offsetInCU: 0x8AB3, offset: 0x4E995, size: 0x8, addend: 0x0, symName: __ZNSt3__117__compressed_pairIP5ReachNS_14default_deleteIS1_EEEC2B8ue170006IRS2_NS_16__value_init_tagEEEOT_OT0_, symObjAddr: 0x6020, symBinAddr: 0x100058D08, symSize: 0x40 }
  - { offsetInCU: 0x8B09, offset: 0x4E9EB, size: 0x8, addend: 0x0, symName: __ZNSt3__122__compressed_pair_elemIP5ReachLi0ELb0EEC2B8ue170006IRS2_vEEOT_, symObjAddr: 0x6060, symBinAddr: 0x100058D48, symSize: 0xB0 }
  - { offsetInCU: 0x8B49, offset: 0x4EA2B, size: 0x8, addend: 0x0, symName: __ZNSt3__122__compressed_pair_elemINS_14default_deleteI5ReachEELi1ELb1EEC2B8ue170006ENS_16__value_init_tagE, symObjAddr: 0x6110, symBinAddr: 0x100058DF8, symSize: 0x14 }
  - { offsetInCU: 0x8B7D, offset: 0x4EA5F, size: 0x8, addend: 0x0, symName: __ZNSt3__110unique_ptrI5ReachNS_14default_deleteIS1_EEED2B8ue170006Ev, symObjAddr: 0x6124, symBinAddr: 0x100058E0C, symSize: 0x30 }
  - { offsetInCU: 0x8BA4, offset: 0x4EA86, size: 0x8, addend: 0x0, symName: __ZNSt3__110unique_ptrI5ReachNS_14default_deleteIS1_EEE5resetB8ue170006EPS1_, symObjAddr: 0x6154, symBinAddr: 0x100058E3C, symSize: 0xEC }
  - { offsetInCU: 0x8BE7, offset: 0x4EAC9, size: 0x8, addend: 0x0, symName: __ZNSt3__117__compressed_pairIP5ReachNS_14default_deleteIS1_EEE5firstB8ue170006Ev, symObjAddr: 0x6240, symBinAddr: 0x100058F28, symSize: 0x24 }
  - { offsetInCU: 0x8C0B, offset: 0x4EAED, size: 0x8, addend: 0x0, symName: __ZNSt3__117__compressed_pairIP5ReachNS_14default_deleteIS1_EEE6secondB8ue170006Ev, symObjAddr: 0x6264, symBinAddr: 0x100058F4C, symSize: 0x24 }
  - { offsetInCU: 0x8C2F, offset: 0x4EB11, size: 0x8, addend: 0x0, symName: __ZNKSt3__114default_deleteI5ReachEclB8ue170006EPS1_, symObjAddr: 0x6288, symBinAddr: 0x100058F70, symSize: 0x4C }
  - { offsetInCU: 0x8C62, offset: 0x4EB44, size: 0x8, addend: 0x0, symName: __ZNSt3__122__compressed_pair_elemIP5ReachLi0ELb0EE5__getB8ue170006Ev, symObjAddr: 0x62D4, symBinAddr: 0x100058FBC, symSize: 0x14 }
  - { offsetInCU: 0x8C86, offset: 0x4EB68, size: 0x8, addend: 0x0, symName: __ZNSt3__122__compressed_pair_elemINS_14default_deleteI5ReachEELi1ELb1EE5__getB8ue170006Ev, symObjAddr: 0x62E8, symBinAddr: 0x100058FD0, symSize: 0x14 }
  - { offsetInCU: 0x8CAA, offset: 0x4EB8C, size: 0x8, addend: 0x0, symName: __ZN5ReachD1Ev, symObjAddr: 0x62FC, symBinAddr: 0x100058FE4, symSize: 0x2C }
  - { offsetInCU: 0x8CD2, offset: 0x4EBB4, size: 0x8, addend: 0x0, symName: __ZN5ReachD2Ev, symObjAddr: 0x6328, symBinAddr: 0x100059010, symSize: 0x2C }
  - { offsetInCU: 0x8CF9, offset: 0x4EBDB, size: 0x8, addend: 0x0, symName: __ZNKSt3__117__compressed_pairIP5ReachNS_14default_deleteIS1_EEE5firstB8ue170006Ev, symObjAddr: 0x6354, symBinAddr: 0x10005903C, symSize: 0x24 }
  - { offsetInCU: 0x8D1E, offset: 0x4EC00, size: 0x8, addend: 0x0, symName: __ZNKSt3__122__compressed_pair_elemIP5ReachLi0ELb0EE5__getB8ue170006Ev, symObjAddr: 0x6378, symBinAddr: 0x100059060, symSize: 0x14 }
  - { offsetInCU: 0x3B, offset: 0x4ECFB, size: 0x8, addend: 0x0, symName: _.str, symObjAddr: 0x21660, symBinAddr: 0x100491320, symSize: 0x0 }
  - { offsetInCU: 0x6C, offset: 0x4ED2C, size: 0x8, addend: 0x0, symName: _.str.1, symObjAddr: 0x21680, symBinAddr: 0x100491340, symSize: 0x0 }
  - { offsetInCU: 0x8A, offset: 0x4ED4A, size: 0x8, addend: 0x0, symName: _.str.2, symObjAddr: 0x216A0, symBinAddr: 0x100491360, symSize: 0x0 }
  - { offsetInCU: 0xA8, offset: 0x4ED68, size: 0x8, addend: 0x0, symName: _.str.3, symObjAddr: 0x216E0, symBinAddr: 0x1004913A0, symSize: 0x0 }
  - { offsetInCU: 0xBA, offset: 0x4ED7A, size: 0x8, addend: 0x0, symName: _.str.4, symObjAddr: 0x21720, symBinAddr: 0x1004913E0, symSize: 0x0 }
  - { offsetInCU: 0xD8, offset: 0x4ED98, size: 0x8, addend: 0x0, symName: _.str.5, symObjAddr: 0x21780, symBinAddr: 0x100491440, symSize: 0x0 }
  - { offsetInCU: 0xF6, offset: 0x4EDB6, size: 0x8, addend: 0x0, symName: _.str.6, symObjAddr: 0x217A0, symBinAddr: 0x100491460, symSize: 0x0 }
  - { offsetInCU: 0x114, offset: 0x4EDD4, size: 0x8, addend: 0x0, symName: _.str.7, symObjAddr: 0x217E0, symBinAddr: 0x1004914A0, symSize: 0x0 }
  - { offsetInCU: 0x126, offset: 0x4EDE6, size: 0x8, addend: 0x0, symName: _.str.8, symObjAddr: 0x21820, symBinAddr: 0x1004914E0, symSize: 0x0 }
  - { offsetInCU: 0x138, offset: 0x4EDF8, size: 0x8, addend: 0x0, symName: _.str.9, symObjAddr: 0x21860, symBinAddr: 0x100491520, symSize: 0x0 }
  - { offsetInCU: 0x156, offset: 0x4EE16, size: 0x8, addend: 0x0, symName: _.str.10, symObjAddr: 0x218A0, symBinAddr: 0x100491560, symSize: 0x0 }
  - { offsetInCU: 0x168, offset: 0x4EE28, size: 0x8, addend: 0x0, symName: _.str.11, symObjAddr: 0x218E0, symBinAddr: 0x1004915A0, symSize: 0x0 }
  - { offsetInCU: 0x17A, offset: 0x4EE3A, size: 0x8, addend: 0x0, symName: _.str.12, symObjAddr: 0x21F00, symBinAddr: 0x100486540, symSize: 0x0 }
  - { offsetInCU: 0x198, offset: 0x4EE58, size: 0x8, addend: 0x0, symName: _.str.13, symObjAddr: 0x21900, symBinAddr: 0x1004915C0, symSize: 0x0 }
  - { offsetInCU: 0x1B6, offset: 0x4EE76, size: 0x8, addend: 0x0, symName: _.str.14, symObjAddr: 0x21940, symBinAddr: 0x100491600, symSize: 0x0 }
  - { offsetInCU: 0x1D4, offset: 0x4EE94, size: 0x8, addend: 0x0, symName: _.str.15, symObjAddr: 0x21980, symBinAddr: 0x100491640, symSize: 0x0 }
  - { offsetInCU: 0x1E6, offset: 0x4EEA6, size: 0x8, addend: 0x0, symName: _.str.16, symObjAddr: 0x219C0, symBinAddr: 0x100491680, symSize: 0x0 }
  - { offsetInCU: 0x1F8, offset: 0x4EEB8, size: 0x8, addend: 0x0, symName: _.str.17, symObjAddr: 0x219E0, symBinAddr: 0x1004916A0, symSize: 0x0 }
  - { offsetInCU: 0x216, offset: 0x4EED6, size: 0x8, addend: 0x0, symName: _.str.18, symObjAddr: 0x21A00, symBinAddr: 0x1004916C0, symSize: 0x0 }
  - { offsetInCU: 0x235, offset: 0x4EEF5, size: 0x8, addend: 0x0, symName: _.str.19, symObjAddr: 0x21A20, symBinAddr: 0x1004916E0, symSize: 0x0 }
  - { offsetInCU: 0x253, offset: 0x4EF13, size: 0x8, addend: 0x0, symName: _.str.20, symObjAddr: 0x21A40, symBinAddr: 0x100491700, symSize: 0x0 }
  - { offsetInCU: 0x265, offset: 0x4EF25, size: 0x8, addend: 0x0, symName: _.str.21, symObjAddr: 0x21A60, symBinAddr: 0x100491720, symSize: 0x0 }
  - { offsetInCU: 0x283, offset: 0x4EF43, size: 0x8, addend: 0x0, symName: _.str.22, symObjAddr: 0x21A80, symBinAddr: 0x100491740, symSize: 0x0 }
  - { offsetInCU: 0x295, offset: 0x4EF55, size: 0x8, addend: 0x0, symName: _.str.23, symObjAddr: 0x21AA0, symBinAddr: 0x100491760, symSize: 0x0 }
  - { offsetInCU: 0x2B3, offset: 0x4EF73, size: 0x8, addend: 0x0, symName: _.str.24, symObjAddr: 0x21AC0, symBinAddr: 0x100491780, symSize: 0x0 }
  - { offsetInCU: 0x2C5, offset: 0x4EF85, size: 0x8, addend: 0x0, symName: _.str.25, symObjAddr: 0x21AE0, symBinAddr: 0x1004917A0, symSize: 0x0 }
  - { offsetInCU: 0x2D7, offset: 0x4EF97, size: 0x8, addend: 0x0, symName: _.str.26, symObjAddr: 0x21B00, symBinAddr: 0x1004917C0, symSize: 0x0 }
  - { offsetInCU: 0x2F5, offset: 0x4EFB5, size: 0x8, addend: 0x0, symName: _.str.27, symObjAddr: 0x21B20, symBinAddr: 0x1004917E0, symSize: 0x0 }
  - { offsetInCU: 0x307, offset: 0x4EFC7, size: 0x8, addend: 0x0, symName: _.str.28, symObjAddr: 0x21B60, symBinAddr: 0x100491820, symSize: 0x0 }
  - { offsetInCU: 0x325, offset: 0x4EFE5, size: 0x8, addend: 0x0, symName: _.str.29, symObjAddr: 0x21B80, symBinAddr: 0x100491840, symSize: 0x0 }
  - { offsetInCU: 0x344, offset: 0x4F004, size: 0x8, addend: 0x0, symName: _.str.30, symObjAddr: 0x21BC0, symBinAddr: 0x100491880, symSize: 0x0 }
  - { offsetInCU: 0x357, offset: 0x4F017, size: 0x8, addend: 0x0, symName: _.str.31, symObjAddr: 0x21BE0, symBinAddr: 0x1004918A0, symSize: 0x0 }
  - { offsetInCU: 0x955E, offset: 0x5821E, size: 0x8, addend: 0x0, symName: __ZNSt3__16copy_nB8ue170006IPKcmPcEENS_9enable_ifIXsr37__has_random_access_iterator_categoryIT_EE5valueET1_E4typeES5_T0_S6_, symObjAddr: 0x1E9C0, symBinAddr: 0x10006F3C4, symSize: 0x44 }
  - { offsetInCU: 0xA4F4, offset: 0x591B4, size: 0x8, addend: 0x0, symName: __ZNSt3__111make_sharedB8ue170006I17PerspectiveCameraJRN3glm3vecILi3EfLNS2_9qualifierE0EEERjS7_EvEENS_10shared_ptrIT_EEDpOT0_, symObjAddr: 0x2334, symBinAddr: 0x10005B320, symSize: 0x1F8 }
  - { offsetInCU: 0xA562, offset: 0x59222, size: 0x8, addend: 0x0, symName: __ZNSt3__111make_sharedB8ue170006INS_6vectorINS_10shared_ptrI5ModelEENS_9allocatorIS4_EEEEJEvEENS2_IT_EEDpOT0_, symObjAddr: 0x2720, symBinAddr: 0x10005B70C, symSize: 0x1E0 }
  - { offsetInCU: 0xA591, offset: 0x59251, size: 0x8, addend: 0x0, symName: __ZNSt3__111make_sharedB8ue170006I5ModelJRA36_Kc11OBJECT_TYPEP8MaterialEvEENS_10shared_ptrIT_EEDpOT0_, symObjAddr: 0x2AF4, symBinAddr: 0x10005BAE0, symSize: 0x1F8 }
  - { offsetInCU: 0xA5FF, offset: 0x592BF, size: 0x8, addend: 0x0, symName: __ZNSt3__111make_sharedB8ue170006I5ModelJRA32_Kc11OBJECT_TYPEP8MaterialEvEENS_10shared_ptrIT_EEDpOT0_, symObjAddr: 0x2F68, symBinAddr: 0x10005BEDC, symSize: 0x1F8 }
  - { offsetInCU: 0xA66D, offset: 0x5932D, size: 0x8, addend: 0x0, symName: __ZNSt3__111make_sharedB8ue170006I6SkyboxJNS_10shared_ptrI9Texture2DEENS2_I6ShaderEEEvEENS2_IT_EEDpOT0_, symObjAddr: 0x322C, symBinAddr: 0x10005C1A0, symSize: 0x1F0 }
  - { offsetInCU: 0xA6C6, offset: 0x59386, size: 0x8, addend: 0x0, symName: __ZNSt3__1neB8ue170006IPNS_10shared_ptrI5ModelEEEEbRKNS_11__wrap_iterIT_EES9_, symObjAddr: 0x51A8, symBinAddr: 0x10005E0AC, symSize: 0x34 }
  - { offsetInCU: 0xA709, offset: 0x593C9, size: 0x8, addend: 0x0, symName: __ZNSt3__1plB8ue170006IcNS_11char_traitsIcEENS_9allocatorIcEEEENS_12basic_stringIT_T0_T1_EERKS9_PKS6_, symObjAddr: 0x5278, symBinAddr: 0x10005E17C, symSize: 0x2E8 }
  - { offsetInCU: 0xA7B4, offset: 0x59474, size: 0x8, addend: 0x0, symName: __ZNSt3__1eqB8ue170006IPNS_10shared_ptrI5ModelEEEEbRKNS_11__wrap_iterIT_EES9_, symObjAddr: 0x937C, symBinAddr: 0x10005EB8C, symSize: 0x48 }
  - { offsetInCU: 0xA7F7, offset: 0x594B7, size: 0x8, addend: 0x0, symName: __ZNSt3__14swapB8ue170006IP11CubeTextureEENS_9enable_ifIXaasr21is_move_constructibleIT_EE5valuesr18is_move_assignableIS4_EE5valueEvE4typeERS4_S7_, symObjAddr: 0x99DC, symBinAddr: 0x10005EEA4, symSize: 0x134 }
  - { offsetInCU: 0xA848, offset: 0x59508, size: 0x8, addend: 0x0, symName: __ZNSt3__115allocate_sharedB8ue170006I17PerspectiveCameraNS_9allocatorIS1_EEJRN3glm3vecILi3EfLNS4_9qualifierE0EEERjS9_EvEENS_10shared_ptrIT_EERKT0_DpOT1_, symObjAddr: 0xA674, symBinAddr: 0x10005F3C0, symSize: 0x310 }
  - { offsetInCU: 0xAC26, offset: 0x598E6, size: 0x8, addend: 0x0, symName: __ZNSt3__14swapB8ue170006IP17PerspectiveCameraEENS_9enable_ifIXaasr21is_move_constructibleIT_EE5valuesr18is_move_assignableIS4_EE5valueEvE4typeERS4_S7_, symObjAddr: 0xC10C, symBinAddr: 0x100060AB8, symSize: 0x134 }
  - { offsetInCU: 0xAC77, offset: 0x59937, size: 0x8, addend: 0x0, symName: __ZNSt3__115allocate_sharedB8ue170006INS_6vectorINS_10shared_ptrI5ModelEENS_9allocatorIS4_EEEENS5_IS7_EEJEvEENS2_IT_EERKT0_DpOT1_, symObjAddr: 0xC240, symBinAddr: 0x100060BEC, symSize: 0x2F8 }
  - { offsetInCU: 0xAFE3, offset: 0x59CA3, size: 0x8, addend: 0x0, symName: __ZNSt3__112__to_addressB8ue170006INS_10shared_ptrI5ModelEEEEPT_S5_, symObjAddr: 0xE028, symBinAddr: 0x1000629D4, symSize: 0x14 }
  - { offsetInCU: 0xB04C, offset: 0x59D0C, size: 0x8, addend: 0x0, symName: __ZNSt3__14swapB8ue170006IPNS_6vectorINS_10shared_ptrI5ModelEENS_9allocatorIS4_EEEEEENS_9enable_ifIXaasr21is_move_constructibleIT_EE5valuesr18is_move_assignableISA_EE5valueEvE4typeERSA_SD_, symObjAddr: 0xE76C, symBinAddr: 0x100063118, symSize: 0x134 }
  - { offsetInCU: 0xB09D, offset: 0x59D5D, size: 0x8, addend: 0x0, symName: __ZNSt3__115allocate_sharedB8ue170006I5ModelNS_9allocatorIS1_EEJRA36_Kc11OBJECT_TYPEP8MaterialEvEENS_10shared_ptrIT_EERKT0_DpOT1_, symObjAddr: 0xE8A0, symBinAddr: 0x10006324C, symSize: 0x310 }
  - { offsetInCU: 0xB448, offset: 0x5A108, size: 0x8, addend: 0x0, symName: __ZNSt3__119__str_find_first_ofB8ue170006IcmNS_11char_traitsIcEELm18446744073709551615EEET0_PKT_S3_S6_S3_S3_, symObjAddr: 0x11BCC, symBinAddr: 0x100066058, symSize: 0x110 }
  - { offsetInCU: 0xB4F0, offset: 0x5A1B0, size: 0x8, addend: 0x0, symName: __ZNSt3__118__find_first_of_ceB8ue170006IPKcS2_RDoFbccEEET_S5_S5_T0_S6_OT1_, symObjAddr: 0x11D30, symBinAddr: 0x100066168, symSize: 0x1C8 }
  - { offsetInCU: 0xB5BE, offset: 0x5A27E, size: 0x8, addend: 0x0, symName: __ZNSt3__119__allocate_at_leastB8ue170006INS_9allocatorINS_10shared_ptrI5ModelEEEEEENS_19__allocation_resultINS_16allocator_traitsIT_E7pointerEEERS8_m, symObjAddr: 0x18838, symBinAddr: 0x1000694F0, symSize: 0x28C }
  - { offsetInCU: 0xB603, offset: 0x5A2C3, size: 0x8, addend: 0x0, symName: __ZNSt3__142__uninitialized_allocator_move_if_noexceptB8ue170006INS_9allocatorINS_10shared_ptrI5ModelEEEENS_16reverse_iteratorIPS4_EES8_S8_EET2_RT_T0_T1_S9_, symObjAddr: 0x18CD4, symBinAddr: 0x10006998C, symSize: 0x544 }
  - { offsetInCU: 0xB6BA, offset: 0x5A37A, size: 0x8, addend: 0x0, symName: __ZNSt3__14swapB8ue170006IPNS_10shared_ptrI5ModelEEEENS_9enable_ifIXaasr21is_move_constructibleIT_EE5valuesr18is_move_assignableIS6_EE5valueEvE4typeERS6_S9_, symObjAddr: 0x192B0, symBinAddr: 0x100069F68, symSize: 0x134 }
  - { offsetInCU: 0xB70B, offset: 0x5A3CB, size: 0x8, addend: 0x0, symName: __ZNSt3__122__make_exception_guardB8ue170006INS_29_AllocatorDestroyRangeReverseINS_9allocatorINS_10shared_ptrI5ModelEEEENS_16reverse_iteratorIPS5_EEEEEENS_28__exception_guard_exceptionsIT_EESC_, symObjAddr: 0x194A4, symBinAddr: 0x10006A15C, symSize: 0x1F8 }
  - { offsetInCU: 0xB742, offset: 0x5A402, size: 0x8, addend: 0x0, symName: __ZNSt3__1neB8ue170006IPNS_10shared_ptrI5ModelEES4_EEbRKNS_16reverse_iteratorIT_EERKNS5_IT0_EE, symObjAddr: 0x196E0, symBinAddr: 0x10006A398, symSize: 0x48 }
  - { offsetInCU: 0xB78E, offset: 0x5A44E, size: 0x8, addend: 0x0, symName: __ZNSt3__112__to_addressB8ue170006INS_16reverse_iteratorIPNS_10shared_ptrI5ModelEEEEvEEu7__decayIDTclsr19__to_address_helperIT_EE6__callclsr3stdE7declvalIRKS7_EEEEES9_, symObjAddr: 0x1975C, symBinAddr: 0x10006A414, symSize: 0x24 }
  - { offsetInCU: 0xB7EE, offset: 0x5A4AE, size: 0x8, addend: 0x0, symName: __ZNSt3__119__allocator_destroyB8ue170006INS_9allocatorINS_10shared_ptrI5ModelEEEENS_16reverse_iteratorINS6_IPS4_EEEES9_EEvRT_T0_T1_, symObjAddr: 0x1A1DC, symBinAddr: 0x10006AE94, symSize: 0x70 }
  - { offsetInCU: 0xB854, offset: 0x5A514, size: 0x8, addend: 0x0, symName: __ZNSt3__1neB8ue170006INS_16reverse_iteratorIPNS_10shared_ptrI5ModelEEEES6_EEbRKNS1_IT_EERKNS1_IT0_EE, symObjAddr: 0x1A494, symBinAddr: 0x10006B14C, symSize: 0x2CC }
  - { offsetInCU: 0xB8A2, offset: 0x5A562, size: 0x8, addend: 0x0, symName: __ZNSt3__112__to_addressB8ue170006INS_16reverse_iteratorINS1_IPNS_10shared_ptrI5ModelEEEEEEvEEu7__decayIDTclsr19__to_address_helperIT_EE6__callclsr3stdE7declvalIRKS8_EEEEESA_, symObjAddr: 0x1A760, symBinAddr: 0x10006B418, symSize: 0x24 }
  - { offsetInCU: 0xB902, offset: 0x5A5C2, size: 0x8, addend: 0x0, symName: __ZNSt3__115allocate_sharedB8ue170006I5ModelNS_9allocatorIS1_EEJRA32_Kc11OBJECT_TYPEP8MaterialEvEENS_10shared_ptrIT_EERKT0_DpOT1_, symObjAddr: 0x1B310, symBinAddr: 0x10006BFC8, symSize: 0x310 }
  - { offsetInCU: 0xB9AE, offset: 0x5A66E, size: 0x8, addend: 0x0, symName: __ZNSt3__115allocate_sharedB8ue170006I6SkyboxNS_9allocatorIS1_EEJNS_10shared_ptrI9Texture2DEENS4_I6ShaderEEEvEENS4_IT_EERKT0_DpOT1_, symObjAddr: 0x1BB84, symBinAddr: 0x10006C774, symSize: 0x308 }
  - { offsetInCU: 0xBD77, offset: 0x5AA37, size: 0x8, addend: 0x0, symName: __ZNSt3__14swapB8ue170006IP6SkyboxEENS_9enable_ifIXaasr21is_move_constructibleIT_EE5valuesr18is_move_assignableIS4_EE5valueEvE4typeERS4_S7_, symObjAddr: 0x1D6D4, symBinAddr: 0x10006E0D8, symSize: 0x134 }
  - { offsetInCU: 0xBFB5, offset: 0x5AC75, size: 0x8, addend: 0x0, symName: __ZNSt3__14copyB8ue170006IPKcPcEET0_T_S5_S4_, symObjAddr: 0x1EA04, symBinAddr: 0x10006F408, symSize: 0x26C }
  - { offsetInCU: 0xC012, offset: 0x5ACD2, size: 0x8, addend: 0x0, symName: __ZNSt3__16__copyB8ue170006INS_17_ClassicAlgPolicyEPKcS3_PcEENS_4pairIT0_T2_EES6_T1_S7_, symObjAddr: 0x1EC70, symBinAddr: 0x10006F674, symSize: 0x22C }
  - { offsetInCU: 0xC081, offset: 0x5AD41, size: 0x8, addend: 0x0, symName: __ZNSt3__123__dispatch_copy_or_moveB8ue170006INS_17_ClassicAlgPolicyENS_11__copy_loopIS1_EENS_14__copy_trivialEPKcS6_PcEENS_4pairIT2_T4_EES9_T3_SA_, symObjAddr: 0x1EE9C, symBinAddr: 0x10006F8A0, symSize: 0x22C }
  - { offsetInCU: 0xC102, offset: 0x5ADC2, size: 0x8, addend: 0x0, symName: __ZNSt3__121__unwrap_and_dispatchB8ue170006INS_10__overloadINS_11__copy_loopINS_17_ClassicAlgPolicyEEENS_14__copy_trivialEEEPKcS8_PcLi0EEENS_4pairIT0_T2_EESB_T1_SC_, symObjAddr: 0x1F0C8, symBinAddr: 0x10006FACC, symSize: 0x5A4 }
  - { offsetInCU: 0xC19C, offset: 0x5AE5C, size: 0x8, addend: 0x0, symName: __ZNSt3__114__unwrap_rangeB8ue170006IPKcS2_EENS_4pairIT0_S4_EET_S6_, symObjAddr: 0x1F66C, symBinAddr: 0x100070070, symSize: 0x350 }
  - { offsetInCU: 0xC336, offset: 0x5AFF6, size: 0x8, addend: 0x0, symName: __ZNSt3__113__unwrap_iterB8ue170006IPcNS_18__unwrap_iter_implIS1_Lb1EEELi0EEEDTclsrT0_8__unwrapclsr3stdE7declvalIT_EEEES5_, symObjAddr: 0x1FBEC, symBinAddr: 0x1000705F0, symSize: 0x24 }
  - { offsetInCU: 0xC37B, offset: 0x5B03B, size: 0x8, addend: 0x0, symName: __ZNSt3__19make_pairB8ue170006IPKcPcEENS_4pairINS_18__unwrap_ref_decayIT_E4typeENS5_IT0_E4typeEEEOS6_OS9_, symObjAddr: 0x1FC10, symBinAddr: 0x100070614, symSize: 0x20C }
  - { offsetInCU: 0xC3CC, offset: 0x5B08C, size: 0x8, addend: 0x0, symName: __ZNSt3__114__rewrap_rangeB8ue170006IPKcS2_EET_S3_T0_, symObjAddr: 0x1FE1C, symBinAddr: 0x100070820, symSize: 0x2C }
  - { offsetInCU: 0xC418, offset: 0x5B0D8, size: 0x8, addend: 0x0, symName: __ZNSt3__113__rewrap_iterB8ue170006IPcS1_NS_18__unwrap_iter_implIS1_Lb1EEEEET_S4_T0_, symObjAddr: 0x1FE48, symBinAddr: 0x10007084C, symSize: 0x48 }
  - { offsetInCU: 0xC46D, offset: 0x5B12D, size: 0x8, addend: 0x0, symName: __ZNSt3__19make_pairB8ue170006IPKcS2_EENS_4pairINS_18__unwrap_ref_decayIT_E4typeENS4_IT0_E4typeEEEOS5_OS8_, symObjAddr: 0x1FE90, symBinAddr: 0x100070894, symSize: 0x20C }
  - { offsetInCU: 0xC4BE, offset: 0x5B17E, size: 0x8, addend: 0x0, symName: __ZNSt3__113__unwrap_iterB8ue170006IPKcNS_18__unwrap_iter_implIS2_Lb1EEELi0EEEDTclsrT0_8__unwrapclsr3stdE7declvalIT_EEEES6_, symObjAddr: 0x2009C, symBinAddr: 0x100070AA0, symSize: 0x24 }
  - { offsetInCU: 0xC62B, offset: 0x5B2EB, size: 0x8, addend: 0x0, symName: __ZNSt3__119__copy_trivial_implB8ue170006IKccEENS_4pairIPT_PT0_EES4_S4_S6_, symObjAddr: 0x20258, symBinAddr: 0x100070C5C, symSize: 0x3AC }
  - { offsetInCU: 0xC69A, offset: 0x5B35A, size: 0x8, addend: 0x0, symName: __ZNSt3__119__constexpr_memmoveB8ue170006IcKcLi0EEEPT_S3_PT0_NS_15__element_countE, symObjAddr: 0x20604, symBinAddr: 0x100071008, symSize: 0x64 }
  - { offsetInCU: 0xC709, offset: 0x5B3C9, size: 0x8, addend: 0x0, symName: __ZNSt3__19make_pairB8ue170006IRPKcPcEENS_4pairINS_18__unwrap_ref_decayIT_E4typeENS6_IT0_E4typeEEEOS7_OSA_, symObjAddr: 0x20668, symBinAddr: 0x10007106C, symSize: 0x20C }
  - { offsetInCU: 0xC7AD, offset: 0x5B46D, size: 0x8, addend: 0x0, symName: __ZNSt3__113__rewrap_iterB8ue170006IPKcS2_NS_18__unwrap_iter_implIS2_Lb1EEEEET_S5_T0_, symObjAddr: 0x20B80, symBinAddr: 0x100071584, symSize: 0x48 }
  - { offsetInCU: 0xC802, offset: 0x5B4C2, size: 0x8, addend: 0x0, symName: __ZNSt3__16fill_nB8ue170006IPcmcEET_S2_T0_RKT1_, symObjAddr: 0x20C58, symBinAddr: 0x10007165C, symSize: 0x44 }
  - { offsetInCU: 0xC865, offset: 0x5B525, size: 0x8, addend: 0x0, symName: __ZNSt3__18__fill_nB8ue170006IPcmcEET_S2_T0_RKT1_, symObjAddr: 0x20C9C, symBinAddr: 0x1000716A0, symSize: 0x138 }
  - { offsetInCU: 0xC8C8, offset: 0x5B588, size: 0x8, addend: 0x0, symName: __ZNSt3__121__convert_to_integralB8ue170006Em, symObjAddr: 0x20DD4, symBinAddr: 0x1000717D8, symSize: 0x14 }
  - { offsetInCU: 0xDB4D, offset: 0x5C80D, size: 0x8, addend: 0x0, symName: __ZNSt3__16vectorINS_10shared_ptrI5ModelEENS_9allocatorIS3_EEE26__swap_out_circular_bufferERNS_14__split_bufferIS3_RS5_EE, symObjAddr: 0x17368, symBinAddr: 0x100068648, symSize: 0x56C }
  - { offsetInCU: 0xFE4E, offset: 0x5EB0E, size: 0x8, addend: 0x0, symName: __ZN5SceneC2Ev, symObjAddr: 0x0, symBinAddr: 0x10005910C, symSize: 0x40C }
  - { offsetInCU: 0xFE7F, offset: 0x5EB3F, size: 0x8, addend: 0x0, symName: __ZN5LayerC2ERKNSt3__112basic_stringIcNS0_11char_traitsIcEENS0_9allocatorIcEEEE, symObjAddr: 0x440, symBinAddr: 0x100059518, symSize: 0x88 }
  - { offsetInCU: 0xFEB5, offset: 0x5EB75, size: 0x8, addend: 0x0, symName: __ZNSt3__110shared_ptrINS_6vectorINS0_I5ModelEENS_9allocatorIS3_EEEEEC1B8ue170006Ev, symObjAddr: 0x4C8, symBinAddr: 0x1000595A0, symSize: 0x2C }
  - { offsetInCU: 0xFEDD, offset: 0x5EB9D, size: 0x8, addend: 0x0, symName: __ZNSt3__110shared_ptrI17PerspectiveCameraEC1B8ue170006EDn, symObjAddr: 0x4F4, symBinAddr: 0x1000595CC, symSize: 0x34 }
  - { offsetInCU: 0xFF11, offset: 0x5EBD1, size: 0x8, addend: 0x0, symName: __ZNSt3__110shared_ptrI4MeshEC1B8ue170006EDn, symObjAddr: 0x528, symBinAddr: 0x100059600, symSize: 0x34 }
  - { offsetInCU: 0xFF45, offset: 0x5EC05, size: 0x8, addend: 0x0, symName: __ZNSt3__110shared_ptrI6SkyboxEC1B8ue170006EDn, symObjAddr: 0x590, symBinAddr: 0x100059634, symSize: 0x34 }
  - { offsetInCU: 0xFF79, offset: 0x5EC39, size: 0x8, addend: 0x0, symName: __ZN5SceneC1Ev, symObjAddr: 0x5C4, symBinAddr: 0x100059668, symSize: 0x2C }
  - { offsetInCU: 0xFFA4, offset: 0x5EC64, size: 0x8, addend: 0x0, symName: __ZN5SceneD2Ev, symObjAddr: 0x5F0, symBinAddr: 0x100059694, symSize: 0xD0 }
  - { offsetInCU: 0xFFCF, offset: 0x5EC8F, size: 0x8, addend: 0x0, symName: __ZNSt3__110shared_ptrI6SkyboxED1B8ue170006Ev, symObjAddr: 0x6C0, symBinAddr: 0x100059764, symSize: 0x2C }
  - { offsetInCU: 0xFFF7, offset: 0x5ECB7, size: 0x8, addend: 0x0, symName: __ZNSt3__110shared_ptrI4MeshED1B8ue170006Ev, symObjAddr: 0x718, symBinAddr: 0x100059790, symSize: 0x2C }
  - { offsetInCU: 0x1001F, offset: 0x5ECDF, size: 0x8, addend: 0x0, symName: __ZNSt3__110shared_ptrI17PerspectiveCameraED1B8ue170006Ev, symObjAddr: 0x744, symBinAddr: 0x1000597BC, symSize: 0x2C }
  - { offsetInCU: 0x10047, offset: 0x5ED07, size: 0x8, addend: 0x0, symName: __ZNSt3__110shared_ptrINS_6vectorINS0_I5ModelEENS_9allocatorIS3_EEEEED1B8ue170006Ev, symObjAddr: 0x770, symBinAddr: 0x1000597E8, symSize: 0x2C }
  - { offsetInCU: 0x1006F, offset: 0x5ED2F, size: 0x8, addend: 0x0, symName: __ZN5LayerD2Ev, symObjAddr: 0x79C, symBinAddr: 0x100059814, symSize: 0xE4 }
  - { offsetInCU: 0x10097, offset: 0x5ED57, size: 0x8, addend: 0x0, symName: __ZN5SceneD1Ev, symObjAddr: 0x880, symBinAddr: 0x1000598F8, symSize: 0x2C }
  - { offsetInCU: 0x100C2, offset: 0x5ED82, size: 0x8, addend: 0x0, symName: __ZN5SceneD0Ev, symObjAddr: 0x8AC, symBinAddr: 0x100059924, symSize: 0x30 }
  - { offsetInCU: 0x100ED, offset: 0x5EDAD, size: 0x8, addend: 0x0, symName: __ZN5Scene8OnAttachEv, symObjAddr: 0x8DC, symBinAddr: 0x100059954, symSize: 0x18BC }
  - { offsetInCU: 0x104A7, offset: 0x5F167, size: 0x8, addend: 0x0, symName: __ZN3App11GetInstanceEv, symObjAddr: 0x2198, symBinAddr: 0x10005B210, symSize: 0x60 }
  - { offsetInCU: 0x104BA, offset: 0x5F17A, size: 0x8, addend: 0x0, symName: __ZN3App9GetWindowEv, symObjAddr: 0x21F8, symBinAddr: 0x10005B270, symSize: 0x14 }
  - { offsetInCU: 0x104DE, offset: 0x5F19E, size: 0x8, addend: 0x0, symName: __ZNK6Window15GetNativeWindowEv, symObjAddr: 0x226C, symBinAddr: 0x10005B284, symSize: 0x60 }
  - { offsetInCU: 0x10502, offset: 0x5F1C2, size: 0x8, addend: 0x0, symName: __ZNK6Window14GetWindowPropsEv, symObjAddr: 0x22CC, symBinAddr: 0x10005B2E4, symSize: 0x3C }
  - { offsetInCU: 0x1052B, offset: 0x5F1EB, size: 0x8, addend: 0x0, symName: __ZNSt3__110shared_ptrI17PerspectiveCameraEaSB8ue170006EOS2_, symObjAddr: 0x252C, symBinAddr: 0x10005B518, symSize: 0x1F4 }
  - { offsetInCU: 0x10560, offset: 0x5F220, size: 0x8, addend: 0x0, symName: __ZNSt3__110shared_ptrINS_6vectorINS0_I5ModelEENS_9allocatorIS3_EEEEEaSB8ue170006EOS7_, symObjAddr: 0x2900, symBinAddr: 0x10005B8EC, symSize: 0x1F4 }
  - { offsetInCU: 0x10595, offset: 0x5F255, size: 0x8, addend: 0x0, symName: __ZNKSt3__110shared_ptrI5ModelEptB8ue170006Ev, symObjAddr: 0x2D20, symBinAddr: 0x10005BCD8, symSize: 0x60 }
  - { offsetInCU: 0x105B9, offset: 0x5F279, size: 0x8, addend: 0x0, symName: __ZN5Model17GetTransformPropsEv, symObjAddr: 0x2D80, symBinAddr: 0x10005BD38, symSize: 0x64 }
  - { offsetInCU: 0x105DD, offset: 0x5F29D, size: 0x8, addend: 0x0, symName: __ZNKSt3__110shared_ptrINS_6vectorINS0_I5ModelEENS_9allocatorIS3_EEEEEptB8ue170006Ev, symObjAddr: 0x2E28, symBinAddr: 0x10005BD9C, symSize: 0x60 }
  - { offsetInCU: 0x10601, offset: 0x5F2C1, size: 0x8, addend: 0x0, symName: __ZNSt3__16vectorINS_10shared_ptrI5ModelEENS_9allocatorIS3_EEE9push_backB8ue170006ERKS3_, symObjAddr: 0x2E88, symBinAddr: 0x10005BDFC, symSize: 0xE0 }
  - { offsetInCU: 0x1063B, offset: 0x5F2FB, size: 0x8, addend: 0x0, symName: __ZN15PointLightPropsC1Ev, symObjAddr: 0x3160, symBinAddr: 0x10005C0D4, symSize: 0x2C }
  - { offsetInCU: 0x106A6, offset: 0x5F366, size: 0x8, addend: 0x0, symName: __ZN10PointLightC1E11OBJECT_TYPEP15PointLightProps, symObjAddr: 0x318C, symBinAddr: 0x10005C100, symSize: 0x3C }
  - { offsetInCU: 0x106EA, offset: 0x5F3AA, size: 0x8, addend: 0x0, symName: __ZN11SceneObject17GetTransformPropsEv, symObjAddr: 0x31C8, symBinAddr: 0x10005C13C, symSize: 0x64 }
  - { offsetInCU: 0x1070E, offset: 0x5F3CE, size: 0x8, addend: 0x0, symName: __ZNSt3__110shared_ptrI6SkyboxEaSB8ue170006EOS2_, symObjAddr: 0x341C, symBinAddr: 0x10005C390, symSize: 0x1F4 }
  - { offsetInCU: 0x10743, offset: 0x5F403, size: 0x8, addend: 0x0, symName: __ZNKSt3__110shared_ptrI6SkyboxEptB8ue170006Ev, symObjAddr: 0x3668, symBinAddr: 0x10005C584, symSize: 0x60 }
  - { offsetInCU: 0x10767, offset: 0x5F427, size: 0x8, addend: 0x0, symName: __ZN5Model11GetMaterialEv, symObjAddr: 0x36C8, symBinAddr: 0x10005C5E4, symSize: 0x64 }
  - { offsetInCU: 0x1078B, offset: 0x5F44B, size: 0x8, addend: 0x0, symName: __ZNSt3__110shared_ptrI11CubeTextureEaSB8ue170006ERKS2_, symObjAddr: 0x3744, symBinAddr: 0x10005C648, symSize: 0x1F4 }
  - { offsetInCU: 0x107C0, offset: 0x5F480, size: 0x8, addend: 0x0, symName: __ZNKSt3__110shared_ptrI17PerspectiveCameraEptB8ue170006Ev, symObjAddr: 0x3938, symBinAddr: 0x10005C83C, symSize: 0x60 }
  - { offsetInCU: 0x107E4, offset: 0x5F4A4, size: 0x8, addend: 0x0, symName: __ZNSt3__110shared_ptrI5ModelED1B8ue170006Ev, symObjAddr: 0x3998, symBinAddr: 0x10005C89C, symSize: 0x2C }
  - { offsetInCU: 0x1080C, offset: 0x5F4CC, size: 0x8, addend: 0x0, symName: __ZN5Scene8OnDetachEv, symObjAddr: 0x39C4, symBinAddr: 0x10005C8C8, symSize: 0x10 }
  - { offsetInCU: 0x10833, offset: 0x5F4F3, size: 0x8, addend: 0x0, symName: __ZN5Scene6UpdateEv, symObjAddr: 0x39D4, symBinAddr: 0x10005C8D8, symSize: 0x31C }
  - { offsetInCU: 0x1085A, offset: 0x5F51A, size: 0x8, addend: 0x0, symName: __ZN5Scene15HandleUserInputEv, symObjAddr: 0x3CF0, symBinAddr: 0x10005CBF4, symSize: 0x2E4 }
  - { offsetInCU: 0x10880, offset: 0x5F540, size: 0x8, addend: 0x0, symName: __ZNSt3__110shared_ptrI6SkyboxEC1B8ue170006ERKS2_, symObjAddr: 0x3FD4, symBinAddr: 0x10005CED8, symSize: 0x34 }
  - { offsetInCU: 0x108B7, offset: 0x5F577, size: 0x8, addend: 0x0, symName: __ZNSt3__110shared_ptrI17PerspectiveCameraEC1B8ue170006ERKS2_, symObjAddr: 0x4008, symBinAddr: 0x10005CF0C, symSize: 0x34 }
  - { offsetInCU: 0x108EE, offset: 0x5F5AE, size: 0x8, addend: 0x0, symName: __ZN5Scene15UpdateInterfaceEv, symObjAddr: 0x403C, symBinAddr: 0x10005CF40, symSize: 0xC38 }
  - { offsetInCU: 0x109E7, offset: 0x5F6A7, size: 0x8, addend: 0x0, symName: __ZNKSt3__110shared_ptrINS_6vectorINS0_I5ModelEENS_9allocatorIS3_EEEEEdeB8ue170006Ev, symObjAddr: 0x4C74, symBinAddr: 0x10005DB78, symSize: 0x60 }
  - { offsetInCU: 0x10A0B, offset: 0x5F6CB, size: 0x8, addend: 0x0, symName: __ZNSt3__16vectorINS_10shared_ptrI5ModelEENS_9allocatorIS3_EEE5beginB8ue170006Ev, symObjAddr: 0x4CD4, symBinAddr: 0x10005DBD8, symSize: 0x268 }
  - { offsetInCU: 0x10A32, offset: 0x5F6F2, size: 0x8, addend: 0x0, symName: __ZNSt3__16vectorINS_10shared_ptrI5ModelEENS_9allocatorIS3_EEE3endB8ue170006Ev, symObjAddr: 0x4F3C, symBinAddr: 0x10005DE40, symSize: 0x26C }
  - { offsetInCU: 0x10A59, offset: 0x5F719, size: 0x8, addend: 0x0, symName: __ZNKSt3__111__wrap_iterIPNS_10shared_ptrI5ModelEEEdeB8ue170006Ev, symObjAddr: 0x51DC, symBinAddr: 0x10005E0E0, symSize: 0x60 }
  - { offsetInCU: 0x10A7D, offset: 0x5F73D, size: 0x8, addend: 0x0, symName: __ZNK5Model7GetNameEv, symObjAddr: 0x523C, symBinAddr: 0x10005E140, symSize: 0x3C }
  - { offsetInCU: 0x10AA1, offset: 0x5F761, size: 0x8, addend: 0x0, symName: __ZNSt3__111__wrap_iterIPNS_10shared_ptrI5ModelEEEppB8ue170006Ev, symObjAddr: 0x5584, symBinAddr: 0x10005E464, symSize: 0x68 }
  - { offsetInCU: 0x10AC5, offset: 0x5F785, size: 0x8, addend: 0x0, symName: __ZN5Layer5BeginEv, symObjAddr: 0x55EC, symBinAddr: 0x10005E4CC, symSize: 0x10 }
  - { offsetInCU: 0x10AE9, offset: 0x5F7A9, size: 0x8, addend: 0x0, symName: __ZN5Layer3EndEv, symObjAddr: 0x55FC, symBinAddr: 0x10005E4DC, symSize: 0x10 }
  - { offsetInCU: 0x10B0D, offset: 0x5F7CD, size: 0x8, addend: 0x0, symName: __ZN5LayerD1Ev, symObjAddr: 0x560C, symBinAddr: 0x10005E4EC, symSize: 0x2C }
  - { offsetInCU: 0x10B35, offset: 0x5F7F5, size: 0x8, addend: 0x0, symName: __ZN5LayerD0Ev, symObjAddr: 0x5638, symBinAddr: 0x10005E518, symSize: 0x30 }
  - { offsetInCU: 0x10B5D, offset: 0x5F81D, size: 0x8, addend: 0x0, symName: __ZN5Layer8OnAttachEv, symObjAddr: 0x5668, symBinAddr: 0x10005E548, symSize: 0x10 }
  - { offsetInCU: 0x10B81, offset: 0x5F841, size: 0x8, addend: 0x0, symName: __ZN5Layer8OnDetachEv, symObjAddr: 0x5678, symBinAddr: 0x10005E558, symSize: 0x10 }
  - { offsetInCU: 0x10BA5, offset: 0x5F865, size: 0x8, addend: 0x0, symName: __ZN5Layer6UpdateEv, symObjAddr: 0x5688, symBinAddr: 0x10005E568, symSize: 0x10 }
  - { offsetInCU: 0x10BC9, offset: 0x5F889, size: 0x8, addend: 0x0, symName: __ZN5Layer15UpdateInterfaceEv, symObjAddr: 0x5698, symBinAddr: 0x10005E578, symSize: 0x10 }
  - { offsetInCU: 0x10BED, offset: 0x5F8AD, size: 0x8, addend: 0x0, symName: __ZNSt3__110shared_ptrINS_6vectorINS0_I5ModelEENS_9allocatorIS3_EEEEEC2B8ue170006Ev, symObjAddr: 0x56A8, symBinAddr: 0x10005E588, symSize: 0x9C }
  - { offsetInCU: 0x10C15, offset: 0x5F8D5, size: 0x8, addend: 0x0, symName: __ZNSt3__110shared_ptrI17PerspectiveCameraEC2B8ue170006EDn, symObjAddr: 0x5744, symBinAddr: 0x10005E624, symSize: 0xA0 }
  - { offsetInCU: 0x10C49, offset: 0x5F909, size: 0x8, addend: 0x0, symName: __ZNSt3__110shared_ptrI4MeshEC2B8ue170006EDn, symObjAddr: 0x57E4, symBinAddr: 0x10005E6C4, symSize: 0xA0 }
  - { offsetInCU: 0x10C7D, offset: 0x5F93D, size: 0x8, addend: 0x0, symName: __ZNSt3__110shared_ptrI6SkyboxEC2B8ue170006EDn, symObjAddr: 0x5924, symBinAddr: 0x10005E764, symSize: 0xA0 }
  - { offsetInCU: 0x10CBB, offset: 0x5F97B, size: 0x8, addend: 0x0, symName: __ZN11WindowPropsC1ERKS_, symObjAddr: 0x59D0, symBinAddr: 0x10005E804, symSize: 0x34 }
  - { offsetInCU: 0x10CEF, offset: 0x5F9AF, size: 0x8, addend: 0x0, symName: __ZN11WindowPropsC2ERKS_, symObjAddr: 0x5A04, symBinAddr: 0x10005E838, symSize: 0x64 }
  - { offsetInCU: 0x10D23, offset: 0x5F9E3, size: 0x8, addend: 0x0, symName: __ZN15PointLightPropsC2Ev, symObjAddr: 0x5D88, symBinAddr: 0x10005E89C, symSize: 0xAC }
  - { offsetInCU: 0x10D4E, offset: 0x5FA0E, size: 0x8, addend: 0x0, symName: __ZN10PointLightC2E11OBJECT_TYPEP15PointLightProps, symObjAddr: 0x5E34, symBinAddr: 0x10005E948, symSize: 0x94 }
  - { offsetInCU: 0x10D92, offset: 0x5FA52, size: 0x8, addend: 0x0, symName: __ZN5LightC2E11OBJECT_TYPEP15PointLightProps, symObjAddr: 0x5EC8, symBinAddr: 0x10005E9DC, symSize: 0xD8 }
  - { offsetInCU: 0x10DD6, offset: 0x5FA96, size: 0x8, addend: 0x0, symName: __ZN5Light13GetLightPropsEv, symObjAddr: 0x5FA0, symBinAddr: 0x10005EAB4, symSize: 0x64 }
  - { offsetInCU: 0x10DFA, offset: 0x5FABA, size: 0x8, addend: 0x0, symName: __ZN5Light13SetLightPropsEP15PointLightProps, symObjAddr: 0x6004, symBinAddr: 0x10005EB18, symSize: 0x74 }
  - { offsetInCU: 0x10E2C, offset: 0x5FAEC, size: 0x8, addend: 0x0, symName: __ZNKSt3__111__wrap_iterIPNS_10shared_ptrI5ModelEEE4baseB8ue170006Ev, symObjAddr: 0x93C4, symBinAddr: 0x10005EBD4, symSize: 0x60 }
  - { offsetInCU: 0x10E50, offset: 0x5FB10, size: 0x8, addend: 0x0, symName: __ZNSt3__110shared_ptrI11CubeTextureEC1B8ue170006ERKS2_, symObjAddr: 0x96A0, symBinAddr: 0x10005EC34, symSize: 0x34 }
  - { offsetInCU: 0x10E87, offset: 0x5FB47, size: 0x8, addend: 0x0, symName: __ZNSt3__110shared_ptrI11CubeTextureE4swapB8ue170006ERS2_, symObjAddr: 0x96D4, symBinAddr: 0x10005EC68, symSize: 0x44 }
  - { offsetInCU: 0x10EBA, offset: 0x5FB7A, size: 0x8, addend: 0x0, symName: __ZNSt3__110shared_ptrI11CubeTextureED1B8ue170006Ev, symObjAddr: 0x9718, symBinAddr: 0x10005ECAC, symSize: 0x2C }
  - { offsetInCU: 0x10EE2, offset: 0x5FBA2, size: 0x8, addend: 0x0, symName: __ZNSt3__110shared_ptrI11CubeTextureEC2B8ue170006ERKS2_, symObjAddr: 0x9744, symBinAddr: 0x10005ECD8, symSize: 0x1CC }
  - { offsetInCU: 0x10F19, offset: 0x5FBD9, size: 0x8, addend: 0x0, symName: __ZNSt3__110shared_ptrI11CubeTextureED2B8ue170006Ev, symObjAddr: 0x9C44, symBinAddr: 0x10005EFD8, symSize: 0xC8 }
  - { offsetInCU: 0x10F46, offset: 0x5FC06, size: 0x8, addend: 0x0, symName: __ZNSt3__110shared_ptrI4MeshED2B8ue170006Ev, symObjAddr: 0xA28C, symBinAddr: 0x10005F0A0, symSize: 0xC8 }
  - { offsetInCU: 0x10F6E, offset: 0x5FC2E, size: 0x8, addend: 0x0, symName: __ZNSt3__110shared_ptrI17PerspectiveCameraED2B8ue170006Ev, symObjAddr: 0xA41C, symBinAddr: 0x10005F168, symSize: 0xC8 }
  - { offsetInCU: 0x10F96, offset: 0x5FC56, size: 0x8, addend: 0x0, symName: __ZNSt3__110shared_ptrI6SkyboxED2B8ue170006Ev, symObjAddr: 0xA4E4, symBinAddr: 0x10005F230, symSize: 0xC8 }
  - { offsetInCU: 0x10FBE, offset: 0x5FC7E, size: 0x8, addend: 0x0, symName: __ZNSt3__110shared_ptrINS_6vectorINS0_I5ModelEENS_9allocatorIS3_EEEEED2B8ue170006Ev, symObjAddr: 0xA5AC, symBinAddr: 0x10005F2F8, symSize: 0xC8 }
  - { offsetInCU: 0x10FE6, offset: 0x5FCA6, size: 0x8, addend: 0x0, symName: __ZNSt3__19allocatorI17PerspectiveCameraEC1B8ue170006Ev, symObjAddr: 0xA984, symBinAddr: 0x10005F6D0, symSize: 0x2C }
  - { offsetInCU: 0x11059, offset: 0x5FD19, size: 0x8, addend: 0x0, symName: __ZNSt3__118__allocation_guardINS_9allocatorINS_20__shared_ptr_emplaceI17PerspectiveCameraNS1_IS3_EEEEEEEC1B8ue170006IS4_EET_m, symObjAddr: 0xA9B0, symBinAddr: 0x10005F6FC, symSize: 0x34 }
  - { offsetInCU: 0x110A6, offset: 0x5FD66, size: 0x8, addend: 0x0, symName: __ZNKSt3__118__allocation_guardINS_9allocatorINS_20__shared_ptr_emplaceI17PerspectiveCameraNS1_IS3_EEEEEEE5__getB8ue170006Ev, symObjAddr: 0xA9E4, symBinAddr: 0x10005F730, symSize: 0x64 }
  - { offsetInCU: 0x110CF, offset: 0x5FD8F, size: 0x8, addend: 0x0, symName: __ZNSt3__120__shared_ptr_emplaceI17PerspectiveCameraNS_9allocatorIS1_EEEC1B8ue170006IJRN3glm3vecILi3EfLNS6_9qualifierE0EEERjSB_EEES3_DpOT_, symObjAddr: 0xAA48, symBinAddr: 0x10005F794, symSize: 0x44 }
  - { offsetInCU: 0x11148, offset: 0x5FE08, size: 0x8, addend: 0x0, symName: __ZNSt3__118__allocation_guardINS_9allocatorINS_20__shared_ptr_emplaceI17PerspectiveCameraNS1_IS3_EEEEEEE13__release_ptrB8ue170006Ev, symObjAddr: 0xAA8C, symBinAddr: 0x10005F7D8, symSize: 0xA8 }
  - { offsetInCU: 0x1117A, offset: 0x5FE3A, size: 0x8, addend: 0x0, symName: __ZNSt3__110shared_ptrI17PerspectiveCameraE27__create_with_control_blockB8ue170006IS1_NS_20__shared_ptr_emplaceIS1_NS_9allocatorIS1_EEEEEES2_PT_PT0_, symObjAddr: 0xAB34, symBinAddr: 0x10005F880, symSize: 0x188 }
  - { offsetInCU: 0x111D0, offset: 0x5FE90, size: 0x8, addend: 0x0, symName: __ZNSt3__120__shared_ptr_emplaceI17PerspectiveCameraNS_9allocatorIS1_EEE10__get_elemB8ue170006Ev, symObjAddr: 0xACBC, symBinAddr: 0x10005FA08, symSize: 0x28 }
  - { offsetInCU: 0x111F4, offset: 0x5FEB4, size: 0x8, addend: 0x0, symName: __ZNSt3__118__allocation_guardINS_9allocatorINS_20__shared_ptr_emplaceI17PerspectiveCameraNS1_IS3_EEEEEEED1B8ue170006Ev, symObjAddr: 0xACE4, symBinAddr: 0x10005FA30, symSize: 0x2C }
  - { offsetInCU: 0x1121C, offset: 0x5FEDC, size: 0x8, addend: 0x0, symName: __ZNSt3__118__allocation_guardINS_9allocatorINS_20__shared_ptr_emplaceI17PerspectiveCameraNS1_IS3_EEEEEEEC2B8ue170006IS4_EET_m, symObjAddr: 0xAD10, symBinAddr: 0x10005FA5C, symSize: 0x28C }
  - { offsetInCU: 0x1126F, offset: 0x5FF2F, size: 0x8, addend: 0x0, symName: __ZNSt3__19allocatorINS_20__shared_ptr_emplaceI17PerspectiveCameraNS0_IS2_EEEEEC1B8ue170006IS2_EERKNS0_IT_EE, symObjAddr: 0xAF9C, symBinAddr: 0x10005FCE8, symSize: 0x34 }
  - { offsetInCU: 0x112AB, offset: 0x5FF6B, size: 0x8, addend: 0x0, symName: __ZNSt3__116allocator_traitsINS_9allocatorINS_20__shared_ptr_emplaceI17PerspectiveCameraNS1_IS3_EEEEEEE8allocateB8ue170006ERS6_m, symObjAddr: 0xAFD0, symBinAddr: 0x10005FD1C, symSize: 0x2C }
  - { offsetInCU: 0x112DE, offset: 0x5FF9E, size: 0x8, addend: 0x0, symName: __ZNSt3__19allocatorINS_20__shared_ptr_emplaceI17PerspectiveCameraNS0_IS2_EEEEEC2B8ue170006IS2_EERKNS0_IT_EE, symObjAddr: 0xAFFC, symBinAddr: 0x10005FD48, symSize: 0x30 }
  - { offsetInCU: 0x1131A, offset: 0x5FFDA, size: 0x8, addend: 0x0, symName: __ZNSt3__116__non_trivial_ifILb1ENS_9allocatorINS_20__shared_ptr_emplaceI17PerspectiveCameraNS1_IS3_EEEEEEEC2B8ue170006Ev, symObjAddr: 0xB02C, symBinAddr: 0x10005FD78, symSize: 0x14 }
  - { offsetInCU: 0x11343, offset: 0x60003, size: 0x8, addend: 0x0, symName: __ZNSt3__19allocatorINS_20__shared_ptr_emplaceI17PerspectiveCameraNS0_IS2_EEEEE8allocateB8ue170006Em, symObjAddr: 0xB040, symBinAddr: 0x10005FD8C, symSize: 0x60 }
  - { offsetInCU: 0x1137F, offset: 0x6003F, size: 0x8, addend: 0x0, symName: __ZNSt3__116allocator_traitsINS_9allocatorINS_20__shared_ptr_emplaceI17PerspectiveCameraNS1_IS3_EEEEEEE8max_sizeB8ue170006IS6_vEEmRKS6_, symObjAddr: 0xB0A0, symBinAddr: 0x10005FDEC, symSize: 0x24 }
  - { offsetInCU: 0x113AD, offset: 0x6006D, size: 0x8, addend: 0x0, symName: __ZNKSt3__19allocatorINS_20__shared_ptr_emplaceI17PerspectiveCameraNS0_IS2_EEEEE8max_sizeB8ue170006Ev, symObjAddr: 0xB15C, symBinAddr: 0x10005FE10, symSize: 0x18 }
  - { offsetInCU: 0x113D1, offset: 0x60091, size: 0x8, addend: 0x0, symName: __ZNSt3__120__shared_ptr_emplaceI17PerspectiveCameraNS_9allocatorIS1_EEEC2B8ue170006IJRN3glm3vecILi3EfLNS6_9qualifierE0EEERjSB_EEES3_DpOT_, symObjAddr: 0xB1E4, symBinAddr: 0x10005FE28, symSize: 0x2F4 }
  - { offsetInCU: 0x11452, offset: 0x60112, size: 0x8, addend: 0x0, symName: __ZNSt3__120__shared_ptr_emplaceI17PerspectiveCameraNS_9allocatorIS1_EEE8_StorageC1B8ue170006EOS3_, symObjAddr: 0xB5A8, symBinAddr: 0x10006011C, symSize: 0x34 }
  - { offsetInCU: 0x11489, offset: 0x60149, size: 0x8, addend: 0x0, symName: __ZNSt3__120__shared_ptr_emplaceI17PerspectiveCameraNS_9allocatorIS1_EEE8_StorageD1B8ue170006Ev, symObjAddr: 0xB5DC, symBinAddr: 0x100060150, symSize: 0x2C }
  - { offsetInCU: 0x114B1, offset: 0x60171, size: 0x8, addend: 0x0, symName: __ZNSt3__120__shared_ptr_emplaceI17PerspectiveCameraNS_9allocatorIS1_EEED1Ev, symObjAddr: 0xB608, symBinAddr: 0x10006017C, symSize: 0x2C }
  - { offsetInCU: 0x114DD, offset: 0x6019D, size: 0x8, addend: 0x0, symName: __ZNSt3__120__shared_ptr_emplaceI17PerspectiveCameraNS_9allocatorIS1_EEED0Ev, symObjAddr: 0xB634, symBinAddr: 0x1000601A8, symSize: 0x30 }
  - { offsetInCU: 0x11509, offset: 0x601C9, size: 0x8, addend: 0x0, symName: __ZNSt3__120__shared_ptr_emplaceI17PerspectiveCameraNS_9allocatorIS1_EEE16__on_zero_sharedEv, symObjAddr: 0xB664, symBinAddr: 0x1000601D8, symSize: 0x24 }
  - { offsetInCU: 0x1152D, offset: 0x601ED, size: 0x8, addend: 0x0, symName: __ZNSt3__120__shared_ptr_emplaceI17PerspectiveCameraNS_9allocatorIS1_EEE21__on_zero_shared_weakEv, symObjAddr: 0xB688, symBinAddr: 0x1000601FC, symSize: 0x208 }
  - { offsetInCU: 0x11572, offset: 0x60232, size: 0x8, addend: 0x0, symName: __ZNSt3__120__shared_ptr_emplaceI17PerspectiveCameraNS_9allocatorIS1_EEE8_StorageC2B8ue170006EOS3_, symObjAddr: 0xB950, symBinAddr: 0x100060404, symSize: 0x30 }
  - { offsetInCU: 0x115A9, offset: 0x60269, size: 0x8, addend: 0x0, symName: __ZNSt3__120__shared_ptr_emplaceI17PerspectiveCameraNS_9allocatorIS1_EEE8_Storage11__get_allocB8ue170006Ev, symObjAddr: 0xB980, symBinAddr: 0x100060434, symSize: 0x3C }
  - { offsetInCU: 0x115FD, offset: 0x602BD, size: 0x8, addend: 0x0, symName: __ZNSt3__117__compressed_pairINS_9allocatorI17PerspectiveCameraEES2_E16__get_first_baseB8ue170006EPS4_, symObjAddr: 0xB9BC, symBinAddr: 0x100060470, symSize: 0x14 }
  - { offsetInCU: 0x11620, offset: 0x602E0, size: 0x8, addend: 0x0, symName: __ZNSt3__120__shared_ptr_emplaceI17PerspectiveCameraNS_9allocatorIS1_EEE8_StorageD2B8ue170006Ev, symObjAddr: 0xB9D0, symBinAddr: 0x100060484, symSize: 0x2C }
  - { offsetInCU: 0x11648, offset: 0x60308, size: 0x8, addend: 0x0, symName: __ZNSt3__120__shared_ptr_emplaceI17PerspectiveCameraNS_9allocatorIS1_EEED2Ev, symObjAddr: 0xB9FC, symBinAddr: 0x1000604B0, symSize: 0x88 }
  - { offsetInCU: 0x11674, offset: 0x60334, size: 0x8, addend: 0x0, symName: __ZNSt3__120__shared_ptr_emplaceI17PerspectiveCameraNS_9allocatorIS1_EEE11__get_allocB8ue170006Ev, symObjAddr: 0xBA84, symBinAddr: 0x100060538, symSize: 0x28 }
  - { offsetInCU: 0x11698, offset: 0x60358, size: 0x8, addend: 0x0, symName: __ZNSt3__116allocator_traitsINS_9allocatorINS_20__shared_ptr_emplaceI17PerspectiveCameraNS1_IS3_EEEEEEE10deallocateB8ue170006ERS6_PS5_m, symObjAddr: 0xBAAC, symBinAddr: 0x100060560, symSize: 0x34 }
  - { offsetInCU: 0x116DA, offset: 0x6039A, size: 0x8, addend: 0x0, symName: __ZNSt3__114pointer_traitsIPNS_20__shared_ptr_emplaceI17PerspectiveCameraNS_9allocatorIS2_EEEEE10pointer_toB8ue170006ERS5_, symObjAddr: 0xBAE0, symBinAddr: 0x100060594, symSize: 0x14 }
  - { offsetInCU: 0x116FD, offset: 0x603BD, size: 0x8, addend: 0x0, symName: __ZNSt3__19allocatorINS_20__shared_ptr_emplaceI17PerspectiveCameraNS0_IS2_EEEEE10deallocateB8ue170006EPS4_m, symObjAddr: 0xBAF4, symBinAddr: 0x1000605A8, symSize: 0x50 }
  - { offsetInCU: 0x1173D, offset: 0x603FD, size: 0x8, addend: 0x0, symName: __ZNSt3__110shared_ptrI17PerspectiveCameraEC1B8ue170006Ev, symObjAddr: 0xBC4C, symBinAddr: 0x1000605F8, symSize: 0x2C }
  - { offsetInCU: 0x11765, offset: 0x60425, size: 0x8, addend: 0x0, symName: __ZNSt3__110shared_ptrI17PerspectiveCameraE18__enable_weak_thisB8ue170006Ez, symObjAddr: 0xBC78, symBinAddr: 0x100060624, symSize: 0x10 }
  - { offsetInCU: 0x1178A, offset: 0x6044A, size: 0x8, addend: 0x0, symName: __ZNSt3__110shared_ptrI17PerspectiveCameraEC2B8ue170006Ev, symObjAddr: 0xBC88, symBinAddr: 0x100060634, symSize: 0x9C }
  - { offsetInCU: 0x117B2, offset: 0x60472, size: 0x8, addend: 0x0, symName: __ZNSt3__120__shared_ptr_emplaceI17PerspectiveCameraNS_9allocatorIS1_EEE8_Storage10__get_elemB8ue170006Ev, symObjAddr: 0xBD24, symBinAddr: 0x1000606D0, symSize: 0x3C }
  - { offsetInCU: 0x11806, offset: 0x604C6, size: 0x8, addend: 0x0, symName: __ZNSt3__117__compressed_pairINS_9allocatorI17PerspectiveCameraEES2_E17__get_second_baseB8ue170006EPS4_, symObjAddr: 0xBD60, symBinAddr: 0x10006070C, symSize: 0x14 }
  - { offsetInCU: 0x11829, offset: 0x604E9, size: 0x8, addend: 0x0, symName: __ZNSt3__118__allocation_guardINS_9allocatorINS_20__shared_ptr_emplaceI17PerspectiveCameraNS1_IS3_EEEEEEED2B8ue170006Ev, symObjAddr: 0xBD74, symBinAddr: 0x100060720, symSize: 0x2C }
  - { offsetInCU: 0x11851, offset: 0x60511, size: 0x8, addend: 0x0, symName: __ZNSt3__118__allocation_guardINS_9allocatorINS_20__shared_ptr_emplaceI17PerspectiveCameraNS1_IS3_EEEEEEE9__destroyB8ue170006Ev, symObjAddr: 0xBDA0, symBinAddr: 0x10006074C, symSize: 0xFC }
  - { offsetInCU: 0x11875, offset: 0x60535, size: 0x8, addend: 0x0, symName: __ZNSt3__19allocatorI17PerspectiveCameraEC2B8ue170006Ev, symObjAddr: 0xBE9C, symBinAddr: 0x100060848, symSize: 0x2C }
  - { offsetInCU: 0x1189D, offset: 0x6055D, size: 0x8, addend: 0x0, symName: __ZNSt3__116__non_trivial_ifILb1ENS_9allocatorI17PerspectiveCameraEEEC2B8ue170006Ev, symObjAddr: 0xBEC8, symBinAddr: 0x100060874, symSize: 0x14 }
  - { offsetInCU: 0x118C6, offset: 0x60586, size: 0x8, addend: 0x0, symName: __ZNSt3__110shared_ptrI17PerspectiveCameraEC1B8ue170006EOS2_, symObjAddr: 0xBEDC, symBinAddr: 0x100060888, symSize: 0x34 }
  - { offsetInCU: 0x118FD, offset: 0x605BD, size: 0x8, addend: 0x0, symName: __ZNSt3__110shared_ptrI17PerspectiveCameraE4swapB8ue170006ERS2_, symObjAddr: 0xBF10, symBinAddr: 0x1000608BC, symSize: 0x44 }
  - { offsetInCU: 0x11930, offset: 0x605F0, size: 0x8, addend: 0x0, symName: __ZNSt3__110shared_ptrI17PerspectiveCameraEC2B8ue170006EOS2_, symObjAddr: 0xBF54, symBinAddr: 0x100060900, symSize: 0x1B8 }
  - { offsetInCU: 0x11967, offset: 0x60627, size: 0x8, addend: 0x0, symName: __ZNSt3__19allocatorINS_6vectorINS_10shared_ptrI5ModelEENS0_IS4_EEEEEC1B8ue170006Ev, symObjAddr: 0xC538, symBinAddr: 0x100060EE4, symSize: 0x2C }
  - { offsetInCU: 0x119DA, offset: 0x6069A, size: 0x8, addend: 0x0, symName: __ZNSt3__118__allocation_guardINS_9allocatorINS_20__shared_ptr_emplaceINS_6vectorINS_10shared_ptrI5ModelEENS1_IS6_EEEENS1_IS8_EEEEEEEC1B8ue170006IS9_EET_m, symObjAddr: 0xC564, symBinAddr: 0x100060F10, symSize: 0x34 }
  - { offsetInCU: 0x11A27, offset: 0x606E7, size: 0x8, addend: 0x0, symName: __ZNKSt3__118__allocation_guardINS_9allocatorINS_20__shared_ptr_emplaceINS_6vectorINS_10shared_ptrI5ModelEENS1_IS6_EEEENS1_IS8_EEEEEEE5__getB8ue170006Ev, symObjAddr: 0xC598, symBinAddr: 0x100060F44, symSize: 0x64 }
  - { offsetInCU: 0x11A4B, offset: 0x6070B, size: 0x8, addend: 0x0, symName: __ZNSt3__120__shared_ptr_emplaceINS_6vectorINS_10shared_ptrI5ModelEENS_9allocatorIS4_EEEENS5_IS7_EEEC1B8ue170006IJEEES8_DpOT_, symObjAddr: 0xC5FC, symBinAddr: 0x100060FA8, symSize: 0x2C }
  - { offsetInCU: 0x11A88, offset: 0x60748, size: 0x8, addend: 0x0, symName: __ZNSt3__118__allocation_guardINS_9allocatorINS_20__shared_ptr_emplaceINS_6vectorINS_10shared_ptrI5ModelEENS1_IS6_EEEENS1_IS8_EEEEEEE13__release_ptrB8ue170006Ev, symObjAddr: 0xC628, symBinAddr: 0x100060FD4, symSize: 0xA8 }
  - { offsetInCU: 0x11ABA, offset: 0x6077A, size: 0x8, addend: 0x0, symName: __ZNSt3__110shared_ptrINS_6vectorINS0_I5ModelEENS_9allocatorIS3_EEEEE27__create_with_control_blockB8ue170006IS6_NS_20__shared_ptr_emplaceIS6_NS4_IS6_EEEEEES7_PT_PT0_, symObjAddr: 0xC6D0, symBinAddr: 0x10006107C, symSize: 0x188 }
  - { offsetInCU: 0x11B10, offset: 0x607D0, size: 0x8, addend: 0x0, symName: __ZNSt3__120__shared_ptr_emplaceINS_6vectorINS_10shared_ptrI5ModelEENS_9allocatorIS4_EEEENS5_IS7_EEE10__get_elemB8ue170006Ev, symObjAddr: 0xC858, symBinAddr: 0x100061204, symSize: 0x28 }
  - { offsetInCU: 0x11B34, offset: 0x607F4, size: 0x8, addend: 0x0, symName: __ZNSt3__118__allocation_guardINS_9allocatorINS_20__shared_ptr_emplaceINS_6vectorINS_10shared_ptrI5ModelEENS1_IS6_EEEENS1_IS8_EEEEEEED1B8ue170006Ev, symObjAddr: 0xC880, symBinAddr: 0x10006122C, symSize: 0x2C }
  - { offsetInCU: 0x11B5C, offset: 0x6081C, size: 0x8, addend: 0x0, symName: __ZNSt3__118__allocation_guardINS_9allocatorINS_20__shared_ptr_emplaceINS_6vectorINS_10shared_ptrI5ModelEENS1_IS6_EEEENS1_IS8_EEEEEEEC2B8ue170006IS9_EET_m, symObjAddr: 0xC8AC, symBinAddr: 0x100061258, symSize: 0x28C }
  - { offsetInCU: 0x11BAF, offset: 0x6086F, size: 0x8, addend: 0x0, symName: __ZNSt3__19allocatorINS_20__shared_ptr_emplaceINS_6vectorINS_10shared_ptrI5ModelEENS0_IS5_EEEENS0_IS7_EEEEEC1B8ue170006IS7_EERKNS0_IT_EE, symObjAddr: 0xCB38, symBinAddr: 0x1000614E4, symSize: 0x34 }
  - { offsetInCU: 0x11BEB, offset: 0x608AB, size: 0x8, addend: 0x0, symName: __ZNSt3__116allocator_traitsINS_9allocatorINS_20__shared_ptr_emplaceINS_6vectorINS_10shared_ptrI5ModelEENS1_IS6_EEEENS1_IS8_EEEEEEE8allocateB8ue170006ERSB_m, symObjAddr: 0xCB6C, symBinAddr: 0x100061518, symSize: 0x2C }
  - { offsetInCU: 0x11C1E, offset: 0x608DE, size: 0x8, addend: 0x0, symName: __ZNSt3__19allocatorINS_20__shared_ptr_emplaceINS_6vectorINS_10shared_ptrI5ModelEENS0_IS5_EEEENS0_IS7_EEEEEC2B8ue170006IS7_EERKNS0_IT_EE, symObjAddr: 0xCB98, symBinAddr: 0x100061544, symSize: 0x30 }
  - { offsetInCU: 0x11C5A, offset: 0x6091A, size: 0x8, addend: 0x0, symName: __ZNSt3__116__non_trivial_ifILb1ENS_9allocatorINS_20__shared_ptr_emplaceINS_6vectorINS_10shared_ptrI5ModelEENS1_IS6_EEEENS1_IS8_EEEEEEEC2B8ue170006Ev, symObjAddr: 0xCBC8, symBinAddr: 0x100061574, symSize: 0x14 }
  - { offsetInCU: 0x11C83, offset: 0x60943, size: 0x8, addend: 0x0, symName: __ZNSt3__19allocatorINS_20__shared_ptr_emplaceINS_6vectorINS_10shared_ptrI5ModelEENS0_IS5_EEEENS0_IS7_EEEEE8allocateB8ue170006Em, symObjAddr: 0xCBDC, symBinAddr: 0x100061588, symSize: 0x60 }
  - { offsetInCU: 0x11CBF, offset: 0x6097F, size: 0x8, addend: 0x0, symName: __ZNSt3__116allocator_traitsINS_9allocatorINS_20__shared_ptr_emplaceINS_6vectorINS_10shared_ptrI5ModelEENS1_IS6_EEEENS1_IS8_EEEEEEE8max_sizeB8ue170006ISB_vEEmRKSB_, symObjAddr: 0xCC3C, symBinAddr: 0x1000615E8, symSize: 0x24 }
  - { offsetInCU: 0x11CED, offset: 0x609AD, size: 0x8, addend: 0x0, symName: __ZNKSt3__19allocatorINS_20__shared_ptr_emplaceINS_6vectorINS_10shared_ptrI5ModelEENS0_IS5_EEEENS0_IS7_EEEEE8max_sizeB8ue170006Ev, symObjAddr: 0xCC60, symBinAddr: 0x10006160C, symSize: 0x18 }
  - { offsetInCU: 0x11D11, offset: 0x609D1, size: 0x8, addend: 0x0, symName: __ZNSt3__120__shared_ptr_emplaceINS_6vectorINS_10shared_ptrI5ModelEENS_9allocatorIS4_EEEENS5_IS7_EEEC2B8ue170006IJEEES8_DpOT_, symObjAddr: 0xCC78, symBinAddr: 0x100061624, symSize: 0x2B8 }
  - { offsetInCU: 0x11D53, offset: 0x60A13, size: 0x8, addend: 0x0, symName: __ZNSt3__120__shared_ptr_emplaceINS_6vectorINS_10shared_ptrI5ModelEENS_9allocatorIS4_EEEENS5_IS7_EEE8_StorageC1B8ue170006EOS8_, symObjAddr: 0xCF30, symBinAddr: 0x1000618DC, symSize: 0x34 }
  - { offsetInCU: 0x11D8A, offset: 0x60A4A, size: 0x8, addend: 0x0, symName: __ZNSt3__16vectorINS_10shared_ptrI5ModelEENS_9allocatorIS3_EEEC1B8ue170006Ev, symObjAddr: 0xCF64, symBinAddr: 0x100061910, symSize: 0x2C }
  - { offsetInCU: 0x11DB2, offset: 0x60A72, size: 0x8, addend: 0x0, symName: __ZNSt3__120__shared_ptr_emplaceINS_6vectorINS_10shared_ptrI5ModelEENS_9allocatorIS4_EEEENS5_IS7_EEED1Ev, symObjAddr: 0xCF90, symBinAddr: 0x10006193C, symSize: 0x2C }
  - { offsetInCU: 0x11DDE, offset: 0x60A9E, size: 0x8, addend: 0x0, symName: __ZNSt3__120__shared_ptr_emplaceINS_6vectorINS_10shared_ptrI5ModelEENS_9allocatorIS4_EEEENS5_IS7_EEED0Ev, symObjAddr: 0xCFBC, symBinAddr: 0x100061968, symSize: 0x30 }
  - { offsetInCU: 0x11E0A, offset: 0x60ACA, size: 0x8, addend: 0x0, symName: __ZNSt3__120__shared_ptr_emplaceINS_6vectorINS_10shared_ptrI5ModelEENS_9allocatorIS4_EEEENS5_IS7_EEE16__on_zero_sharedEv, symObjAddr: 0xCFEC, symBinAddr: 0x100061998, symSize: 0x28 }
  - { offsetInCU: 0x11E2E, offset: 0x60AEE, size: 0x8, addend: 0x0, symName: __ZNSt3__120__shared_ptr_emplaceINS_6vectorINS_10shared_ptrI5ModelEENS_9allocatorIS4_EEEENS5_IS7_EEE21__on_zero_shared_weakEv, symObjAddr: 0xD014, symBinAddr: 0x1000619C0, symSize: 0x208 }
  - { offsetInCU: 0x11E73, offset: 0x60B33, size: 0x8, addend: 0x0, symName: __ZNSt3__120__shared_ptr_emplaceINS_6vectorINS_10shared_ptrI5ModelEENS_9allocatorIS4_EEEENS5_IS7_EEE8_StorageC2B8ue170006EOS8_, symObjAddr: 0xD21C, symBinAddr: 0x100061BC8, symSize: 0x30 }
  - { offsetInCU: 0x11EAA, offset: 0x60B6A, size: 0x8, addend: 0x0, symName: __ZNSt3__120__shared_ptr_emplaceINS_6vectorINS_10shared_ptrI5ModelEENS_9allocatorIS4_EEEENS5_IS7_EEE8_Storage11__get_allocB8ue170006Ev, symObjAddr: 0xD24C, symBinAddr: 0x100061BF8, symSize: 0x3C }
  - { offsetInCU: 0x11EFE, offset: 0x60BBE, size: 0x8, addend: 0x0, symName: __ZNSt3__117__compressed_pairINS_9allocatorINS_6vectorINS_10shared_ptrI5ModelEENS1_IS5_EEEEEES7_E16__get_first_baseB8ue170006EPS9_, symObjAddr: 0xD288, symBinAddr: 0x100061C34, symSize: 0x14 }
  - { offsetInCU: 0x11F21, offset: 0x60BE1, size: 0x8, addend: 0x0, symName: __ZNSt3__16vectorINS_10shared_ptrI5ModelEENS_9allocatorIS3_EEEC2B8ue170006Ev, symObjAddr: 0xD29C, symBinAddr: 0x100061C48, symSize: 0x2E8 }
  - { offsetInCU: 0x11F4F, offset: 0x60C0F, size: 0x8, addend: 0x0, symName: __ZNSt3__117__compressed_pairIPNS_10shared_ptrI5ModelEENS_9allocatorIS3_EEEC1B8ue170006IDnNS_18__default_init_tagEEEOT_OT0_, symObjAddr: 0xD584, symBinAddr: 0x100061F30, symSize: 0x3C }
  - { offsetInCU: 0x11FA5, offset: 0x60C65, size: 0x8, addend: 0x0, symName: __ZNSt3__117__compressed_pairIPNS_10shared_ptrI5ModelEENS_9allocatorIS3_EEEC2B8ue170006IDnNS_18__default_init_tagEEEOT_OT0_, symObjAddr: 0xD5C0, symBinAddr: 0x100061F6C, symSize: 0x40 }
  - { offsetInCU: 0x11FFB, offset: 0x60CBB, size: 0x8, addend: 0x0, symName: __ZNSt3__122__compressed_pair_elemIPNS_10shared_ptrI5ModelEELi0ELb0EEC2B8ue170006IDnvEEOT_, symObjAddr: 0xD600, symBinAddr: 0x100061FAC, symSize: 0x64 }
  - { offsetInCU: 0x1203B, offset: 0x60CFB, size: 0x8, addend: 0x0, symName: __ZNSt3__122__compressed_pair_elemINS_9allocatorINS_10shared_ptrI5ModelEEEELi1ELb1EEC2B8ue170006ENS_18__default_init_tagE, symObjAddr: 0xD664, symBinAddr: 0x100062010, symSize: 0x2C }
  - { offsetInCU: 0x1206E, offset: 0x60D2E, size: 0x8, addend: 0x0, symName: __ZNSt3__19allocatorINS_10shared_ptrI5ModelEEEC2B8ue170006Ev, symObjAddr: 0xD690, symBinAddr: 0x10006203C, symSize: 0x2C }
  - { offsetInCU: 0x12096, offset: 0x60D56, size: 0x8, addend: 0x0, symName: __ZNSt3__116__non_trivial_ifILb1ENS_9allocatorINS_10shared_ptrI5ModelEEEEEC2B8ue170006Ev, symObjAddr: 0xD6BC, symBinAddr: 0x100062068, symSize: 0x14 }
  - { offsetInCU: 0x120BF, offset: 0x60D7F, size: 0x8, addend: 0x0, symName: __ZNSt3__120__shared_ptr_emplaceINS_6vectorINS_10shared_ptrI5ModelEENS_9allocatorIS4_EEEENS5_IS7_EEED2Ev, symObjAddr: 0xD6D0, symBinAddr: 0x10006207C, symSize: 0x88 }
  - { offsetInCU: 0x120EB, offset: 0x60DAB, size: 0x8, addend: 0x0, symName: __ZNSt3__120__shared_ptr_emplaceINS_6vectorINS_10shared_ptrI5ModelEENS_9allocatorIS4_EEEENS5_IS7_EEE8_StorageD1B8ue170006Ev, symObjAddr: 0xD758, symBinAddr: 0x100062104, symSize: 0x2C }
  - { offsetInCU: 0x12113, offset: 0x60DD3, size: 0x8, addend: 0x0, symName: __ZNSt3__120__shared_ptr_emplaceINS_6vectorINS_10shared_ptrI5ModelEENS_9allocatorIS4_EEEENS5_IS7_EEE8_StorageD2B8ue170006Ev, symObjAddr: 0xD784, symBinAddr: 0x100062130, symSize: 0x2C }
  - { offsetInCU: 0x1213B, offset: 0x60DFB, size: 0x8, addend: 0x0, symName: __ZNSt3__16vectorINS_10shared_ptrI5ModelEENS_9allocatorIS3_EEED1B8ue170006Ev, symObjAddr: 0xD7B0, symBinAddr: 0x10006215C, symSize: 0x2C }
  - { offsetInCU: 0x12163, offset: 0x60E23, size: 0x8, addend: 0x0, symName: __ZNSt3__16vectorINS_10shared_ptrI5ModelEENS_9allocatorIS3_EEED2B8ue170006Ev, symObjAddr: 0xD7DC, symBinAddr: 0x100062188, symSize: 0x1F8 }
  - { offsetInCU: 0x1218C, offset: 0x60E4C, size: 0x8, addend: 0x0, symName: __ZNSt3__16vectorINS_10shared_ptrI5ModelEENS_9allocatorIS3_EEE16__destroy_vectorC1B8ue170006ERS6_, symObjAddr: 0xD9D4, symBinAddr: 0x100062380, symSize: 0x34 }
  - { offsetInCU: 0x121C3, offset: 0x60E83, size: 0x8, addend: 0x0, symName: __ZNSt3__16vectorINS_10shared_ptrI5ModelEENS_9allocatorIS3_EEE16__destroy_vectorclB8ue170006Ev, symObjAddr: 0xDA08, symBinAddr: 0x1000623B4, symSize: 0x228 }
  - { offsetInCU: 0x121E7, offset: 0x60EA7, size: 0x8, addend: 0x0, symName: __ZNSt3__16vectorINS_10shared_ptrI5ModelEENS_9allocatorIS3_EEE16__destroy_vectorC2B8ue170006ERS6_, symObjAddr: 0xDC30, symBinAddr: 0x1000625DC, symSize: 0x70 }
  - { offsetInCU: 0x1221E, offset: 0x60EDE, size: 0x8, addend: 0x0, symName: __ZNSt3__16vectorINS_10shared_ptrI5ModelEENS_9allocatorIS3_EEE7__clearB8ue170006Ev, symObjAddr: 0xDCA0, symBinAddr: 0x10006264C, symSize: 0x64 }
  - { offsetInCU: 0x12242, offset: 0x60F02, size: 0x8, addend: 0x0, symName: __ZNKSt3__16vectorINS_10shared_ptrI5ModelEENS_9allocatorIS3_EEE17__annotate_deleteB8ue170006Ev, symObjAddr: 0xDD04, symBinAddr: 0x1000626B0, symSize: 0xCC }
  - { offsetInCU: 0x12266, offset: 0x60F26, size: 0x8, addend: 0x0, symName: __ZNSt3__116allocator_traitsINS_9allocatorINS_10shared_ptrI5ModelEEEEE10deallocateB8ue170006ERS5_PS4_m, symObjAddr: 0xDDD0, symBinAddr: 0x10006277C, symSize: 0x34 }
  - { offsetInCU: 0x122A8, offset: 0x60F68, size: 0x8, addend: 0x0, symName: __ZNSt3__16vectorINS_10shared_ptrI5ModelEENS_9allocatorIS3_EEE7__allocB8ue170006Ev, symObjAddr: 0xDE04, symBinAddr: 0x1000627B0, symSize: 0x28 }
  - { offsetInCU: 0x122CC, offset: 0x60F8C, size: 0x8, addend: 0x0, symName: __ZNKSt3__16vectorINS_10shared_ptrI5ModelEENS_9allocatorIS3_EEE8capacityB8ue170006Ev, symObjAddr: 0xDE2C, symBinAddr: 0x1000627D8, symSize: 0xBC }
  - { offsetInCU: 0x122F0, offset: 0x60FB0, size: 0x8, addend: 0x0, symName: __ZNSt3__16vectorINS_10shared_ptrI5ModelEENS_9allocatorIS3_EEE22__base_destruct_at_endB8ue170006EPS3_, symObjAddr: 0xDEE8, symBinAddr: 0x100062894, symSize: 0x114 }
  - { offsetInCU: 0x12333, offset: 0x60FF3, size: 0x8, addend: 0x0, symName: __ZNSt3__116allocator_traitsINS_9allocatorINS_10shared_ptrI5ModelEEEEE7destroyB8ue170006IS4_vEEvRS5_PT_, symObjAddr: 0xDFFC, symBinAddr: 0x1000629A8, symSize: 0x2C }
  - { offsetInCU: 0x12370, offset: 0x61030, size: 0x8, addend: 0x0, symName: __ZNSt3__19allocatorINS_10shared_ptrI5ModelEEE7destroyB8ue170006EPS3_, symObjAddr: 0xE03C, symBinAddr: 0x1000629E8, symSize: 0x28 }
  - { offsetInCU: 0x123A2, offset: 0x61062, size: 0x8, addend: 0x0, symName: __ZNKSt3__16vectorINS_10shared_ptrI5ModelEENS_9allocatorIS3_EEE31__annotate_contiguous_containerEPKvS8_S8_S8_, symObjAddr: 0xE064, symBinAddr: 0x100062A10, symSize: 0x58 }
  - { offsetInCU: 0x12402, offset: 0x610C2, size: 0x8, addend: 0x0, symName: __ZNKSt3__16vectorINS_10shared_ptrI5ModelEENS_9allocatorIS3_EEE4dataB8ue170006Ev, symObjAddr: 0xE0BC, symBinAddr: 0x100062A68, symSize: 0x64 }
  - { offsetInCU: 0x12426, offset: 0x610E6, size: 0x8, addend: 0x0, symName: __ZNKSt3__16vectorINS_10shared_ptrI5ModelEENS_9allocatorIS3_EEE4sizeB8ue170006Ev, symObjAddr: 0xE120, symBinAddr: 0x100062ACC, symSize: 0xB0 }
  - { offsetInCU: 0x1244A, offset: 0x6110A, size: 0x8, addend: 0x0, symName: __ZNSt3__19allocatorINS_10shared_ptrI5ModelEEE10deallocateB8ue170006EPS3_m, symObjAddr: 0xE1D0, symBinAddr: 0x100062B7C, symSize: 0x4C }
  - { offsetInCU: 0x1248A, offset: 0x6114A, size: 0x8, addend: 0x0, symName: __ZNSt3__117__compressed_pairIPNS_10shared_ptrI5ModelEENS_9allocatorIS3_EEE6secondB8ue170006Ev, symObjAddr: 0xE21C, symBinAddr: 0x100062BC8, symSize: 0x24 }
  - { offsetInCU: 0x124AE, offset: 0x6116E, size: 0x8, addend: 0x0, symName: __ZNSt3__122__compressed_pair_elemINS_9allocatorINS_10shared_ptrI5ModelEEEELi1ELb1EE5__getB8ue170006Ev, symObjAddr: 0xE240, symBinAddr: 0x100062BEC, symSize: 0x14 }
  - { offsetInCU: 0x124D2, offset: 0x61192, size: 0x8, addend: 0x0, symName: __ZNKSt3__16vectorINS_10shared_ptrI5ModelEENS_9allocatorIS3_EEE9__end_capB8ue170006Ev, symObjAddr: 0xE254, symBinAddr: 0x100062C00, symSize: 0x28 }
  - { offsetInCU: 0x124F6, offset: 0x611B6, size: 0x8, addend: 0x0, symName: __ZNKSt3__117__compressed_pairIPNS_10shared_ptrI5ModelEENS_9allocatorIS3_EEE5firstB8ue170006Ev, symObjAddr: 0xE27C, symBinAddr: 0x100062C28, symSize: 0x24 }
  - { offsetInCU: 0x1251A, offset: 0x611DA, size: 0x8, addend: 0x0, symName: __ZNKSt3__122__compressed_pair_elemIPNS_10shared_ptrI5ModelEELi0ELb0EE5__getB8ue170006Ev, symObjAddr: 0xE2A0, symBinAddr: 0x100062C4C, symSize: 0x14 }
  - { offsetInCU: 0x1253E, offset: 0x611FE, size: 0x8, addend: 0x0, symName: __ZNSt3__120__shared_ptr_emplaceINS_6vectorINS_10shared_ptrI5ModelEENS_9allocatorIS4_EEEENS5_IS7_EEE11__get_allocB8ue170006Ev, symObjAddr: 0xE2B4, symBinAddr: 0x100062C60, symSize: 0x28 }
  - { offsetInCU: 0x12562, offset: 0x61222, size: 0x8, addend: 0x0, symName: __ZNSt3__116allocator_traitsINS_9allocatorINS_20__shared_ptr_emplaceINS_6vectorINS_10shared_ptrI5ModelEENS1_IS6_EEEENS1_IS8_EEEEEEE10deallocateB8ue170006ERSB_PSA_m, symObjAddr: 0xE2DC, symBinAddr: 0x100062C88, symSize: 0x34 }
  - { offsetInCU: 0x125A4, offset: 0x61264, size: 0x8, addend: 0x0, symName: __ZNSt3__114pointer_traitsIPNS_20__shared_ptr_emplaceINS_6vectorINS_10shared_ptrI5ModelEENS_9allocatorIS5_EEEENS6_IS8_EEEEE10pointer_toB8ue170006ERSA_, symObjAddr: 0xE310, symBinAddr: 0x100062CBC, symSize: 0x14 }
  - { offsetInCU: 0x125C7, offset: 0x61287, size: 0x8, addend: 0x0, symName: __ZNSt3__19allocatorINS_20__shared_ptr_emplaceINS_6vectorINS_10shared_ptrI5ModelEENS0_IS5_EEEENS0_IS7_EEEEE10deallocateB8ue170006EPS9_m, symObjAddr: 0xE324, symBinAddr: 0x100062CD0, symSize: 0x50 }
  - { offsetInCU: 0x12607, offset: 0x612C7, size: 0x8, addend: 0x0, symName: __ZNSt3__110shared_ptrINS_6vectorINS0_I5ModelEENS_9allocatorIS3_EEEEE18__enable_weak_thisB8ue170006Ez, symObjAddr: 0xE374, symBinAddr: 0x100062D20, symSize: 0x10 }
  - { offsetInCU: 0x1262C, offset: 0x612EC, size: 0x8, addend: 0x0, symName: __ZNSt3__120__shared_ptr_emplaceINS_6vectorINS_10shared_ptrI5ModelEENS_9allocatorIS4_EEEENS5_IS7_EEE8_Storage10__get_elemB8ue170006Ev, symObjAddr: 0xE384, symBinAddr: 0x100062D30, symSize: 0x3C }
  - { offsetInCU: 0x12680, offset: 0x61340, size: 0x8, addend: 0x0, symName: __ZNSt3__117__compressed_pairINS_9allocatorINS_6vectorINS_10shared_ptrI5ModelEENS1_IS5_EEEEEES7_E17__get_second_baseB8ue170006EPS9_, symObjAddr: 0xE3C0, symBinAddr: 0x100062D6C, symSize: 0x14 }
  - { offsetInCU: 0x126A3, offset: 0x61363, size: 0x8, addend: 0x0, symName: __ZNSt3__118__allocation_guardINS_9allocatorINS_20__shared_ptr_emplaceINS_6vectorINS_10shared_ptrI5ModelEENS1_IS6_EEEENS1_IS8_EEEEEEED2B8ue170006Ev, symObjAddr: 0xE3D4, symBinAddr: 0x100062D80, symSize: 0x2C }
  - { offsetInCU: 0x126CB, offset: 0x6138B, size: 0x8, addend: 0x0, symName: __ZNSt3__118__allocation_guardINS_9allocatorINS_20__shared_ptr_emplaceINS_6vectorINS_10shared_ptrI5ModelEENS1_IS6_EEEENS1_IS8_EEEEEEE9__destroyB8ue170006Ev, symObjAddr: 0xE400, symBinAddr: 0x100062DAC, symSize: 0xFC }
  - { offsetInCU: 0x126EF, offset: 0x613AF, size: 0x8, addend: 0x0, symName: __ZNSt3__19allocatorINS_6vectorINS_10shared_ptrI5ModelEENS0_IS4_EEEEEC2B8ue170006Ev, symObjAddr: 0xE4FC, symBinAddr: 0x100062EA8, symSize: 0x2C }
  - { offsetInCU: 0x12717, offset: 0x613D7, size: 0x8, addend: 0x0, symName: __ZNSt3__116__non_trivial_ifILb1ENS_9allocatorINS_6vectorINS_10shared_ptrI5ModelEENS1_IS5_EEEEEEEC2B8ue170006Ev, symObjAddr: 0xE528, symBinAddr: 0x100062ED4, symSize: 0x14 }
  - { offsetInCU: 0x12740, offset: 0x61400, size: 0x8, addend: 0x0, symName: __ZNSt3__110shared_ptrINS_6vectorINS0_I5ModelEENS_9allocatorIS3_EEEEEC1B8ue170006EOS7_, symObjAddr: 0xE53C, symBinAddr: 0x100062EE8, symSize: 0x34 }
  - { offsetInCU: 0x12777, offset: 0x61437, size: 0x8, addend: 0x0, symName: __ZNSt3__110shared_ptrINS_6vectorINS0_I5ModelEENS_9allocatorIS3_EEEEE4swapB8ue170006ERS7_, symObjAddr: 0xE570, symBinAddr: 0x100062F1C, symSize: 0x44 }
  - { offsetInCU: 0x127AA, offset: 0x6146A, size: 0x8, addend: 0x0, symName: __ZNSt3__110shared_ptrINS_6vectorINS0_I5ModelEENS_9allocatorIS3_EEEEEC2B8ue170006EOS7_, symObjAddr: 0xE5B4, symBinAddr: 0x100062F60, symSize: 0x1B8 }
  - { offsetInCU: 0x127E1, offset: 0x614A1, size: 0x8, addend: 0x0, symName: __ZNSt3__19allocatorI5ModelEC1B8ue170006Ev, symObjAddr: 0xEBB0, symBinAddr: 0x10006355C, symSize: 0x2C }
  - { offsetInCU: 0x12854, offset: 0x61514, size: 0x8, addend: 0x0, symName: __ZNSt3__118__allocation_guardINS_9allocatorINS_20__shared_ptr_emplaceI5ModelNS1_IS3_EEEEEEEC1B8ue170006IS4_EET_m, symObjAddr: 0xEBDC, symBinAddr: 0x100063588, symSize: 0x34 }
  - { offsetInCU: 0x128A1, offset: 0x61561, size: 0x8, addend: 0x0, symName: __ZNKSt3__118__allocation_guardINS_9allocatorINS_20__shared_ptr_emplaceI5ModelNS1_IS3_EEEEEEE5__getB8ue170006Ev, symObjAddr: 0xEC10, symBinAddr: 0x1000635BC, symSize: 0x64 }
  - { offsetInCU: 0x128E5, offset: 0x615A5, size: 0x8, addend: 0x0, symName: __ZNSt3__120__shared_ptr_emplaceI5ModelNS_9allocatorIS1_EEEC1B8ue170006IJRA36_Kc11OBJECT_TYPEP8MaterialEEES3_DpOT_, symObjAddr: 0xEC74, symBinAddr: 0x100063620, symSize: 0x44 }
  - { offsetInCU: 0x1295E, offset: 0x6161E, size: 0x8, addend: 0x0, symName: __ZNSt3__118__allocation_guardINS_9allocatorINS_20__shared_ptr_emplaceI5ModelNS1_IS3_EEEEEEE13__release_ptrB8ue170006Ev, symObjAddr: 0xECB8, symBinAddr: 0x100063664, symSize: 0xA8 }
  - { offsetInCU: 0x12990, offset: 0x61650, size: 0x8, addend: 0x0, symName: __ZNSt3__110shared_ptrI5ModelE27__create_with_control_blockB8ue170006IS1_NS_20__shared_ptr_emplaceIS1_NS_9allocatorIS1_EEEEEES2_PT_PT0_, symObjAddr: 0xED60, symBinAddr: 0x10006370C, symSize: 0x188 }
  - { offsetInCU: 0x129E6, offset: 0x616A6, size: 0x8, addend: 0x0, symName: __ZNSt3__120__shared_ptr_emplaceI5ModelNS_9allocatorIS1_EEE10__get_elemB8ue170006Ev, symObjAddr: 0xEEE8, symBinAddr: 0x100063894, symSize: 0x28 }
  - { offsetInCU: 0x12A0A, offset: 0x616CA, size: 0x8, addend: 0x0, symName: __ZNSt3__118__allocation_guardINS_9allocatorINS_20__shared_ptr_emplaceI5ModelNS1_IS3_EEEEEEED1B8ue170006Ev, symObjAddr: 0xEF10, symBinAddr: 0x1000638BC, symSize: 0x2C }
  - { offsetInCU: 0x12A32, offset: 0x616F2, size: 0x8, addend: 0x0, symName: __ZNSt3__118__allocation_guardINS_9allocatorINS_20__shared_ptr_emplaceI5ModelNS1_IS3_EEEEEEEC2B8ue170006IS4_EET_m, symObjAddr: 0xEF3C, symBinAddr: 0x1000638E8, symSize: 0x28C }
  - { offsetInCU: 0x12A85, offset: 0x61745, size: 0x8, addend: 0x0, symName: __ZNSt3__19allocatorINS_20__shared_ptr_emplaceI5ModelNS0_IS2_EEEEEC1B8ue170006IS2_EERKNS0_IT_EE, symObjAddr: 0xF1C8, symBinAddr: 0x100063B74, symSize: 0x34 }
  - { offsetInCU: 0x12AC1, offset: 0x61781, size: 0x8, addend: 0x0, symName: __ZNSt3__116allocator_traitsINS_9allocatorINS_20__shared_ptr_emplaceI5ModelNS1_IS3_EEEEEEE8allocateB8ue170006ERS6_m, symObjAddr: 0xF1FC, symBinAddr: 0x100063BA8, symSize: 0x2C }
  - { offsetInCU: 0x12AF4, offset: 0x617B4, size: 0x8, addend: 0x0, symName: __ZNSt3__19allocatorINS_20__shared_ptr_emplaceI5ModelNS0_IS2_EEEEEC2B8ue170006IS2_EERKNS0_IT_EE, symObjAddr: 0xF228, symBinAddr: 0x100063BD4, symSize: 0x30 }
  - { offsetInCU: 0x12B30, offset: 0x617F0, size: 0x8, addend: 0x0, symName: __ZNSt3__116__non_trivial_ifILb1ENS_9allocatorINS_20__shared_ptr_emplaceI5ModelNS1_IS3_EEEEEEEC2B8ue170006Ev, symObjAddr: 0xF258, symBinAddr: 0x100063C04, symSize: 0x14 }
  - { offsetInCU: 0x12B59, offset: 0x61819, size: 0x8, addend: 0x0, symName: __ZNSt3__19allocatorINS_20__shared_ptr_emplaceI5ModelNS0_IS2_EEEEE8allocateB8ue170006Em, symObjAddr: 0xF26C, symBinAddr: 0x100063C18, symSize: 0x60 }
  - { offsetInCU: 0x12B95, offset: 0x61855, size: 0x8, addend: 0x0, symName: __ZNSt3__116allocator_traitsINS_9allocatorINS_20__shared_ptr_emplaceI5ModelNS1_IS3_EEEEEEE8max_sizeB8ue170006IS6_vEEmRKS6_, symObjAddr: 0xF2CC, symBinAddr: 0x100063C78, symSize: 0x24 }
  - { offsetInCU: 0x12BC3, offset: 0x61883, size: 0x8, addend: 0x0, symName: __ZNKSt3__19allocatorINS_20__shared_ptr_emplaceI5ModelNS0_IS2_EEEEE8max_sizeB8ue170006Ev, symObjAddr: 0xF2F0, symBinAddr: 0x100063C9C, symSize: 0x20 }
  - { offsetInCU: 0x12BE7, offset: 0x618A7, size: 0x8, addend: 0x0, symName: __ZNSt3__120__shared_ptr_emplaceI5ModelNS_9allocatorIS1_EEEC2B8ue170006IJRA36_Kc11OBJECT_TYPEP8MaterialEEES3_DpOT_, symObjAddr: 0xF310, symBinAddr: 0x100063CBC, symSize: 0x458 }
  - { offsetInCU: 0x12C68, offset: 0x61928, size: 0x8, addend: 0x0, symName: __ZNSt3__120__shared_ptr_emplaceI5ModelNS_9allocatorIS1_EEE8_StorageC1B8ue170006EOS3_, symObjAddr: 0xF768, symBinAddr: 0x100064114, symSize: 0x34 }
  - { offsetInCU: 0x12C9F, offset: 0x6195F, size: 0x8, addend: 0x0, symName: __ZN5ModelC1ERKNSt3__112basic_stringIcNS0_11char_traitsIcEENS0_9allocatorIcEEEE11OBJECT_TYPEP8Material, symObjAddr: 0xF79C, symBinAddr: 0x100064148, symSize: 0x44 }
  - { offsetInCU: 0x12CF1, offset: 0x619B1, size: 0x8, addend: 0x0, symName: __ZNSt3__120__shared_ptr_emplaceI5ModelNS_9allocatorIS1_EEE8_StorageD1B8ue170006Ev, symObjAddr: 0xF7E0, symBinAddr: 0x10006418C, symSize: 0x2C }
  - { offsetInCU: 0x12D19, offset: 0x619D9, size: 0x8, addend: 0x0, symName: __ZNSt3__120__shared_ptr_emplaceI5ModelNS_9allocatorIS1_EEED1Ev, symObjAddr: 0xF80C, symBinAddr: 0x1000641B8, symSize: 0x2C }
  - { offsetInCU: 0x12D45, offset: 0x61A05, size: 0x8, addend: 0x0, symName: __ZNSt3__120__shared_ptr_emplaceI5ModelNS_9allocatorIS1_EEED0Ev, symObjAddr: 0xF838, symBinAddr: 0x1000641E4, symSize: 0x30 }
  - { offsetInCU: 0x12D71, offset: 0x61A31, size: 0x8, addend: 0x0, symName: __ZNSt3__120__shared_ptr_emplaceI5ModelNS_9allocatorIS1_EEE16__on_zero_sharedEv, symObjAddr: 0xF868, symBinAddr: 0x100064214, symSize: 0x28 }
  - { offsetInCU: 0x12D95, offset: 0x61A55, size: 0x8, addend: 0x0, symName: __ZNSt3__120__shared_ptr_emplaceI5ModelNS_9allocatorIS1_EEE21__on_zero_shared_weakEv, symObjAddr: 0xF890, symBinAddr: 0x10006423C, symSize: 0x208 }
  - { offsetInCU: 0x12DDA, offset: 0x61A9A, size: 0x8, addend: 0x0, symName: __ZNSt3__120__shared_ptr_emplaceI5ModelNS_9allocatorIS1_EEE8_StorageC2B8ue170006EOS3_, symObjAddr: 0xFA98, symBinAddr: 0x100064444, symSize: 0x30 }
  - { offsetInCU: 0x12E11, offset: 0x61AD1, size: 0x8, addend: 0x0, symName: __ZNSt3__120__shared_ptr_emplaceI5ModelNS_9allocatorIS1_EEE8_Storage11__get_allocB8ue170006Ev, symObjAddr: 0xFAC8, symBinAddr: 0x100064474, symSize: 0x3C }
  - { offsetInCU: 0x12E65, offset: 0x61B25, size: 0x8, addend: 0x0, symName: __ZNSt3__117__compressed_pairINS_9allocatorI5ModelEES2_E16__get_first_baseB8ue170006EPS4_, symObjAddr: 0xFB04, symBinAddr: 0x1000644B0, symSize: 0x14 }
  - { offsetInCU: 0x12E88, offset: 0x61B48, size: 0x8, addend: 0x0, symName: __ZN5ModelC2ERKNSt3__112basic_stringIcNS0_11char_traitsIcEENS0_9allocatorIcEEEE11OBJECT_TYPEP8Material, symObjAddr: 0xFB18, symBinAddr: 0x1000644C4, symSize: 0x694 }
  - { offsetInCU: 0x12EF7, offset: 0x61BB7, size: 0x8, addend: 0x0, symName: __ZNSt3__16vectorI4MeshNS_9allocatorIS1_EEEC1B8ue170006Ev, symObjAddr: 0x101AC, symBinAddr: 0x100064B58, symSize: 0x2C }
  - { offsetInCU: 0x12F1F, offset: 0x61BDF, size: 0x8, addend: 0x0, symName: __ZNSt3__113unordered_mapINS_12basic_stringIcNS_11char_traitsIcEENS_9allocatorIcEEEENS_10shared_ptrI9Texture2DEENS_4hashIS6_EENS_8equal_toIS6_EENS4_INS_4pairIKS6_S9_EEEEEC1B8ue170006Ev, symObjAddr: 0x101D8, symBinAddr: 0x100064B84, symSize: 0x2C }
  - { offsetInCU: 0x12F47, offset: 0x61C07, size: 0x8, addend: 0x0, symName: __ZNKSt3__110shared_ptrI6ShaderEptB8ue170006Ev, symObjAddr: 0x1023C, symBinAddr: 0x100064BB0, symSize: 0x60 }
  - { offsetInCU: 0x12F6B, offset: 0x61C2B, size: 0x8, addend: 0x0, symName: __ZNK6Shader7GetNameEv, symObjAddr: 0x1029C, symBinAddr: 0x100064C10, symSize: 0x3C }
  - { offsetInCU: 0x12F8F, offset: 0x61C4F, size: 0x8, addend: 0x0, symName: __ZNKSt3__112basic_stringIcNS_11char_traitsIcEENS_9allocatorIcEEE13find_first_ofB8ue170006EPKcm, symObjAddr: 0x104E8, symBinAddr: 0x100064C4C, symSize: 0x74 }
  - { offsetInCU: 0x12FD3, offset: 0x61C93, size: 0x8, addend: 0x0, symName: __ZNSt3__113unordered_mapINS_12basic_stringIcNS_11char_traitsIcEENS_9allocatorIcEEEENS_10shared_ptrI9Texture2DEENS_4hashIS6_EENS_8equal_toIS6_EENS4_INS_4pairIKS6_S9_EEEEED1B8ue170006Ev, symObjAddr: 0x10590, symBinAddr: 0x100064CC0, symSize: 0x2C }
  - { offsetInCU: 0x12FFB, offset: 0x61CBB, size: 0x8, addend: 0x0, symName: __ZNSt3__16vectorI4MeshNS_9allocatorIS1_EEED1B8ue170006Ev, symObjAddr: 0x105BC, symBinAddr: 0x100064CEC, symSize: 0x2C }
  - { offsetInCU: 0x13023, offset: 0x61CE3, size: 0x8, addend: 0x0, symName: __ZNSt3__16vectorI4MeshNS_9allocatorIS1_EEEC2B8ue170006Ev, symObjAddr: 0x105FC, symBinAddr: 0x100064D18, symSize: 0x2E8 }
  - { offsetInCU: 0x1304C, offset: 0x61D0C, size: 0x8, addend: 0x0, symName: __ZNSt3__117__compressed_pairIP4MeshNS_9allocatorIS1_EEEC1B8ue170006IDnNS_18__default_init_tagEEEOT_OT0_, symObjAddr: 0x108E4, symBinAddr: 0x100065000, symSize: 0x3C }
  - { offsetInCU: 0x130A2, offset: 0x61D62, size: 0x8, addend: 0x0, symName: __ZNSt3__117__compressed_pairIP4MeshNS_9allocatorIS1_EEEC2B8ue170006IDnNS_18__default_init_tagEEEOT_OT0_, symObjAddr: 0x10920, symBinAddr: 0x10006503C, symSize: 0x40 }
  - { offsetInCU: 0x130F8, offset: 0x61DB8, size: 0x8, addend: 0x0, symName: __ZNSt3__122__compressed_pair_elemINS_9allocatorI4MeshEELi1ELb1EEC2B8ue170006ENS_18__default_init_tagE, symObjAddr: 0x109C4, symBinAddr: 0x10006507C, symSize: 0x2C }
  - { offsetInCU: 0x1312B, offset: 0x61DEB, size: 0x8, addend: 0x0, symName: __ZNSt3__19allocatorI4MeshEC2B8ue170006Ev, symObjAddr: 0x109F0, symBinAddr: 0x1000650A8, symSize: 0x2C }
  - { offsetInCU: 0x13153, offset: 0x61E13, size: 0x8, addend: 0x0, symName: __ZNSt3__116__non_trivial_ifILb1ENS_9allocatorI4MeshEEEC2B8ue170006Ev, symObjAddr: 0x10A1C, symBinAddr: 0x1000650D4, symSize: 0x14 }
  - { offsetInCU: 0x1317C, offset: 0x61E3C, size: 0x8, addend: 0x0, symName: __ZNSt3__113unordered_mapINS_12basic_stringIcNS_11char_traitsIcEENS_9allocatorIcEEEENS_10shared_ptrI9Texture2DEENS_4hashIS6_EENS_8equal_toIS6_EENS4_INS_4pairIKS6_S9_EEEEEC2B8ue170006Ev, symObjAddr: 0x10A30, symBinAddr: 0x1000650E8, symSize: 0x2C }
  - { offsetInCU: 0x131A4, offset: 0x61E64, size: 0x8, addend: 0x0, symName: __ZNSt3__112__hash_tableINS_17__hash_value_typeINS_12basic_stringIcNS_11char_traitsIcEENS_9allocatorIcEEEENS_10shared_ptrI9Texture2DEEEENS_22__unordered_map_hasherIS7_SB_NS_4hashIS7_EENS_8equal_toIS7_EELb1EEENS_21__unordered_map_equalIS7_SB_SG_SE_Lb1EEENS5_ISB_EEEC1Ev, symObjAddr: 0x10A5C, symBinAddr: 0x100065114, symSize: 0x2C }
  - { offsetInCU: 0x131CF, offset: 0x61E8F, size: 0x8, addend: 0x0, symName: __ZNSt3__112__hash_tableINS_17__hash_value_typeINS_12basic_stringIcNS_11char_traitsIcEENS_9allocatorIcEEEENS_10shared_ptrI9Texture2DEEEENS_22__unordered_map_hasherIS7_SB_NS_4hashIS7_EENS_8equal_toIS7_EELb1EEENS_21__unordered_map_equalIS7_SB_SG_SE_Lb1EEENS5_ISB_EEEC2Ev, symObjAddr: 0x10A88, symBinAddr: 0x100065140, symSize: 0x38C }
  - { offsetInCU: 0x131FB, offset: 0x61EBB, size: 0x8, addend: 0x0, symName: __ZNSt3__110unique_ptrIA_PNS_16__hash_node_baseIPNS_11__hash_nodeINS_17__hash_value_typeINS_12basic_stringIcNS_11char_traitsIcEENS_9allocatorIcEEEENS_10shared_ptrI9Texture2DEEEEPvEEEENS_25__bucket_list_deallocatorINS7_ISI_EEEEEC1B8ue170006ILb1EvEEv, symObjAddr: 0x10E14, symBinAddr: 0x1000654CC, symSize: 0x2C }
  - { offsetInCU: 0x1322E, offset: 0x61EEE, size: 0x8, addend: 0x0, symName: __ZNSt3__117__compressed_pairINS_16__hash_node_baseIPNS_11__hash_nodeINS_17__hash_value_typeINS_12basic_stringIcNS_11char_traitsIcEENS_9allocatorIcEEEENS_10shared_ptrI9Texture2DEEEEPvEEEENS7_ISF_EEEC1B8ue170006ILb1EvEEv, symObjAddr: 0x10E40, symBinAddr: 0x1000654F8, symSize: 0x2C }
  - { offsetInCU: 0x13266, offset: 0x61F26, size: 0x8, addend: 0x0, symName: __ZNSt3__117__compressed_pairImNS_22__unordered_map_hasherINS_12basic_stringIcNS_11char_traitsIcEENS_9allocatorIcEEEENS_17__hash_value_typeIS7_NS_10shared_ptrI9Texture2DEEEENS_4hashIS7_EENS_8equal_toIS7_EELb1EEEEC1B8ue170006IiNS_18__default_init_tagEEEOT_OT0_, symObjAddr: 0x10E6C, symBinAddr: 0x100065524, symSize: 0x3C }
  - { offsetInCU: 0x132C1, offset: 0x61F81, size: 0x8, addend: 0x0, symName: __ZNSt3__117__compressed_pairIfNS_21__unordered_map_equalINS_12basic_stringIcNS_11char_traitsIcEENS_9allocatorIcEEEENS_17__hash_value_typeIS7_NS_10shared_ptrI9Texture2DEEEENS_8equal_toIS7_EENS_4hashIS7_EELb1EEEEC1B8ue170006IfNS_18__default_init_tagEEEOT_OT0_, symObjAddr: 0x10EA8, symBinAddr: 0x100065560, symSize: 0x3C }
  - { offsetInCU: 0x13317, offset: 0x61FD7, size: 0x8, addend: 0x0, symName: __ZNSt3__110unique_ptrIA_PNS_16__hash_node_baseIPNS_11__hash_nodeINS_17__hash_value_typeINS_12basic_stringIcNS_11char_traitsIcEENS_9allocatorIcEEEENS_10shared_ptrI9Texture2DEEEEPvEEEENS_25__bucket_list_deallocatorINS7_ISI_EEEEEC2B8ue170006ILb1EvEEv, symObjAddr: 0x10EE4, symBinAddr: 0x10006559C, symSize: 0x200 }
  - { offsetInCU: 0x13350, offset: 0x62010, size: 0x8, addend: 0x0, symName: __ZNSt3__117__compressed_pairIPPNS_16__hash_node_baseIPNS_11__hash_nodeINS_17__hash_value_typeINS_12basic_stringIcNS_11char_traitsIcEENS_9allocatorIcEEEENS_10shared_ptrI9Texture2DEEEEPvEEEENS_25__bucket_list_deallocatorINS7_ISI_EEEEEC1B8ue170006INS_16__value_init_tagESP_EEOT_OT0_, symObjAddr: 0x110E4, symBinAddr: 0x10006579C, symSize: 0x3C }
  - { offsetInCU: 0x133A6, offset: 0x62066, size: 0x8, addend: 0x0, symName: __ZNSt3__117__compressed_pairIPPNS_16__hash_node_baseIPNS_11__hash_nodeINS_17__hash_value_typeINS_12basic_stringIcNS_11char_traitsIcEENS_9allocatorIcEEEENS_10shared_ptrI9Texture2DEEEEPvEEEENS_25__bucket_list_deallocatorINS7_ISI_EEEEEC2B8ue170006INS_16__value_init_tagESP_EEOT_OT0_, symObjAddr: 0x11120, symBinAddr: 0x1000657D8, symSize: 0x40 }
  - { offsetInCU: 0x133FC, offset: 0x620BC, size: 0x8, addend: 0x0, symName: __ZNSt3__122__compressed_pair_elemIPPNS_16__hash_node_baseIPNS_11__hash_nodeINS_17__hash_value_typeINS_12basic_stringIcNS_11char_traitsIcEENS_9allocatorIcEEEENS_10shared_ptrI9Texture2DEEEEPvEEEELi0ELb0EEC2B8ue170006ENS_16__value_init_tagE, symObjAddr: 0x11160, symBinAddr: 0x100065818, symSize: 0x60 }
  - { offsetInCU: 0x1342F, offset: 0x620EF, size: 0x8, addend: 0x0, symName: __ZNSt3__122__compressed_pair_elemINS_25__bucket_list_deallocatorINS_9allocatorIPNS_16__hash_node_baseIPNS_11__hash_nodeINS_17__hash_value_typeINS_12basic_stringIcNS_11char_traitsIcEENS2_IcEEEENS_10shared_ptrI9Texture2DEEEEPvEEEEEEEELi1ELb0EEC2B8ue170006ENS_16__value_init_tagE, symObjAddr: 0x111C0, symBinAddr: 0x100065878, symSize: 0x2C }
  - { offsetInCU: 0x13462, offset: 0x62122, size: 0x8, addend: 0x0, symName: __ZNSt3__125__bucket_list_deallocatorINS_9allocatorIPNS_16__hash_node_baseIPNS_11__hash_nodeINS_17__hash_value_typeINS_12basic_stringIcNS_11char_traitsIcEENS1_IcEEEENS_10shared_ptrI9Texture2DEEEEPvEEEEEEEC1B8ue170006Ev, symObjAddr: 0x111EC, symBinAddr: 0x1000658A4, symSize: 0x2C }
  - { offsetInCU: 0x1348A, offset: 0x6214A, size: 0x8, addend: 0x0, symName: __ZNSt3__125__bucket_list_deallocatorINS_9allocatorIPNS_16__hash_node_baseIPNS_11__hash_nodeINS_17__hash_value_typeINS_12basic_stringIcNS_11char_traitsIcEENS1_IcEEEENS_10shared_ptrI9Texture2DEEEEPvEEEEEEEC2B8ue170006Ev, symObjAddr: 0x11218, symBinAddr: 0x1000658D0, symSize: 0x270 }
  - { offsetInCU: 0x134B3, offset: 0x62173, size: 0x8, addend: 0x0, symName: __ZNSt3__117__compressed_pairImNS_9allocatorIPNS_16__hash_node_baseIPNS_11__hash_nodeINS_17__hash_value_typeINS_12basic_stringIcNS_11char_traitsIcEENS1_IcEEEENS_10shared_ptrI9Texture2DEEEEPvEEEEEEEC1B8ue170006IiNS_18__default_init_tagEEEOT_OT0_, symObjAddr: 0x11488, symBinAddr: 0x100065B40, symSize: 0x3C }
  - { offsetInCU: 0x13509, offset: 0x621C9, size: 0x8, addend: 0x0, symName: __ZNSt3__117__compressed_pairImNS_9allocatorIPNS_16__hash_node_baseIPNS_11__hash_nodeINS_17__hash_value_typeINS_12basic_stringIcNS_11char_traitsIcEENS1_IcEEEENS_10shared_ptrI9Texture2DEEEEPvEEEEEEEC2B8ue170006IiNS_18__default_init_tagEEEOT_OT0_, symObjAddr: 0x114C4, symBinAddr: 0x100065B7C, symSize: 0x40 }
  - { offsetInCU: 0x1355F, offset: 0x6221F, size: 0x8, addend: 0x0, symName: __ZNSt3__122__compressed_pair_elemImLi0ELb0EEC2B8ue170006IivEEOT_, symObjAddr: 0x11504, symBinAddr: 0x100065BBC, symSize: 0xD8 }
  - { offsetInCU: 0x1359F, offset: 0x6225F, size: 0x8, addend: 0x0, symName: __ZNSt3__122__compressed_pair_elemINS_9allocatorIPNS_16__hash_node_baseIPNS_11__hash_nodeINS_17__hash_value_typeINS_12basic_stringIcNS_11char_traitsIcEENS1_IcEEEENS_10shared_ptrI9Texture2DEEEEPvEEEEEELi1ELb1EEC2B8ue170006ENS_18__default_init_tagE, symObjAddr: 0x115DC, symBinAddr: 0x100065C94, symSize: 0x2C }
  - { offsetInCU: 0x135D2, offset: 0x62292, size: 0x8, addend: 0x0, symName: __ZNSt3__19allocatorIPNS_16__hash_node_baseIPNS_11__hash_nodeINS_17__hash_value_typeINS_12basic_stringIcNS_11char_traitsIcEENS0_IcEEEENS_10shared_ptrI9Texture2DEEEEPvEEEEEC2B8ue170006Ev, symObjAddr: 0x11608, symBinAddr: 0x100065CC0, symSize: 0x2C }
  - { offsetInCU: 0x135FA, offset: 0x622BA, size: 0x8, addend: 0x0, symName: __ZNSt3__116__non_trivial_ifILb1ENS_9allocatorIPNS_16__hash_node_baseIPNS_11__hash_nodeINS_17__hash_value_typeINS_12basic_stringIcNS_11char_traitsIcEENS1_IcEEEENS_10shared_ptrI9Texture2DEEEEPvEEEEEEEC2B8ue170006Ev, symObjAddr: 0x11634, symBinAddr: 0x100065CEC, symSize: 0x14 }
  - { offsetInCU: 0x13623, offset: 0x622E3, size: 0x8, addend: 0x0, symName: __ZNSt3__117__compressed_pairINS_16__hash_node_baseIPNS_11__hash_nodeINS_17__hash_value_typeINS_12basic_stringIcNS_11char_traitsIcEENS_9allocatorIcEEEENS_10shared_ptrI9Texture2DEEEEPvEEEENS7_ISF_EEEC2B8ue170006ILb1EvEEv, symObjAddr: 0x11648, symBinAddr: 0x100065D00, symSize: 0x34 }
  - { offsetInCU: 0x13656, offset: 0x62316, size: 0x8, addend: 0x0, symName: __ZNSt3__122__compressed_pair_elemINS_16__hash_node_baseIPNS_11__hash_nodeINS_17__hash_value_typeINS_12basic_stringIcNS_11char_traitsIcEENS_9allocatorIcEEEENS_10shared_ptrI9Texture2DEEEEPvEEEELi0ELb0EEC2B8ue170006ENS_16__value_init_tagE, symObjAddr: 0x1167C, symBinAddr: 0x100065D34, symSize: 0x2C }
  - { offsetInCU: 0x13689, offset: 0x62349, size: 0x8, addend: 0x0, symName: __ZNSt3__122__compressed_pair_elemINS_9allocatorINS_11__hash_nodeINS_17__hash_value_typeINS_12basic_stringIcNS_11char_traitsIcEENS1_IcEEEENS_10shared_ptrI9Texture2DEEEEPvEEEELi1ELb1EEC2B8ue170006ENS_16__value_init_tagE, symObjAddr: 0x116A8, symBinAddr: 0x100065D60, symSize: 0x2C }
  - { offsetInCU: 0x136BC, offset: 0x6237C, size: 0x8, addend: 0x0, symName: __ZNSt3__116__hash_node_baseIPNS_11__hash_nodeINS_17__hash_value_typeINS_12basic_stringIcNS_11char_traitsIcEENS_9allocatorIcEEEENS_10shared_ptrI9Texture2DEEEEPvEEEC1B8ue170006Ev, symObjAddr: 0x116D4, symBinAddr: 0x100065D8C, symSize: 0x2C }
  - { offsetInCU: 0x136E4, offset: 0x623A4, size: 0x8, addend: 0x0, symName: __ZNSt3__116__hash_node_baseIPNS_11__hash_nodeINS_17__hash_value_typeINS_12basic_stringIcNS_11char_traitsIcEENS_9allocatorIcEEEENS_10shared_ptrI9Texture2DEEEEPvEEEC2B8ue170006Ev, symObjAddr: 0x11700, symBinAddr: 0x100065DB8, symSize: 0x60 }
  - { offsetInCU: 0x1370C, offset: 0x623CC, size: 0x8, addend: 0x0, symName: __ZNSt3__19allocatorINS_11__hash_nodeINS_17__hash_value_typeINS_12basic_stringIcNS_11char_traitsIcEENS0_IcEEEENS_10shared_ptrI9Texture2DEEEEPvEEEC2B8ue170006Ev, symObjAddr: 0x11760, symBinAddr: 0x100065E18, symSize: 0x2C }
  - { offsetInCU: 0x13734, offset: 0x623F4, size: 0x8, addend: 0x0, symName: __ZNSt3__116__non_trivial_ifILb1ENS_9allocatorINS_11__hash_nodeINS_17__hash_value_typeINS_12basic_stringIcNS_11char_traitsIcEENS1_IcEEEENS_10shared_ptrI9Texture2DEEEEPvEEEEEC2B8ue170006Ev, symObjAddr: 0x1178C, symBinAddr: 0x100065E44, symSize: 0x14 }
  - { offsetInCU: 0x1375D, offset: 0x6241D, size: 0x8, addend: 0x0, symName: __ZNSt3__117__compressed_pairImNS_22__unordered_map_hasherINS_12basic_stringIcNS_11char_traitsIcEENS_9allocatorIcEEEENS_17__hash_value_typeIS7_NS_10shared_ptrI9Texture2DEEEENS_4hashIS7_EENS_8equal_toIS7_EELb1EEEEC2B8ue170006IiNS_18__default_init_tagEEEOT_OT0_, symObjAddr: 0x117A0, symBinAddr: 0x100065E58, symSize: 0x40 }
  - { offsetInCU: 0x137B3, offset: 0x62473, size: 0x8, addend: 0x0, symName: __ZNSt3__122__compressed_pair_elemINS_22__unordered_map_hasherINS_12basic_stringIcNS_11char_traitsIcEENS_9allocatorIcEEEENS_17__hash_value_typeIS7_NS_10shared_ptrI9Texture2DEEEENS_4hashIS7_EENS_8equal_toIS7_EELb1EEELi1ELb1EEC2B8ue170006ENS_18__default_init_tagE, symObjAddr: 0x117E0, symBinAddr: 0x100065E98, symSize: 0x2C }
  - { offsetInCU: 0x137E6, offset: 0x624A6, size: 0x8, addend: 0x0, symName: __ZNSt3__122__unordered_map_hasherINS_12basic_stringIcNS_11char_traitsIcEENS_9allocatorIcEEEENS_17__hash_value_typeIS6_NS_10shared_ptrI9Texture2DEEEENS_4hashIS6_EENS_8equal_toIS6_EELb1EEC2B8ue170006Ev, symObjAddr: 0x1180C, symBinAddr: 0x100065EC4, symSize: 0x14 }
  - { offsetInCU: 0x1380F, offset: 0x624CF, size: 0x8, addend: 0x0, symName: __ZNSt3__117__compressed_pairIfNS_21__unordered_map_equalINS_12basic_stringIcNS_11char_traitsIcEENS_9allocatorIcEEEENS_17__hash_value_typeIS7_NS_10shared_ptrI9Texture2DEEEENS_8equal_toIS7_EENS_4hashIS7_EELb1EEEEC2B8ue170006IfNS_18__default_init_tagEEEOT_OT0_, symObjAddr: 0x11820, symBinAddr: 0x100065ED8, symSize: 0x40 }
  - { offsetInCU: 0x13865, offset: 0x62525, size: 0x8, addend: 0x0, symName: __ZNSt3__122__compressed_pair_elemIfLi0ELb0EEC2B8ue170006IfvEEOT_, symObjAddr: 0x11860, symBinAddr: 0x100065F18, symSize: 0x100 }
  - { offsetInCU: 0x138A5, offset: 0x62565, size: 0x8, addend: 0x0, symName: __ZNSt3__122__compressed_pair_elemINS_21__unordered_map_equalINS_12basic_stringIcNS_11char_traitsIcEENS_9allocatorIcEEEENS_17__hash_value_typeIS7_NS_10shared_ptrI9Texture2DEEEENS_8equal_toIS7_EENS_4hashIS7_EELb1EEELi1ELb1EEC2B8ue170006ENS_18__default_init_tagE, symObjAddr: 0x11960, symBinAddr: 0x100066018, symSize: 0x2C }
  - { offsetInCU: 0x138D8, offset: 0x62598, size: 0x8, addend: 0x0, symName: __ZNSt3__121__unordered_map_equalINS_12basic_stringIcNS_11char_traitsIcEENS_9allocatorIcEEEENS_17__hash_value_typeIS6_NS_10shared_ptrI9Texture2DEEEENS_8equal_toIS6_EENS_4hashIS6_EELb1EEC2B8ue170006Ev, symObjAddr: 0x1198C, symBinAddr: 0x100066044, symSize: 0x14 }
  - { offsetInCU: 0x13901, offset: 0x625C1, size: 0x8, addend: 0x0, symName: __ZNSt3__111char_traitsIcE2eqEcc, symObjAddr: 0x11EF8, symBinAddr: 0x100066330, symSize: 0x28 }
  - { offsetInCU: 0x13932, offset: 0x625F2, size: 0x8, addend: 0x0, symName: __ZNSt3__113unordered_mapINS_12basic_stringIcNS_11char_traitsIcEENS_9allocatorIcEEEENS_10shared_ptrI9Texture2DEENS_4hashIS6_EENS_8equal_toIS6_EENS4_INS_4pairIKS6_S9_EEEEED2B8ue170006Ev, symObjAddr: 0x127BC, symBinAddr: 0x100066358, symSize: 0x2C }
  - { offsetInCU: 0x1395A, offset: 0x6261A, size: 0x8, addend: 0x0, symName: __ZNSt3__112__hash_tableINS_17__hash_value_typeINS_12basic_stringIcNS_11char_traitsIcEENS_9allocatorIcEEEENS_10shared_ptrI9Texture2DEEEENS_22__unordered_map_hasherIS7_SB_NS_4hashIS7_EENS_8equal_toIS7_EELb1EEENS_21__unordered_map_equalIS7_SB_SG_SE_Lb1EEENS5_ISB_EEED1Ev, symObjAddr: 0x127E8, symBinAddr: 0x100066384, symSize: 0x2C }
  - { offsetInCU: 0x13985, offset: 0x62645, size: 0x8, addend: 0x0, symName: __ZNSt3__112__hash_tableINS_17__hash_value_typeINS_12basic_stringIcNS_11char_traitsIcEENS_9allocatorIcEEEENS_10shared_ptrI9Texture2DEEEENS_22__unordered_map_hasherIS7_SB_NS_4hashIS7_EENS_8equal_toIS7_EELb1EEENS_21__unordered_map_equalIS7_SB_SG_SE_Lb1EEENS5_ISB_EEED2Ev, symObjAddr: 0x12814, symBinAddr: 0x1000663B0, symSize: 0x88 }
  - { offsetInCU: 0x139B0, offset: 0x62670, size: 0x8, addend: 0x0, symName: __ZNSt3__112__hash_tableINS_17__hash_value_typeINS_12basic_stringIcNS_11char_traitsIcEENS_9allocatorIcEEEENS_10shared_ptrI9Texture2DEEEENS_22__unordered_map_hasherIS7_SB_NS_4hashIS7_EENS_8equal_toIS7_EELb1EEENS_21__unordered_map_equalIS7_SB_SG_SE_Lb1EEENS5_ISB_EEE17__deallocate_nodeEPNS_16__hash_node_baseIPNS_11__hash_nodeISB_PvEEEE, symObjAddr: 0x1289C, symBinAddr: 0x100066438, symSize: 0xF8 }
  - { offsetInCU: 0x13A1C, offset: 0x626DC, size: 0x8, addend: 0x0, symName: __ZNSt3__110unique_ptrIA_PNS_16__hash_node_baseIPNS_11__hash_nodeINS_17__hash_value_typeINS_12basic_stringIcNS_11char_traitsIcEENS_9allocatorIcEEEENS_10shared_ptrI9Texture2DEEEEPvEEEENS_25__bucket_list_deallocatorINS7_ISI_EEEEED1B8ue170006Ev, symObjAddr: 0x129B8, symBinAddr: 0x100066530, symSize: 0x2C }
  - { offsetInCU: 0x13A44, offset: 0x62704, size: 0x8, addend: 0x0, symName: __ZNSt3__110unique_ptrIA_PNS_16__hash_node_baseIPNS_11__hash_nodeINS_17__hash_value_typeINS_12basic_stringIcNS_11char_traitsIcEENS_9allocatorIcEEEENS_10shared_ptrI9Texture2DEEEEPvEEEENS_25__bucket_list_deallocatorINS7_ISI_EEEEED2B8ue170006Ev, symObjAddr: 0x12C20, symBinAddr: 0x10006655C, symSize: 0x30 }
  - { offsetInCU: 0x13A6C, offset: 0x6272C, size: 0x8, addend: 0x0, symName: __ZNSt3__110unique_ptrIA_PNS_16__hash_node_baseIPNS_11__hash_nodeINS_17__hash_value_typeINS_12basic_stringIcNS_11char_traitsIcEENS_9allocatorIcEEEENS_10shared_ptrI9Texture2DEEEEPvEEEENS_25__bucket_list_deallocatorINS7_ISI_EEEEE5resetB8ue170006EDn, symObjAddr: 0x12C50, symBinAddr: 0x10006658C, symSize: 0xE0 }
  - { offsetInCU: 0x13AAC, offset: 0x6276C, size: 0x8, addend: 0x0, symName: __ZNSt3__16vectorI4MeshNS_9allocatorIS1_EEED2B8ue170006Ev, symObjAddr: 0x12F74, symBinAddr: 0x10006666C, symSize: 0x1F8 }
  - { offsetInCU: 0x13AD5, offset: 0x62795, size: 0x8, addend: 0x0, symName: __ZNSt3__16vectorI4MeshNS_9allocatorIS1_EEE16__destroy_vectorC1B8ue170006ERS4_, symObjAddr: 0x1316C, symBinAddr: 0x100066864, symSize: 0x34 }
  - { offsetInCU: 0x13B0C, offset: 0x627CC, size: 0x8, addend: 0x0, symName: __ZNSt3__16vectorI4MeshNS_9allocatorIS1_EEE16__destroy_vectorclB8ue170006Ev, symObjAddr: 0x131A0, symBinAddr: 0x100066898, symSize: 0x228 }
  - { offsetInCU: 0x13B30, offset: 0x627F0, size: 0x8, addend: 0x0, symName: __ZNSt3__16vectorI4MeshNS_9allocatorIS1_EEE16__destroy_vectorC2B8ue170006ERS4_, symObjAddr: 0x133C8, symBinAddr: 0x100066AC0, symSize: 0x70 }
  - { offsetInCU: 0x13B67, offset: 0x62827, size: 0x8, addend: 0x0, symName: __ZNSt3__16vectorI4MeshNS_9allocatorIS1_EEE7__clearB8ue170006Ev, symObjAddr: 0x13438, symBinAddr: 0x100066B30, symSize: 0x64 }
  - { offsetInCU: 0x13B8B, offset: 0x6284B, size: 0x8, addend: 0x0, symName: __ZNSt3__16vectorI4MeshNS_9allocatorIS1_EEE22__base_destruct_at_endB8ue170006EPS1_, symObjAddr: 0x1369C, symBinAddr: 0x100066B94, symSize: 0x114 }
  - { offsetInCU: 0x13BCE, offset: 0x6288E, size: 0x8, addend: 0x0, symName: __ZNSt3__120__shared_ptr_emplaceI5ModelNS_9allocatorIS1_EEE8_StorageD2B8ue170006Ev, symObjAddr: 0x13BC4, symBinAddr: 0x100066CA8, symSize: 0x2C }
  - { offsetInCU: 0x13BF6, offset: 0x628B6, size: 0x8, addend: 0x0, symName: __ZNSt3__120__shared_ptr_emplaceI5ModelNS_9allocatorIS1_EEED2Ev, symObjAddr: 0x13BF0, symBinAddr: 0x100066CD4, symSize: 0x88 }
  - { offsetInCU: 0x13C22, offset: 0x628E2, size: 0x8, addend: 0x0, symName: __ZN5ModelD1Ev, symObjAddr: 0x13C78, symBinAddr: 0x100066D5C, symSize: 0x2C }
  - { offsetInCU: 0x13C4A, offset: 0x6290A, size: 0x8, addend: 0x0, symName: __ZN5ModelD2Ev, symObjAddr: 0x13CA4, symBinAddr: 0x100066D88, symSize: 0xA0 }
  - { offsetInCU: 0x13C72, offset: 0x62932, size: 0x8, addend: 0x0, symName: __ZNSt3__120__shared_ptr_emplaceI5ModelNS_9allocatorIS1_EEE11__get_allocB8ue170006Ev, symObjAddr: 0x15B48, symBinAddr: 0x100066E28, symSize: 0x28 }
  - { offsetInCU: 0x13C96, offset: 0x62956, size: 0x8, addend: 0x0, symName: __ZNSt3__116allocator_traitsINS_9allocatorINS_20__shared_ptr_emplaceI5ModelNS1_IS3_EEEEEEE10deallocateB8ue170006ERS6_PS5_m, symObjAddr: 0x15B70, symBinAddr: 0x100066E50, symSize: 0x34 }
  - { offsetInCU: 0x13CD8, offset: 0x62998, size: 0x8, addend: 0x0, symName: __ZNSt3__114pointer_traitsIPNS_20__shared_ptr_emplaceI5ModelNS_9allocatorIS2_EEEEE10pointer_toB8ue170006ERS5_, symObjAddr: 0x15BA4, symBinAddr: 0x100066E84, symSize: 0x14 }
  - { offsetInCU: 0x13CFB, offset: 0x629BB, size: 0x8, addend: 0x0, symName: __ZNSt3__19allocatorINS_20__shared_ptr_emplaceI5ModelNS0_IS2_EEEEE10deallocateB8ue170006EPS4_m, symObjAddr: 0x15BB8, symBinAddr: 0x100066E98, symSize: 0x50 }
  - { offsetInCU: 0x13D3B, offset: 0x629FB, size: 0x8, addend: 0x0, symName: __ZNSt3__110shared_ptrI5ModelEC1B8ue170006Ev, symObjAddr: 0x15C08, symBinAddr: 0x100066EE8, symSize: 0x2C }
  - { offsetInCU: 0x13D63, offset: 0x62A23, size: 0x8, addend: 0x0, symName: __ZNSt3__110shared_ptrI5ModelE18__enable_weak_thisB8ue170006Ez, symObjAddr: 0x15C34, symBinAddr: 0x100066F14, symSize: 0x10 }
  - { offsetInCU: 0x13D88, offset: 0x62A48, size: 0x8, addend: 0x0, symName: __ZNSt3__110shared_ptrI5ModelEC2B8ue170006Ev, symObjAddr: 0x15C44, symBinAddr: 0x100066F24, symSize: 0x9C }
  - { offsetInCU: 0x13DB0, offset: 0x62A70, size: 0x8, addend: 0x0, symName: __ZNSt3__120__shared_ptr_emplaceI5ModelNS_9allocatorIS1_EEE8_Storage10__get_elemB8ue170006Ev, symObjAddr: 0x15CE0, symBinAddr: 0x100066FC0, symSize: 0x3C }
  - { offsetInCU: 0x13E04, offset: 0x62AC4, size: 0x8, addend: 0x0, symName: __ZNSt3__117__compressed_pairINS_9allocatorI5ModelEES2_E17__get_second_baseB8ue170006EPS4_, symObjAddr: 0x15D1C, symBinAddr: 0x100066FFC, symSize: 0x14 }
  - { offsetInCU: 0x13E27, offset: 0x62AE7, size: 0x8, addend: 0x0, symName: __ZNSt3__118__allocation_guardINS_9allocatorINS_20__shared_ptr_emplaceI5ModelNS1_IS3_EEEEEEED2B8ue170006Ev, symObjAddr: 0x15D30, symBinAddr: 0x100067010, symSize: 0x2C }
  - { offsetInCU: 0x13E4F, offset: 0x62B0F, size: 0x8, addend: 0x0, symName: __ZNSt3__118__allocation_guardINS_9allocatorINS_20__shared_ptr_emplaceI5ModelNS1_IS3_EEEEEEE9__destroyB8ue170006Ev, symObjAddr: 0x15D5C, symBinAddr: 0x10006703C, symSize: 0xFC }
  - { offsetInCU: 0x13E73, offset: 0x62B33, size: 0x8, addend: 0x0, symName: __ZNSt3__19allocatorI5ModelEC2B8ue170006Ev, symObjAddr: 0x15E58, symBinAddr: 0x100067138, symSize: 0x2C }
  - { offsetInCU: 0x13E9B, offset: 0x62B5B, size: 0x8, addend: 0x0, symName: __ZNSt3__116__non_trivial_ifILb1ENS_9allocatorI5ModelEEEC2B8ue170006Ev, symObjAddr: 0x15E84, symBinAddr: 0x100067164, symSize: 0x14 }
  - { offsetInCU: 0x13EC4, offset: 0x62B84, size: 0x8, addend: 0x0, symName: __ZNSt3__110shared_ptrI5ModelED2B8ue170006Ev, symObjAddr: 0x15E98, symBinAddr: 0x100067178, symSize: 0xC8 }
  - { offsetInCU: 0x13EEC, offset: 0x62BAC, size: 0x8, addend: 0x0, symName: __ZNSt3__16vectorINS_10shared_ptrI5ModelEENS_9allocatorIS3_EEE9__end_capB8ue170006Ev, symObjAddr: 0x15F60, symBinAddr: 0x100067240, symSize: 0x28 }
  - { offsetInCU: 0x13F10, offset: 0x62BD0, size: 0x8, addend: 0x0, symName: __ZNSt3__16vectorINS_10shared_ptrI5ModelEENS_9allocatorIS3_EEE22__construct_one_at_endB8ue170006IJRKS3_EEEvDpOT_, symObjAddr: 0x15F88, symBinAddr: 0x100067268, symSize: 0x36C }
  - { offsetInCU: 0x13F64, offset: 0x62C24, size: 0x8, addend: 0x0, symName: __ZNSt3__16vectorINS_10shared_ptrI5ModelEENS_9allocatorIS3_EEE21__push_back_slow_pathIRKS3_EEvOT_, symObjAddr: 0x162F4, symBinAddr: 0x1000675D4, symSize: 0x3C0 }
  - { offsetInCU: 0x13FC9, offset: 0x62C89, size: 0x8, addend: 0x0, symName: __ZNSt3__117__compressed_pairIPNS_10shared_ptrI5ModelEENS_9allocatorIS3_EEE5firstB8ue170006Ev, symObjAddr: 0x166B4, symBinAddr: 0x100067994, symSize: 0x24 }
  - { offsetInCU: 0x13FED, offset: 0x62CAD, size: 0x8, addend: 0x0, symName: __ZNSt3__122__compressed_pair_elemIPNS_10shared_ptrI5ModelEELi0ELb0EE5__getB8ue170006Ev, symObjAddr: 0x166D8, symBinAddr: 0x1000679B8, symSize: 0x14 }
  - { offsetInCU: 0x1402A, offset: 0x62CEA, size: 0x8, addend: 0x0, symName: __ZNSt3__16vectorINS_10shared_ptrI5ModelEENS_9allocatorIS3_EEE21_ConstructTransactionC1B8ue170006ERS6_m, symObjAddr: 0x166EC, symBinAddr: 0x1000679CC, symSize: 0x3C }
  - { offsetInCU: 0x14070, offset: 0x62D30, size: 0x8, addend: 0x0, symName: __ZNSt3__116allocator_traitsINS_9allocatorINS_10shared_ptrI5ModelEEEEE9constructB8ue170006IS4_JRKS4_EvEEvRS5_PT_DpOT0_, symObjAddr: 0x16728, symBinAddr: 0x100067A08, symSize: 0x34 }
  - { offsetInCU: 0x140C7, offset: 0x62D87, size: 0x8, addend: 0x0, symName: __ZNSt3__16vectorINS_10shared_ptrI5ModelEENS_9allocatorIS3_EEE21_ConstructTransactionD1B8ue170006Ev, symObjAddr: 0x1675C, symBinAddr: 0x100067A3C, symSize: 0x2C }
  - { offsetInCU: 0x140EF, offset: 0x62DAF, size: 0x8, addend: 0x0, symName: __ZNSt3__16vectorINS_10shared_ptrI5ModelEENS_9allocatorIS3_EEE21_ConstructTransactionC2B8ue170006ERS6_m, symObjAddr: 0x16788, symBinAddr: 0x100067A68, symSize: 0x1D0 }
  - { offsetInCU: 0x14135, offset: 0x62DF5, size: 0x8, addend: 0x0, symName: __ZNKSt3__16vectorINS_10shared_ptrI5ModelEENS_9allocatorIS3_EEE19__annotate_increaseB8ue170006Em, symObjAddr: 0x16958, symBinAddr: 0x100067C38, symSize: 0xD8 }
  - { offsetInCU: 0x14168, offset: 0x62E28, size: 0x8, addend: 0x0, symName: __ZNSt3__19allocatorINS_10shared_ptrI5ModelEEE9constructB8ue170006IS3_JRKS3_EEEvPT_DpOT0_, symObjAddr: 0x16A30, symBinAddr: 0x100067D10, symSize: 0x30 }
  - { offsetInCU: 0x141BC, offset: 0x62E7C, size: 0x8, addend: 0x0, symName: __ZNSt3__110shared_ptrI5ModelEC1B8ue170006ERKS2_, symObjAddr: 0x16A60, symBinAddr: 0x100067D40, symSize: 0x34 }
  - { offsetInCU: 0x141F3, offset: 0x62EB3, size: 0x8, addend: 0x0, symName: __ZNSt3__110shared_ptrI5ModelEC2B8ue170006ERKS2_, symObjAddr: 0x16A94, symBinAddr: 0x100067D74, symSize: 0x1CC }
  - { offsetInCU: 0x1422A, offset: 0x62EEA, size: 0x8, addend: 0x0, symName: __ZNSt3__16vectorINS_10shared_ptrI5ModelEENS_9allocatorIS3_EEE21_ConstructTransactionD2B8ue170006Ev, symObjAddr: 0x16C60, symBinAddr: 0x100067F40, symSize: 0x278 }
  - { offsetInCU: 0x14252, offset: 0x62F12, size: 0x8, addend: 0x0, symName: __ZNKSt3__16vectorINS_10shared_ptrI5ModelEENS_9allocatorIS3_EEE17__annotate_shrinkB8ue170006Em, symObjAddr: 0x16ED8, symBinAddr: 0x1000681B8, symSize: 0xC8 }
  - { offsetInCU: 0x14285, offset: 0x62F45, size: 0x8, addend: 0x0, symName: __ZNKSt3__16vectorINS_10shared_ptrI5ModelEENS_9allocatorIS3_EEE11__recommendB8ue170006Em, symObjAddr: 0x16FA0, symBinAddr: 0x100068280, symSize: 0x384 }
  - { offsetInCU: 0x142E1, offset: 0x62FA1, size: 0x8, addend: 0x0, symName: __ZNSt3__114__split_bufferINS_10shared_ptrI5ModelEERNS_9allocatorIS3_EEEC1EmmS6_, symObjAddr: 0x17324, symBinAddr: 0x100068604, symSize: 0x44 }
  - { offsetInCU: 0x14336, offset: 0x62FF6, size: 0x8, addend: 0x0, symName: __ZNSt3__114__split_bufferINS_10shared_ptrI5ModelEERNS_9allocatorIS3_EEED1Ev, symObjAddr: 0x178D4, symBinAddr: 0x100068BB4, symSize: 0x2C }
  - { offsetInCU: 0x14361, offset: 0x63021, size: 0x8, addend: 0x0, symName: __ZNKSt3__16vectorINS_10shared_ptrI5ModelEENS_9allocatorIS3_EEE8max_sizeEv, symObjAddr: 0x17900, symBinAddr: 0x100068BE0, symSize: 0x2FC }
  - { offsetInCU: 0x14388, offset: 0x63048, size: 0x8, addend: 0x0, symName: __ZNKSt3__16vectorINS_10shared_ptrI5ModelEENS_9allocatorIS3_EEE20__throw_length_errorB8ue170006Ev, symObjAddr: 0x17BFC, symBinAddr: 0x100068EDC, symSize: 0x20 }
  - { offsetInCU: 0x143B6, offset: 0x63076, size: 0x8, addend: 0x0, symName: __ZNSt3__116allocator_traitsINS_9allocatorINS_10shared_ptrI5ModelEEEEE8max_sizeB8ue170006IS5_vEEmRKS5_, symObjAddr: 0x17C74, symBinAddr: 0x100068EFC, symSize: 0x24 }
  - { offsetInCU: 0x143E4, offset: 0x630A4, size: 0x8, addend: 0x0, symName: __ZNKSt3__16vectorINS_10shared_ptrI5ModelEENS_9allocatorIS3_EEE7__allocB8ue170006Ev, symObjAddr: 0x17C98, symBinAddr: 0x100068F20, symSize: 0x28 }
  - { offsetInCU: 0x14408, offset: 0x630C8, size: 0x8, addend: 0x0, symName: __ZNKSt3__19allocatorINS_10shared_ptrI5ModelEEE8max_sizeB8ue170006Ev, symObjAddr: 0x17F78, symBinAddr: 0x100068F48, symSize: 0x14 }
  - { offsetInCU: 0x1442C, offset: 0x630EC, size: 0x8, addend: 0x0, symName: __ZNKSt3__117__compressed_pairIPNS_10shared_ptrI5ModelEENS_9allocatorIS3_EEE6secondB8ue170006Ev, symObjAddr: 0x17F8C, symBinAddr: 0x100068F5C, symSize: 0x24 }
  - { offsetInCU: 0x14450, offset: 0x63110, size: 0x8, addend: 0x0, symName: __ZNKSt3__122__compressed_pair_elemINS_9allocatorINS_10shared_ptrI5ModelEEEELi1ELb1EE5__getB8ue170006Ev, symObjAddr: 0x17FB0, symBinAddr: 0x100068F80, symSize: 0x14 }
  - { offsetInCU: 0x14474, offset: 0x63134, size: 0x8, addend: 0x0, symName: __ZNSt3__114__split_bufferINS_10shared_ptrI5ModelEERNS_9allocatorIS3_EEEC2EmmS6_, symObjAddr: 0x182DC, symBinAddr: 0x100068F94, symSize: 0x520 }
  - { offsetInCU: 0x144EF, offset: 0x631AF, size: 0x8, addend: 0x0, symName: __ZNSt3__117__compressed_pairIPNS_10shared_ptrI5ModelEERNS_9allocatorIS3_EEEC1B8ue170006IDnS7_EEOT_OT0_, symObjAddr: 0x187FC, symBinAddr: 0x1000694B4, symSize: 0x3C }
  - { offsetInCU: 0x14545, offset: 0x63205, size: 0x8, addend: 0x0, symName: __ZNSt3__114__split_bufferINS_10shared_ptrI5ModelEERNS_9allocatorIS3_EEE7__allocB8ue170006Ev, symObjAddr: 0x18AC4, symBinAddr: 0x10006977C, symSize: 0x28 }
  - { offsetInCU: 0x14569, offset: 0x63229, size: 0x8, addend: 0x0, symName: __ZNSt3__114__split_bufferINS_10shared_ptrI5ModelEERNS_9allocatorIS3_EEE9__end_capB8ue170006Ev, symObjAddr: 0x18AEC, symBinAddr: 0x1000697A4, symSize: 0x28 }
  - { offsetInCU: 0x1458D, offset: 0x6324D, size: 0x8, addend: 0x0, symName: __ZNSt3__117__compressed_pairIPNS_10shared_ptrI5ModelEERNS_9allocatorIS3_EEEC2B8ue170006IDnS7_EEOT_OT0_, symObjAddr: 0x18B14, symBinAddr: 0x1000697CC, symSize: 0x48 }
  - { offsetInCU: 0x145E3, offset: 0x632A3, size: 0x8, addend: 0x0, symName: __ZNSt3__122__compressed_pair_elemIRNS_9allocatorINS_10shared_ptrI5ModelEEEELi1ELb0EEC2B8ue170006IS6_vEEOT_, symObjAddr: 0x18B5C, symBinAddr: 0x100069814, symSize: 0x70 }
  - { offsetInCU: 0x14623, offset: 0x632E3, size: 0x8, addend: 0x0, symName: __ZNSt3__19allocatorINS_10shared_ptrI5ModelEEE8allocateB8ue170006Em, symObjAddr: 0x18BCC, symBinAddr: 0x100069884, symSize: 0x5C }
  - { offsetInCU: 0x14655, offset: 0x63315, size: 0x8, addend: 0x0, symName: __ZNSt3__117__compressed_pairIPNS_10shared_ptrI5ModelEERNS_9allocatorIS3_EEE6secondB8ue170006Ev, symObjAddr: 0x18C28, symBinAddr: 0x1000698E0, symSize: 0x28 }
  - { offsetInCU: 0x14679, offset: 0x63339, size: 0x8, addend: 0x0, symName: __ZNSt3__122__compressed_pair_elemIRNS_9allocatorINS_10shared_ptrI5ModelEEEELi1ELb0EE5__getB8ue170006Ev, symObjAddr: 0x18C50, symBinAddr: 0x100069908, symSize: 0x60 }
  - { offsetInCU: 0x1469D, offset: 0x6335D, size: 0x8, addend: 0x0, symName: __ZNSt3__117__compressed_pairIPNS_10shared_ptrI5ModelEERNS_9allocatorIS3_EEE5firstB8ue170006Ev, symObjAddr: 0x18CB0, symBinAddr: 0x100069968, symSize: 0x24 }
  - { offsetInCU: 0x146C1, offset: 0x63381, size: 0x8, addend: 0x0, symName: __ZNSt3__116reverse_iteratorIPNS_10shared_ptrI5ModelEEEC1B8ue170006ES4_, symObjAddr: 0x19218, symBinAddr: 0x100069ED0, symSize: 0x34 }
  - { offsetInCU: 0x146F7, offset: 0x633B7, size: 0x8, addend: 0x0, symName: __ZNKSt3__116reverse_iteratorIPNS_10shared_ptrI5ModelEEE4baseB8ue170006Ev, symObjAddr: 0x1924C, symBinAddr: 0x100069F04, symSize: 0x64 }
  - { offsetInCU: 0x1471B, offset: 0x633DB, size: 0x8, addend: 0x0, symName: __ZNKSt3__16vectorINS_10shared_ptrI5ModelEENS_9allocatorIS3_EEE14__annotate_newB8ue170006Em, symObjAddr: 0x193E4, symBinAddr: 0x10006A09C, symSize: 0xC0 }
  - { offsetInCU: 0x1474E, offset: 0x6340E, size: 0x8, addend: 0x0, symName: __ZNSt3__129_AllocatorDestroyRangeReverseINS_9allocatorINS_10shared_ptrI5ModelEEEENS_16reverse_iteratorIPS4_EEEC1B8ue170006ERS5_RS8_SB_, symObjAddr: 0x1969C, symBinAddr: 0x10006A354, symSize: 0x44 }
  - { offsetInCU: 0x147A3, offset: 0x63463, size: 0x8, addend: 0x0, symName: __ZNSt3__116allocator_traitsINS_9allocatorINS_10shared_ptrI5ModelEEEEE9constructB8ue170006IS4_JS4_EvEEvRS5_PT_DpOT0_, symObjAddr: 0x19728, symBinAddr: 0x10006A3E0, symSize: 0x34 }
  - { offsetInCU: 0x147FA, offset: 0x634BA, size: 0x8, addend: 0x0, symName: __ZNKSt3__116reverse_iteratorIPNS_10shared_ptrI5ModelEEEdeB8ue170006Ev, symObjAddr: 0x19780, symBinAddr: 0x10006A438, symSize: 0x74 }
  - { offsetInCU: 0x1482C, offset: 0x634EC, size: 0x8, addend: 0x0, symName: __ZNSt3__116reverse_iteratorIPNS_10shared_ptrI5ModelEEEppB8ue170006Ev, symObjAddr: 0x197F4, symBinAddr: 0x10006A4AC, symSize: 0x6C }
  - { offsetInCU: 0x14850, offset: 0x63510, size: 0x8, addend: 0x0, symName: __ZNSt3__128__exception_guard_exceptionsINS_29_AllocatorDestroyRangeReverseINS_9allocatorINS_10shared_ptrI5ModelEEEENS_16reverse_iteratorIPS5_EEEEE10__completeB8ue170006Ev, symObjAddr: 0x19860, symBinAddr: 0x10006A518, symSize: 0x8C }
  - { offsetInCU: 0x14874, offset: 0x63534, size: 0x8, addend: 0x0, symName: __ZNSt3__128__exception_guard_exceptionsINS_29_AllocatorDestroyRangeReverseINS_9allocatorINS_10shared_ptrI5ModelEEEENS_16reverse_iteratorIPS5_EEEEED1B8ue170006Ev, symObjAddr: 0x198EC, symBinAddr: 0x10006A5A4, symSize: 0x2C }
  - { offsetInCU: 0x1489C, offset: 0x6355C, size: 0x8, addend: 0x0, symName: __ZNSt3__128__exception_guard_exceptionsINS_29_AllocatorDestroyRangeReverseINS_9allocatorINS_10shared_ptrI5ModelEEEENS_16reverse_iteratorIPS5_EEEEEC1B8ue170006ESA_, symObjAddr: 0x19918, symBinAddr: 0x10006A5D0, symSize: 0x34 }
  - { offsetInCU: 0x148D3, offset: 0x63593, size: 0x8, addend: 0x0, symName: __ZNSt3__128__exception_guard_exceptionsINS_29_AllocatorDestroyRangeReverseINS_9allocatorINS_10shared_ptrI5ModelEEEENS_16reverse_iteratorIPS5_EEEEEC2B8ue170006ESA_, symObjAddr: 0x1994C, symBinAddr: 0x10006A604, symSize: 0xA4 }
  - { offsetInCU: 0x1490A, offset: 0x635CA, size: 0x8, addend: 0x0, symName: __ZNSt3__129_AllocatorDestroyRangeReverseINS_9allocatorINS_10shared_ptrI5ModelEEEENS_16reverse_iteratorIPS4_EEEC2B8ue170006ERS5_RS8_SB_, symObjAddr: 0x199F0, symBinAddr: 0x10006A6A8, symSize: 0x104 }
  - { offsetInCU: 0x1495F, offset: 0x6361F, size: 0x8, addend: 0x0, symName: __ZNSt3__19allocatorINS_10shared_ptrI5ModelEEE9constructB8ue170006IS3_JS3_EEEvPT_DpOT0_, symObjAddr: 0x19AF4, symBinAddr: 0x10006A7AC, symSize: 0x30 }
  - { offsetInCU: 0x149B3, offset: 0x63673, size: 0x8, addend: 0x0, symName: __ZNSt3__110shared_ptrI5ModelEC1B8ue170006EOS2_, symObjAddr: 0x19B24, symBinAddr: 0x10006A7DC, symSize: 0x34 }
  - { offsetInCU: 0x149EA, offset: 0x636AA, size: 0x8, addend: 0x0, symName: __ZNSt3__110shared_ptrI5ModelEC2B8ue170006EOS2_, symObjAddr: 0x19B58, symBinAddr: 0x10006A810, symSize: 0x1B8 }
  - { offsetInCU: 0x14A26, offset: 0x636E6, size: 0x8, addend: 0x0, symName: __ZNSt3__119__to_address_helperINS_16reverse_iteratorIPNS_10shared_ptrI5ModelEEEEvE6__callB8ue170006ERKS6_, symObjAddr: 0x19D10, symBinAddr: 0x10006A9C8, symSize: 0x44 }
  - { offsetInCU: 0x14A49, offset: 0x63709, size: 0x8, addend: 0x0, symName: __ZNKSt3__116reverse_iteratorIPNS_10shared_ptrI5ModelEEEptB8ue170006Ev, symObjAddr: 0x19D54, symBinAddr: 0x10006AA0C, symSize: 0x24 }
  - { offsetInCU: 0x14A6D, offset: 0x6372D, size: 0x8, addend: 0x0, symName: __ZNSt3__128__exception_guard_exceptionsINS_29_AllocatorDestroyRangeReverseINS_9allocatorINS_10shared_ptrI5ModelEEEENS_16reverse_iteratorIPS5_EEEEED2B8ue170006Ev, symObjAddr: 0x19D78, symBinAddr: 0x10006AA30, symSize: 0xBC }
  - { offsetInCU: 0x14A95, offset: 0x63755, size: 0x8, addend: 0x0, symName: __ZNKSt3__129_AllocatorDestroyRangeReverseINS_9allocatorINS_10shared_ptrI5ModelEEEENS_16reverse_iteratorIPS4_EEEclB8ue170006Ev, symObjAddr: 0x19E34, symBinAddr: 0x10006AAEC, symSize: 0x3A8 }
  - { offsetInCU: 0x14ABA, offset: 0x6377A, size: 0x8, addend: 0x0, symName: __ZNSt3__116reverse_iteratorINS0_IPNS_10shared_ptrI5ModelEEEEEC1B8ue170006ES5_, symObjAddr: 0x1A24C, symBinAddr: 0x10006AF04, symSize: 0x248 }
  - { offsetInCU: 0x14AF5, offset: 0x637B5, size: 0x8, addend: 0x0, symName: __ZNSt3__116reverse_iteratorINS0_IPNS_10shared_ptrI5ModelEEEEEppB8ue170006Ev, symObjAddr: 0x1A784, symBinAddr: 0x10006B43C, symSize: 0x30 }
  - { offsetInCU: 0x14B19, offset: 0x637D9, size: 0x8, addend: 0x0, symName: __ZNKSt3__116reverse_iteratorINS0_IPNS_10shared_ptrI5ModelEEEEE4baseB8ue170006Ev, symObjAddr: 0x1A7B4, symBinAddr: 0x10006B46C, symSize: 0x20C }
  - { offsetInCU: 0x14B43, offset: 0x63803, size: 0x8, addend: 0x0, symName: __ZNSt3__119__to_address_helperINS_16reverse_iteratorINS1_IPNS_10shared_ptrI5ModelEEEEEEvE6__callB8ue170006ERKS7_, symObjAddr: 0x1A9C0, symBinAddr: 0x10006B678, symSize: 0x44 }
  - { offsetInCU: 0x14B66, offset: 0x63826, size: 0x8, addend: 0x0, symName: __ZNKSt3__116reverse_iteratorINS0_IPNS_10shared_ptrI5ModelEEEEEptB8ue170006Ev, symObjAddr: 0x1AA04, symBinAddr: 0x10006B6BC, symSize: 0x24 }
  - { offsetInCU: 0x14B8A, offset: 0x6384A, size: 0x8, addend: 0x0, symName: __ZNKSt3__116reverse_iteratorINS0_IPNS_10shared_ptrI5ModelEEEEEdeB8ue170006Ev, symObjAddr: 0x1AA28, symBinAddr: 0x10006B6E0, symSize: 0x1EC }
  - { offsetInCU: 0x14BC1, offset: 0x63881, size: 0x8, addend: 0x0, symName: __ZNSt3__116reverse_iteratorIPNS_10shared_ptrI5ModelEEEmmB8ue170006Ev, symObjAddr: 0x1AC14, symBinAddr: 0x10006B8CC, symSize: 0x6C }
  - { offsetInCU: 0x14BE5, offset: 0x638A5, size: 0x8, addend: 0x0, symName: __ZNSt3__116reverse_iteratorINS0_IPNS_10shared_ptrI5ModelEEEEEC2B8ue170006ES5_, symObjAddr: 0x1AC80, symBinAddr: 0x10006B938, symSize: 0x22C }
  - { offsetInCU: 0x14C20, offset: 0x638E0, size: 0x8, addend: 0x0, symName: __ZNSt3__116reverse_iteratorIPNS_10shared_ptrI5ModelEEEC2B8ue170006ES4_, symObjAddr: 0x1AEAC, symBinAddr: 0x10006BB64, symSize: 0xB8 }
  - { offsetInCU: 0x14C56, offset: 0x63916, size: 0x8, addend: 0x0, symName: __ZNSt3__114__split_bufferINS_10shared_ptrI5ModelEERNS_9allocatorIS3_EEED2Ev, symObjAddr: 0x1AF64, symBinAddr: 0x10006BC1C, symSize: 0x104 }
  - { offsetInCU: 0x14C81, offset: 0x63941, size: 0x8, addend: 0x0, symName: __ZNSt3__114__split_bufferINS_10shared_ptrI5ModelEERNS_9allocatorIS3_EEE5clearB8ue170006Ev, symObjAddr: 0x1B068, symBinAddr: 0x10006BD20, symSize: 0x68 }
  - { offsetInCU: 0x14CA5, offset: 0x63965, size: 0x8, addend: 0x0, symName: __ZNKSt3__114__split_bufferINS_10shared_ptrI5ModelEERNS_9allocatorIS3_EEE8capacityB8ue170006Ev, symObjAddr: 0x1B0D0, symBinAddr: 0x10006BD88, symSize: 0xBC }
  - { offsetInCU: 0x14CC9, offset: 0x63989, size: 0x8, addend: 0x0, symName: __ZNSt3__114__split_bufferINS_10shared_ptrI5ModelEERNS_9allocatorIS3_EEE17__destruct_at_endB8ue170006EPS3_, symObjAddr: 0x1B18C, symBinAddr: 0x10006BE44, symSize: 0x2C }
  - { offsetInCU: 0x14CFB, offset: 0x639BB, size: 0x8, addend: 0x0, symName: __ZNSt3__114__split_bufferINS_10shared_ptrI5ModelEERNS_9allocatorIS3_EEE17__destruct_at_endB8ue170006EPS3_NS_17integral_constantIbLb0EEE, symObjAddr: 0x1B1B8, symBinAddr: 0x10006BE70, symSize: 0x10C }
  - { offsetInCU: 0x14D3A, offset: 0x639FA, size: 0x8, addend: 0x0, symName: __ZNKSt3__114__split_bufferINS_10shared_ptrI5ModelEERNS_9allocatorIS3_EEE9__end_capB8ue170006Ev, symObjAddr: 0x1B2C4, symBinAddr: 0x10006BF7C, symSize: 0x28 }
  - { offsetInCU: 0x14D5E, offset: 0x63A1E, size: 0x8, addend: 0x0, symName: __ZNKSt3__117__compressed_pairIPNS_10shared_ptrI5ModelEERNS_9allocatorIS3_EEE5firstB8ue170006Ev, symObjAddr: 0x1B2EC, symBinAddr: 0x10006BFA4, symSize: 0x24 }
  - { offsetInCU: 0x14D98, offset: 0x63A58, size: 0x8, addend: 0x0, symName: __ZNSt3__120__shared_ptr_emplaceI5ModelNS_9allocatorIS1_EEEC1B8ue170006IJRA32_Kc11OBJECT_TYPEP8MaterialEEES3_DpOT_, symObjAddr: 0x1B620, symBinAddr: 0x10006C2D8, symSize: 0x44 }
  - { offsetInCU: 0x14E11, offset: 0x63AD1, size: 0x8, addend: 0x0, symName: __ZNSt3__120__shared_ptr_emplaceI5ModelNS_9allocatorIS1_EEEC2B8ue170006IJRA32_Kc11OBJECT_TYPEP8MaterialEEES3_DpOT_, symObjAddr: 0x1B664, symBinAddr: 0x10006C31C, symSize: 0x458 }
  - { offsetInCU: 0x14E92, offset: 0x63B52, size: 0x8, addend: 0x0, symName: __ZNSt3__19allocatorI6SkyboxEC1B8ue170006Ev, symObjAddr: 0x1BE8C, symBinAddr: 0x10006CA7C, symSize: 0x2C }
  - { offsetInCU: 0x14F05, offset: 0x63BC5, size: 0x8, addend: 0x0, symName: __ZNSt3__118__allocation_guardINS_9allocatorINS_20__shared_ptr_emplaceI6SkyboxNS1_IS3_EEEEEEEC1B8ue170006IS4_EET_m, symObjAddr: 0x1BEB8, symBinAddr: 0x10006CAA8, symSize: 0x34 }
  - { offsetInCU: 0x14F52, offset: 0x63C12, size: 0x8, addend: 0x0, symName: __ZNKSt3__118__allocation_guardINS_9allocatorINS_20__shared_ptr_emplaceI6SkyboxNS1_IS3_EEEEEEE5__getB8ue170006Ev, symObjAddr: 0x1BEEC, symBinAddr: 0x10006CADC, symSize: 0x64 }
  - { offsetInCU: 0x14F76, offset: 0x63C36, size: 0x8, addend: 0x0, symName: __ZNSt3__120__shared_ptr_emplaceI6SkyboxNS_9allocatorIS1_EEEC1B8ue170006IJNS_10shared_ptrI9Texture2DEENS6_I6ShaderEEEEES3_DpOT_, symObjAddr: 0x1BF50, symBinAddr: 0x10006CB40, symSize: 0x3C }
  - { offsetInCU: 0x14FDB, offset: 0x63C9B, size: 0x8, addend: 0x0, symName: __ZNSt3__118__allocation_guardINS_9allocatorINS_20__shared_ptr_emplaceI6SkyboxNS1_IS3_EEEEEEE13__release_ptrB8ue170006Ev, symObjAddr: 0x1BF8C, symBinAddr: 0x10006CB7C, symSize: 0xA8 }
  - { offsetInCU: 0x1500D, offset: 0x63CCD, size: 0x8, addend: 0x0, symName: __ZNSt3__110shared_ptrI6SkyboxE27__create_with_control_blockB8ue170006IS1_NS_20__shared_ptr_emplaceIS1_NS_9allocatorIS1_EEEEEES2_PT_PT0_, symObjAddr: 0x1C034, symBinAddr: 0x10006CC24, symSize: 0x188 }
  - { offsetInCU: 0x15063, offset: 0x63D23, size: 0x8, addend: 0x0, symName: __ZNSt3__120__shared_ptr_emplaceI6SkyboxNS_9allocatorIS1_EEE10__get_elemB8ue170006Ev, symObjAddr: 0x1C1BC, symBinAddr: 0x10006CDAC, symSize: 0x28 }
  - { offsetInCU: 0x15087, offset: 0x63D47, size: 0x8, addend: 0x0, symName: __ZNSt3__118__allocation_guardINS_9allocatorINS_20__shared_ptr_emplaceI6SkyboxNS1_IS3_EEEEEEED1B8ue170006Ev, symObjAddr: 0x1C1E4, symBinAddr: 0x10006CDD4, symSize: 0x2C }
  - { offsetInCU: 0x150AF, offset: 0x63D6F, size: 0x8, addend: 0x0, symName: __ZNSt3__118__allocation_guardINS_9allocatorINS_20__shared_ptr_emplaceI6SkyboxNS1_IS3_EEEEEEEC2B8ue170006IS4_EET_m, symObjAddr: 0x1C210, symBinAddr: 0x10006CE00, symSize: 0x28C }
  - { offsetInCU: 0x15102, offset: 0x63DC2, size: 0x8, addend: 0x0, symName: __ZNSt3__19allocatorINS_20__shared_ptr_emplaceI6SkyboxNS0_IS2_EEEEEC1B8ue170006IS2_EERKNS0_IT_EE, symObjAddr: 0x1C49C, symBinAddr: 0x10006D08C, symSize: 0x34 }
  - { offsetInCU: 0x1513E, offset: 0x63DFE, size: 0x8, addend: 0x0, symName: __ZNSt3__116allocator_traitsINS_9allocatorINS_20__shared_ptr_emplaceI6SkyboxNS1_IS3_EEEEEEE8allocateB8ue170006ERS6_m, symObjAddr: 0x1C4D0, symBinAddr: 0x10006D0C0, symSize: 0x2C }
  - { offsetInCU: 0x15171, offset: 0x63E31, size: 0x8, addend: 0x0, symName: __ZNSt3__19allocatorINS_20__shared_ptr_emplaceI6SkyboxNS0_IS2_EEEEEC2B8ue170006IS2_EERKNS0_IT_EE, symObjAddr: 0x1C4FC, symBinAddr: 0x10006D0EC, symSize: 0x30 }
  - { offsetInCU: 0x151AD, offset: 0x63E6D, size: 0x8, addend: 0x0, symName: __ZNSt3__116__non_trivial_ifILb1ENS_9allocatorINS_20__shared_ptr_emplaceI6SkyboxNS1_IS3_EEEEEEEC2B8ue170006Ev, symObjAddr: 0x1C52C, symBinAddr: 0x10006D11C, symSize: 0x14 }
  - { offsetInCU: 0x151D6, offset: 0x63E96, size: 0x8, addend: 0x0, symName: __ZNSt3__19allocatorINS_20__shared_ptr_emplaceI6SkyboxNS0_IS2_EEEEE8allocateB8ue170006Em, symObjAddr: 0x1C540, symBinAddr: 0x10006D130, symSize: 0x60 }
  - { offsetInCU: 0x15212, offset: 0x63ED2, size: 0x8, addend: 0x0, symName: __ZNSt3__116allocator_traitsINS_9allocatorINS_20__shared_ptr_emplaceI6SkyboxNS1_IS3_EEEEEEE8max_sizeB8ue170006IS6_vEEmRKS6_, symObjAddr: 0x1C5A0, symBinAddr: 0x10006D190, symSize: 0x24 }
  - { offsetInCU: 0x15240, offset: 0x63F00, size: 0x8, addend: 0x0, symName: __ZNKSt3__19allocatorINS_20__shared_ptr_emplaceI6SkyboxNS0_IS2_EEEEE8max_sizeB8ue170006Ev, symObjAddr: 0x1C5C4, symBinAddr: 0x10006D1B4, symSize: 0x20 }
  - { offsetInCU: 0x15264, offset: 0x63F24, size: 0x8, addend: 0x0, symName: __ZNSt3__120__shared_ptr_emplaceI6SkyboxNS_9allocatorIS1_EEEC2B8ue170006IJNS_10shared_ptrI9Texture2DEENS6_I6ShaderEEEEES3_DpOT_, symObjAddr: 0x1C5E4, symBinAddr: 0x10006D1D4, symSize: 0x378 }
  - { offsetInCU: 0x152D0, offset: 0x63F90, size: 0x8, addend: 0x0, symName: __ZNSt3__120__shared_ptr_emplaceI6SkyboxNS_9allocatorIS1_EEE8_StorageC1B8ue170006EOS3_, symObjAddr: 0x1C95C, symBinAddr: 0x10006D54C, symSize: 0x34 }
  - { offsetInCU: 0x15307, offset: 0x63FC7, size: 0x8, addend: 0x0, symName: __ZNSt3__110shared_ptrI6ShaderEC1B8ue170006EOS2_, symObjAddr: 0x1C9C4, symBinAddr: 0x10006D580, symSize: 0x34 }
  - { offsetInCU: 0x1533E, offset: 0x63FFE, size: 0x8, addend: 0x0, symName: __ZNSt3__120__shared_ptr_emplaceI6SkyboxNS_9allocatorIS1_EEE8_StorageD1B8ue170006Ev, symObjAddr: 0x1C9F8, symBinAddr: 0x10006D5B4, symSize: 0x2C }
  - { offsetInCU: 0x15366, offset: 0x64026, size: 0x8, addend: 0x0, symName: __ZNSt3__120__shared_ptr_emplaceI6SkyboxNS_9allocatorIS1_EEED1Ev, symObjAddr: 0x1CA24, symBinAddr: 0x10006D5E0, symSize: 0x2C }
  - { offsetInCU: 0x15392, offset: 0x64052, size: 0x8, addend: 0x0, symName: __ZNSt3__120__shared_ptr_emplaceI6SkyboxNS_9allocatorIS1_EEED0Ev, symObjAddr: 0x1CA50, symBinAddr: 0x10006D60C, symSize: 0x30 }
  - { offsetInCU: 0x153BE, offset: 0x6407E, size: 0x8, addend: 0x0, symName: __ZNSt3__120__shared_ptr_emplaceI6SkyboxNS_9allocatorIS1_EEE16__on_zero_sharedEv, symObjAddr: 0x1CA80, symBinAddr: 0x10006D63C, symSize: 0x28 }
  - { offsetInCU: 0x153E2, offset: 0x640A2, size: 0x8, addend: 0x0, symName: __ZNSt3__120__shared_ptr_emplaceI6SkyboxNS_9allocatorIS1_EEE21__on_zero_shared_weakEv, symObjAddr: 0x1CAA8, symBinAddr: 0x10006D664, symSize: 0x208 }
  - { offsetInCU: 0x15427, offset: 0x640E7, size: 0x8, addend: 0x0, symName: __ZNSt3__120__shared_ptr_emplaceI6SkyboxNS_9allocatorIS1_EEE8_StorageC2B8ue170006EOS3_, symObjAddr: 0x1CCB0, symBinAddr: 0x10006D86C, symSize: 0x30 }
  - { offsetInCU: 0x1545E, offset: 0x6411E, size: 0x8, addend: 0x0, symName: __ZNSt3__120__shared_ptr_emplaceI6SkyboxNS_9allocatorIS1_EEE8_Storage11__get_allocB8ue170006Ev, symObjAddr: 0x1CCE0, symBinAddr: 0x10006D89C, symSize: 0x3C }
  - { offsetInCU: 0x154B2, offset: 0x64172, size: 0x8, addend: 0x0, symName: __ZNSt3__117__compressed_pairINS_9allocatorI6SkyboxEES2_E16__get_first_baseB8ue170006EPS4_, symObjAddr: 0x1CD1C, symBinAddr: 0x10006D8D8, symSize: 0x14 }
  - { offsetInCU: 0x154D5, offset: 0x64195, size: 0x8, addend: 0x0, symName: __ZNSt3__110shared_ptrI6ShaderEC2B8ue170006EOS2_, symObjAddr: 0x1CEE8, symBinAddr: 0x10006D8EC, symSize: 0x1B8 }
  - { offsetInCU: 0x1550C, offset: 0x641CC, size: 0x8, addend: 0x0, symName: __ZNSt3__120__shared_ptr_emplaceI6SkyboxNS_9allocatorIS1_EEE8_StorageD2B8ue170006Ev, symObjAddr: 0x1D0A0, symBinAddr: 0x10006DAA4, symSize: 0x2C }
  - { offsetInCU: 0x15534, offset: 0x641F4, size: 0x8, addend: 0x0, symName: __ZNSt3__120__shared_ptr_emplaceI6SkyboxNS_9allocatorIS1_EEED2Ev, symObjAddr: 0x1D0CC, symBinAddr: 0x10006DAD0, symSize: 0x88 }
  - { offsetInCU: 0x15560, offset: 0x64220, size: 0x8, addend: 0x0, symName: __ZNSt3__120__shared_ptr_emplaceI6SkyboxNS_9allocatorIS1_EEE11__get_allocB8ue170006Ev, symObjAddr: 0x1D154, symBinAddr: 0x10006DB58, symSize: 0x28 }
  - { offsetInCU: 0x15584, offset: 0x64244, size: 0x8, addend: 0x0, symName: __ZNSt3__116allocator_traitsINS_9allocatorINS_20__shared_ptr_emplaceI6SkyboxNS1_IS3_EEEEEEE10deallocateB8ue170006ERS6_PS5_m, symObjAddr: 0x1D17C, symBinAddr: 0x10006DB80, symSize: 0x34 }
  - { offsetInCU: 0x155C6, offset: 0x64286, size: 0x8, addend: 0x0, symName: __ZNSt3__114pointer_traitsIPNS_20__shared_ptr_emplaceI6SkyboxNS_9allocatorIS2_EEEEE10pointer_toB8ue170006ERS5_, symObjAddr: 0x1D1B0, symBinAddr: 0x10006DBB4, symSize: 0x14 }
  - { offsetInCU: 0x155E9, offset: 0x642A9, size: 0x8, addend: 0x0, symName: __ZNSt3__19allocatorINS_20__shared_ptr_emplaceI6SkyboxNS0_IS2_EEEEE10deallocateB8ue170006EPS4_m, symObjAddr: 0x1D1C4, symBinAddr: 0x10006DBC8, symSize: 0x50 }
  - { offsetInCU: 0x15629, offset: 0x642E9, size: 0x8, addend: 0x0, symName: __ZNSt3__110shared_ptrI6SkyboxEC1B8ue170006Ev, symObjAddr: 0x1D214, symBinAddr: 0x10006DC18, symSize: 0x2C }
  - { offsetInCU: 0x15651, offset: 0x64311, size: 0x8, addend: 0x0, symName: __ZNSt3__110shared_ptrI6SkyboxE18__enable_weak_thisB8ue170006Ez, symObjAddr: 0x1D240, symBinAddr: 0x10006DC44, symSize: 0x10 }
  - { offsetInCU: 0x15676, offset: 0x64336, size: 0x8, addend: 0x0, symName: __ZNSt3__110shared_ptrI6SkyboxEC2B8ue170006Ev, symObjAddr: 0x1D250, symBinAddr: 0x10006DC54, symSize: 0x9C }
  - { offsetInCU: 0x1569E, offset: 0x6435E, size: 0x8, addend: 0x0, symName: __ZNSt3__120__shared_ptr_emplaceI6SkyboxNS_9allocatorIS1_EEE8_Storage10__get_elemB8ue170006Ev, symObjAddr: 0x1D2EC, symBinAddr: 0x10006DCF0, symSize: 0x3C }
  - { offsetInCU: 0x156F2, offset: 0x643B2, size: 0x8, addend: 0x0, symName: __ZNSt3__117__compressed_pairINS_9allocatorI6SkyboxEES2_E17__get_second_baseB8ue170006EPS4_, symObjAddr: 0x1D328, symBinAddr: 0x10006DD2C, symSize: 0x14 }
  - { offsetInCU: 0x15715, offset: 0x643D5, size: 0x8, addend: 0x0, symName: __ZNSt3__118__allocation_guardINS_9allocatorINS_20__shared_ptr_emplaceI6SkyboxNS1_IS3_EEEEEEED2B8ue170006Ev, symObjAddr: 0x1D33C, symBinAddr: 0x10006DD40, symSize: 0x2C }
  - { offsetInCU: 0x1573D, offset: 0x643FD, size: 0x8, addend: 0x0, symName: __ZNSt3__118__allocation_guardINS_9allocatorINS_20__shared_ptr_emplaceI6SkyboxNS1_IS3_EEEEEEE9__destroyB8ue170006Ev, symObjAddr: 0x1D368, symBinAddr: 0x10006DD6C, symSize: 0xFC }
  - { offsetInCU: 0x15761, offset: 0x64421, size: 0x8, addend: 0x0, symName: __ZNSt3__19allocatorI6SkyboxEC2B8ue170006Ev, symObjAddr: 0x1D464, symBinAddr: 0x10006DE68, symSize: 0x2C }
  - { offsetInCU: 0x15789, offset: 0x64449, size: 0x8, addend: 0x0, symName: __ZNSt3__116__non_trivial_ifILb1ENS_9allocatorI6SkyboxEEEC2B8ue170006Ev, symObjAddr: 0x1D490, symBinAddr: 0x10006DE94, symSize: 0x14 }
  - { offsetInCU: 0x157B2, offset: 0x64472, size: 0x8, addend: 0x0, symName: __ZNSt3__110shared_ptrI6SkyboxEC1B8ue170006EOS2_, symObjAddr: 0x1D4A4, symBinAddr: 0x10006DEA8, symSize: 0x34 }
  - { offsetInCU: 0x157E9, offset: 0x644A9, size: 0x8, addend: 0x0, symName: __ZNSt3__110shared_ptrI6SkyboxE4swapB8ue170006ERS2_, symObjAddr: 0x1D4D8, symBinAddr: 0x10006DEDC, symSize: 0x44 }
  - { offsetInCU: 0x1581C, offset: 0x644DC, size: 0x8, addend: 0x0, symName: __ZNSt3__110shared_ptrI6SkyboxEC2B8ue170006EOS2_, symObjAddr: 0x1D51C, symBinAddr: 0x10006DF20, symSize: 0x1B8 }
  - { offsetInCU: 0x15853, offset: 0x64513, size: 0x8, addend: 0x0, symName: __ZNSt3__110shared_ptrI6SkyboxEC2B8ue170006ERKS2_, symObjAddr: 0x1D808, symBinAddr: 0x10006E20C, symSize: 0x1CC }
  - { offsetInCU: 0x1588A, offset: 0x6454A, size: 0x8, addend: 0x0, symName: __ZNSt3__110shared_ptrI17PerspectiveCameraEC2B8ue170006ERKS2_, symObjAddr: 0x1D9D4, symBinAddr: 0x10006E3D8, symSize: 0x1CC }
  - { offsetInCU: 0x158C1, offset: 0x64581, size: 0x8, addend: 0x0, symName: __ZNSt3__16vectorINS_10shared_ptrI5ModelEENS_9allocatorIS3_EEE11__make_iterB8ue170006EPS3_, symObjAddr: 0x1DBA0, symBinAddr: 0x10006E5A4, symSize: 0x1FC }
  - { offsetInCU: 0x158F6, offset: 0x645B6, size: 0x8, addend: 0x0, symName: __ZNSt3__111__wrap_iterIPNS_10shared_ptrI5ModelEEEC1B8ue170006ES4_, symObjAddr: 0x1DD9C, symBinAddr: 0x10006E7A0, symSize: 0x34 }
  - { offsetInCU: 0x1592C, offset: 0x645EC, size: 0x8, addend: 0x0, symName: __ZNSt3__111__wrap_iterIPNS_10shared_ptrI5ModelEEEC2B8ue170006ES4_, symObjAddr: 0x1DDD0, symBinAddr: 0x10006E7D4, symSize: 0x70 }
  - { offsetInCU: 0x1596C, offset: 0x6462C, size: 0x8, addend: 0x0, symName: __ZNSt3__116allocator_traitsINS_9allocatorIcEEE37select_on_container_copy_constructionB8ue170006IS2_vvEES2_RKS2_, symObjAddr: 0x1DE40, symBinAddr: 0x10006E844, symSize: 0x10 }
  - { offsetInCU: 0x1599B, offset: 0x6465B, size: 0x8, addend: 0x0, symName: __ZNKSt3__112basic_stringIcNS_11char_traitsIcEENS_9allocatorIcEEE13get_allocatorB8ue170006Ev, symObjAddr: 0x1DE50, symBinAddr: 0x10006E854, symSize: 0x24 }
  - { offsetInCU: 0x159BF, offset: 0x6467F, size: 0x8, addend: 0x0, symName: __ZNSt3__112basic_stringIcNS_11char_traitsIcEENS_9allocatorIcEEEC1B8ue170006ENS_24__uninitialized_size_tagEmRKS4_, symObjAddr: 0x1DE74, symBinAddr: 0x10006E878, symSize: 0x3C }
  - { offsetInCU: 0x15A11, offset: 0x646D1, size: 0x8, addend: 0x0, symName: __ZNSt3__111char_traitsIcE4copyB8ue170006EPcPKcm, symObjAddr: 0x1DEB0, symBinAddr: 0x10006E8B4, symSize: 0x4C }
  - { offsetInCU: 0x15A50, offset: 0x64710, size: 0x8, addend: 0x0, symName: __ZNSt3__111char_traitsIcE6assignB8ue170006EPcmc, symObjAddr: 0x1DEFC, symBinAddr: 0x10006E900, symSize: 0x23C }
  - { offsetInCU: 0x15A95, offset: 0x64755, size: 0x8, addend: 0x0, symName: __ZNKSt3__112basic_stringIcNS_11char_traitsIcEENS_9allocatorIcEEE7__allocB8ue170006Ev, symObjAddr: 0x1E138, symBinAddr: 0x10006EB3C, symSize: 0x24 }
  - { offsetInCU: 0x15AB9, offset: 0x64779, size: 0x8, addend: 0x0, symName: __ZNKSt3__117__compressed_pairINS_12basic_stringIcNS_11char_traitsIcEENS_9allocatorIcEEE5__repES5_E6secondB8ue170006Ev, symObjAddr: 0x1E15C, symBinAddr: 0x10006EB60, symSize: 0x24 }
  - { offsetInCU: 0x15ADD, offset: 0x6479D, size: 0x8, addend: 0x0, symName: __ZNKSt3__122__compressed_pair_elemINS_9allocatorIcEELi1ELb1EE5__getB8ue170006Ev, symObjAddr: 0x1E180, symBinAddr: 0x10006EB84, symSize: 0x14 }
  - { offsetInCU: 0x15B01, offset: 0x647C1, size: 0x8, addend: 0x0, symName: __ZNSt3__112basic_stringIcNS_11char_traitsIcEENS_9allocatorIcEEEC2B8ue170006ENS_24__uninitialized_size_tagEmRKS4_, symObjAddr: 0x1E194, symBinAddr: 0x10006EB98, symSize: 0x324 }
  - { offsetInCU: 0x15B87, offset: 0x64847, size: 0x8, addend: 0x0, symName: __ZNSt3__117__compressed_pairINS_12basic_stringIcNS_11char_traitsIcEENS_9allocatorIcEEE5__repES5_EC1B8ue170006INS_18__default_init_tagERKS5_EEOT_OT0_, symObjAddr: 0x1E4B8, symBinAddr: 0x10006EEBC, symSize: 0x3C }
  - { offsetInCU: 0x15BDD, offset: 0x6489D, size: 0x8, addend: 0x0, symName: __ZNKSt3__112basic_stringIcNS_11char_traitsIcEENS_9allocatorIcEEE8max_sizeB8ue170006Ev, symObjAddr: 0x1E4F4, symBinAddr: 0x10006EEF8, symSize: 0xBC }
  - { offsetInCU: 0x15C2F, offset: 0x648EF, size: 0x8, addend: 0x0, symName: __ZNKSt3__112basic_stringIcNS_11char_traitsIcEENS_9allocatorIcEEE20__throw_length_errorB8ue170006Ev, symObjAddr: 0x1E5B0, symBinAddr: 0x10006EFB4, symSize: 0x20 }
  - { offsetInCU: 0x15C53, offset: 0x64913, size: 0x8, addend: 0x0, symName: __ZNSt3__112basic_stringIcNS_11char_traitsIcEENS_9allocatorIcEEE13__fits_in_ssoB8ue170006Em, symObjAddr: 0x1E5D0, symBinAddr: 0x10006EFD4, symSize: 0x20 }
  - { offsetInCU: 0x15C77, offset: 0x64937, size: 0x8, addend: 0x0, symName: __ZNSt3__112basic_stringIcNS_11char_traitsIcEENS_9allocatorIcEEE11__recommendB8ue170006Em, symObjAddr: 0x1E5F0, symBinAddr: 0x10006EFF4, symSize: 0x84 }
  - { offsetInCU: 0x15CAB, offset: 0x6496B, size: 0x8, addend: 0x0, symName: __ZNSt3__116allocator_traitsINS_9allocatorIcEEE8allocateB8ue170006ERS2_m, symObjAddr: 0x1E674, symBinAddr: 0x10006F078, symSize: 0x2C }
  - { offsetInCU: 0x15CDE, offset: 0x6499E, size: 0x8, addend: 0x0, symName: __ZNSt3__112basic_stringIcNS_11char_traitsIcEENS_9allocatorIcEEE16__begin_lifetimeB8ue170006EPcm, symObjAddr: 0x1E6A0, symBinAddr: 0x10006F0A4, symSize: 0x14 }
  - { offsetInCU: 0x15D11, offset: 0x649D1, size: 0x8, addend: 0x0, symName: __ZNSt3__112basic_stringIcNS_11char_traitsIcEENS_9allocatorIcEEE14__set_long_capB8ue170006Em, symObjAddr: 0x1E6B4, symBinAddr: 0x10006F0B8, symSize: 0xEC }
  - { offsetInCU: 0x15D44, offset: 0x64A04, size: 0x8, addend: 0x0, symName: __ZNSt3__112basic_stringIcNS_11char_traitsIcEENS_9allocatorIcEEE18__set_long_pointerB8ue170006EPc, symObjAddr: 0x1E7A0, symBinAddr: 0x10006F1A4, symSize: 0x7C }
  - { offsetInCU: 0x15D77, offset: 0x64A37, size: 0x8, addend: 0x0, symName: __ZNSt3__112basic_stringIcNS_11char_traitsIcEENS_9allocatorIcEEE15__set_long_sizeB8ue170006Em, symObjAddr: 0x1E81C, symBinAddr: 0x10006F220, symSize: 0x80 }
  - { offsetInCU: 0x15DAA, offset: 0x64A6A, size: 0x8, addend: 0x0, symName: __ZNSt3__117__compressed_pairINS_12basic_stringIcNS_11char_traitsIcEENS_9allocatorIcEEE5__repES5_EC2B8ue170006INS_18__default_init_tagERKS5_EEOT_OT0_, symObjAddr: 0x1E89C, symBinAddr: 0x10006F2A0, symSize: 0x40 }
  - { offsetInCU: 0x15E00, offset: 0x64AC0, size: 0x8, addend: 0x0, symName: __ZNSt3__122__compressed_pair_elemINS_9allocatorIcEELi1ELb1EEC2B8ue170006IRKS2_vEEOT_, symObjAddr: 0x1E8DC, symBinAddr: 0x10006F2E0, symSize: 0x18 }
  - { offsetInCU: 0x15E41, offset: 0x64B01, size: 0x8, addend: 0x0, symName: __ZNSt3__116allocator_traitsINS_9allocatorIcEEE8max_sizeB8ue170006IS2_vEEmRKS2_, symObjAddr: 0x1E8F4, symBinAddr: 0x10006F2F8, symSize: 0x24 }
  - { offsetInCU: 0x15E6F, offset: 0x64B2F, size: 0x8, addend: 0x0, symName: __ZNSt3__114numeric_limitsImE3maxB8ue170006Ev, symObjAddr: 0x1E918, symBinAddr: 0x10006F31C, symSize: 0x14 }
  - { offsetInCU: 0x15E82, offset: 0x64B42, size: 0x8, addend: 0x0, symName: __ZNKSt3__19allocatorIcE8max_sizeB8ue170006Ev, symObjAddr: 0x1E92C, symBinAddr: 0x10006F330, symSize: 0x14 }
  - { offsetInCU: 0x15EA6, offset: 0x64B66, size: 0x8, addend: 0x0, symName: __ZNSt3__123__libcpp_numeric_limitsImLb1EE3maxB8ue170006Ev, symObjAddr: 0x1E940, symBinAddr: 0x10006F344, symSize: 0x8 }
  - { offsetInCU: 0x15EBA, offset: 0x64B7A, size: 0x8, addend: 0x0, symName: __ZNSt3__112basic_stringIcNS_11char_traitsIcEENS_9allocatorIcEEE10__align_itB8ue170006ILm16EEEmm, symObjAddr: 0x1E948, symBinAddr: 0x10006F34C, symSize: 0x1C }
  - { offsetInCU: 0x15EE8, offset: 0x64BA8, size: 0x8, addend: 0x0, symName: __ZNSt3__19allocatorIcE8allocateB8ue170006Em, symObjAddr: 0x1E964, symBinAddr: 0x10006F368, symSize: 0x5C }
  - { offsetInCU: 0x15F3D, offset: 0x64BFD, size: 0x8, addend: 0x0, symName: __ZNKSt3__114__copy_trivialclB8ue170006IKccLi0EEENS_4pairIPT_PT0_EES5_S5_S7_, symObjAddr: 0x1F9BC, symBinAddr: 0x1000703C0, symSize: 0x230 }
  - { offsetInCU: 0x15FC6, offset: 0x64C86, size: 0x8, addend: 0x0, symName: __ZNSt3__14pairIPKcS2_EC1B8ue170006IS2_S2_LPv0EEEOT_OT0_, symObjAddr: 0x200C0, symBinAddr: 0x100070AC4, symSize: 0x3C }
  - { offsetInCU: 0x16023, offset: 0x64CE3, size: 0x8, addend: 0x0, symName: __ZNSt3__14pairIPKcS2_EC2B8ue170006IS2_S2_LPv0EEEOT_OT0_, symObjAddr: 0x200FC, symBinAddr: 0x100070B00, symSize: 0x138 }
  - { offsetInCU: 0x16080, offset: 0x64D40, size: 0x8, addend: 0x0, symName: __ZNSt3__118__unwrap_iter_implIPKcLb1EE8__unwrapB8ue170006ES2_, symObjAddr: 0x20234, symBinAddr: 0x100070C38, symSize: 0x24 }
  - { offsetInCU: 0x160AD, offset: 0x64D6D, size: 0x8, addend: 0x0, symName: __ZNSt3__14pairIPKcPcEC1B8ue170006IRS2_S3_LPv0EEEOT_OT0_, symObjAddr: 0x20874, symBinAddr: 0x100071278, symSize: 0x3C }
  - { offsetInCU: 0x1610A, offset: 0x64DCA, size: 0x8, addend: 0x0, symName: __ZNSt3__14pairIPKcPcEC2B8ue170006IRS2_S3_LPv0EEEOT_OT0_, symObjAddr: 0x208B0, symBinAddr: 0x1000712B4, symSize: 0x138 }
  - { offsetInCU: 0x16167, offset: 0x64E27, size: 0x8, addend: 0x0, symName: __ZNSt3__118__unwrap_iter_implIPcLb1EE8__unwrapB8ue170006ES1_, symObjAddr: 0x209E8, symBinAddr: 0x1000713EC, symSize: 0x24 }
  - { offsetInCU: 0x1618A, offset: 0x64E4A, size: 0x8, addend: 0x0, symName: __ZNSt3__14pairIPKcPcEC1B8ue170006IS2_S3_LPv0EEEOT_OT0_, symObjAddr: 0x20A0C, symBinAddr: 0x100071410, symSize: 0x3C }
  - { offsetInCU: 0x161E7, offset: 0x64EA7, size: 0x8, addend: 0x0, symName: __ZNSt3__14pairIPKcPcEC2B8ue170006IS2_S3_LPv0EEEOT_OT0_, symObjAddr: 0x20A48, symBinAddr: 0x10007144C, symSize: 0x138 }
  - { offsetInCU: 0x16244, offset: 0x64F04, size: 0x8, addend: 0x0, symName: __ZNSt3__118__unwrap_iter_implIPKcLb1EE8__rewrapB8ue170006ES2_S2_, symObjAddr: 0x20BC8, symBinAddr: 0x1000715CC, symSize: 0x48 }
  - { offsetInCU: 0x16275, offset: 0x64F35, size: 0x8, addend: 0x0, symName: __ZNSt3__118__unwrap_iter_implIPcLb1EE8__rewrapB8ue170006ES1_S1_, symObjAddr: 0x20C10, symBinAddr: 0x100071614, symSize: 0x48 }
  - { offsetInCU: 0x3B, offset: 0x6518B, size: 0x8, addend: 0x0, symName: _.str, symObjAddr: 0x17200, symBinAddr: 0x1004918C0, symSize: 0x0 }
  - { offsetInCU: 0x6C, offset: 0x651BC, size: 0x8, addend: 0x0, symName: _.str.1, symObjAddr: 0x17240, symBinAddr: 0x100491900, symSize: 0x0 }
  - { offsetInCU: 0x8A, offset: 0x651DA, size: 0x8, addend: 0x0, symName: _.str.2, symObjAddr: 0x17280, symBinAddr: 0x100491940, symSize: 0x0 }
  - { offsetInCU: 0x9C, offset: 0x651EC, size: 0x8, addend: 0x0, symName: _.str.3, symObjAddr: 0x172C0, symBinAddr: 0x100491980, symSize: 0x0 }
  - { offsetInCU: 0xBA, offset: 0x6520A, size: 0x8, addend: 0x0, symName: _.str.4, symObjAddr: 0x172E0, symBinAddr: 0x1004919A0, symSize: 0x0 }
  - { offsetInCU: 0xD8, offset: 0x65228, size: 0x8, addend: 0x0, symName: _.str.5, symObjAddr: 0x17320, symBinAddr: 0x1004919E0, symSize: 0x0 }
  - { offsetInCU: 0xEA, offset: 0x6523A, size: 0x8, addend: 0x0, symName: _.str.6, symObjAddr: 0x17360, symBinAddr: 0x100491A20, symSize: 0x0 }
  - { offsetInCU: 0x108, offset: 0x65258, size: 0x8, addend: 0x0, symName: _.str.7, symObjAddr: 0x173A0, symBinAddr: 0x100491A60, symSize: 0x0 }
  - { offsetInCU: 0x11A, offset: 0x6526A, size: 0x8, addend: 0x0, symName: _.str.8, symObjAddr: 0x173C0, symBinAddr: 0x100491A80, symSize: 0x0 }
  - { offsetInCU: 0x138, offset: 0x65288, size: 0x8, addend: 0x0, symName: _.str.9, symObjAddr: 0x173E0, symBinAddr: 0x100491AA0, symSize: 0x0 }
  - { offsetInCU: 0x157, offset: 0x652A7, size: 0x8, addend: 0x0, symName: _.str.10, symObjAddr: 0x17400, symBinAddr: 0x100491AC0, symSize: 0x0 }
  - { offsetInCU: 0x175, offset: 0x652C5, size: 0x8, addend: 0x0, symName: ___func__._ZN3glm16perspectiveRH_NOIfEENS_3matILi4ELi4ET_LNS_9qualifierE0EEES2_S2_S2_S2_, symObjAddr: 0x17420, symBinAddr: 0x100491AE0, symSize: 0x0 }
  - { offsetInCU: 0x193, offset: 0x652E3, size: 0x8, addend: 0x0, symName: _.str.11, symObjAddr: 0x17460, symBinAddr: 0x100491B20, symSize: 0x0 }
  - { offsetInCU: 0x1B1, offset: 0x65301, size: 0x8, addend: 0x0, symName: _.str.12, symObjAddr: 0x174A0, symBinAddr: 0x100491B60, symSize: 0x0 }
  - { offsetInCU: 0x1D0, offset: 0x65320, size: 0x8, addend: 0x0, symName: ___func__._ZN3glm3matILi4ELi4EfLNS_9qualifierE0EEixEi, symObjAddr: 0x17520, symBinAddr: 0x100491BE0, symSize: 0x0 }
  - { offsetInCU: 0x1E3, offset: 0x65333, size: 0x8, addend: 0x0, symName: _.str.13, symObjAddr: 0x17540, symBinAddr: 0x100491C00, symSize: 0x0 }
  - { offsetInCU: 0x202, offset: 0x65352, size: 0x8, addend: 0x0, symName: _.str.14, symObjAddr: 0x17560, symBinAddr: 0x100491C20, symSize: 0x0 }
  - { offsetInCU: 0x215, offset: 0x65365, size: 0x8, addend: 0x0, symName: _.str.15, symObjAddr: 0x175A0, symBinAddr: 0x100491C60, symSize: 0x0 }
  - { offsetInCU: 0x234, offset: 0x65384, size: 0x8, addend: 0x0, symName: _.str.16, symObjAddr: 0x175C0, symBinAddr: 0x100491C80, symSize: 0x0 }
  - { offsetInCU: 0x25B, offset: 0x653AB, size: 0x8, addend: 0x0, symName: __ZN3glm11perspectiveIfEENS_3matILi4ELi4ET_LNS_9qualifierE0EEES2_S2_S2_S2_, symObjAddr: 0x3BFC, symBinAddr: 0x100074E90, symSize: 0x3C }
  - { offsetInCU: 0x2BF, offset: 0x6540F, size: 0x8, addend: 0x0, symName: __ZN3glm7radiansIfEET_S1_, symObjAddr: 0x3C38, symBinAddr: 0x100074ECC, symSize: 0x24 }
  - { offsetInCU: 0x2F5, offset: 0x65445, size: 0x8, addend: 0x0, symName: __ZN3glm6lookAtIfLNS_9qualifierE0EEENS_3matILi4ELi4ET_XT0_EEERKNS_3vecILi3ES3_XT0_EEES8_S8_, symObjAddr: 0x3C5C, symBinAddr: 0x100074EF0, symSize: 0x34 }
  - { offsetInCU: 0x350, offset: 0x654A0, size: 0x8, addend: 0x0, symName: __ZN3glm16perspectiveRH_NOIfEENS_3matILi4ELi4ET_LNS_9qualifierE0EEES2_S2_S2_S2_, symObjAddr: 0x12B58, symBinAddr: 0x1000794DC, symSize: 0x38C }
  - { offsetInCU: 0x3CD, offset: 0x6551D, size: 0x8, addend: 0x0, symName: __ZN3glm3absIfEET_S1_, symObjAddr: 0x12EE4, symBinAddr: 0x100079868, symSize: 0x24 }
  - { offsetInCU: 0x500, offset: 0x65650, size: 0x8, addend: 0x0, symName: __ZN3glm8lookAtRHIfLNS_9qualifierE0EEENS_3matILi4ELi4ET_XT0_EEERKNS_3vecILi3ES3_XT0_EEES8_S8_, symObjAddr: 0x13138, symBinAddr: 0x100079ABC, symSize: 0x1414 }
  - { offsetInCU: 0x5A5, offset: 0x656F5, size: 0x8, addend: 0x0, symName: __ZN3glm9normalizeILi3EfLNS_9qualifierE0EEENS_3vecIXT_ET0_XT1_EEERKS4_, symObjAddr: 0x1454C, symBinAddr: 0x10007AED0, symSize: 0x3C8 }
  - { offsetInCU: 0x5EF, offset: 0x6573F, size: 0x8, addend: 0x0, symName: __ZN3glmmiIfLNS_9qualifierE0EEENS_3vecILi3ET_XT0_EEERKS4_S6_, symObjAddr: 0x14914, symBinAddr: 0x10007B298, symSize: 0x530 }
  - { offsetInCU: 0x641, offset: 0x65791, size: 0x8, addend: 0x0, symName: __ZN3glm5crossIfLNS_9qualifierE0EEENS_3vecILi3ET_XT0_EEERKS4_S6_, symObjAddr: 0x14E44, symBinAddr: 0x10007B7C8, symSize: 0x3D0 }
  - { offsetInCU: 0x690, offset: 0x657E0, size: 0x8, addend: 0x0, symName: __ZN3glm3dotILi3EfLNS_9qualifierE0EEET0_RKNS_3vecIXT_ES2_XT1_EEES6_, symObjAddr: 0x15214, symBinAddr: 0x10007BB98, symSize: 0x2C }
  - { offsetInCU: 0x6E7, offset: 0x65837, size: 0x8, addend: 0x0, symName: __ZN3glm11inversesqrtIfEET_S1_, symObjAddr: 0x15A10, symBinAddr: 0x10007BFA4, symSize: 0x30 }
  - { offsetInCU: 0x71C, offset: 0x6586C, size: 0x8, addend: 0x0, symName: __ZN3glmmlIfLNS_9qualifierE0EEENS_3vecILi3ET_XT0_EEERKS4_S6_, symObjAddr: 0x1667C, symBinAddr: 0x10007CC10, symSize: 0x530 }
  - { offsetInCU: 0x5B0A, offset: 0x6AC5A, size: 0x8, addend: 0x0, symName: __ZNSt3__111make_sharedB8ue170006I4MeshJRNS_10shared_ptrI11VertexArrayEEP8MaterialEvEENS2_IT_EEDpOT0_, symObjAddr: 0x91C, symBinAddr: 0x100072040, symSize: 0x1F0 }
  - { offsetInCU: 0x5B63, offset: 0x6ACB3, size: 0x8, addend: 0x0, symName: __ZNSt3__130__uninitialized_allocator_copyB8ue170006INS_9allocatorIfEEPfS3_S3_EET2_RT_T0_T1_S4_, symObjAddr: 0x770C, symBinAddr: 0x100075BCC, symSize: 0x2DC }
  - { offsetInCU: 0x5C0B, offset: 0x6AD5B, size: 0x8, addend: 0x0, symName: __ZNSt3__114__unwrap_rangeB8ue170006IPfS1_EENS_4pairIT0_S3_EET_S5_, symObjAddr: 0x7CBC, symBinAddr: 0x100075EA8, symSize: 0x350 }
  - { offsetInCU: 0x5C59, offset: 0x6ADA9, size: 0x8, addend: 0x0, symName: __ZNSt3__135__uninitialized_allocator_copy_implB8ue170006INS_9allocatorIfEEfffLPv0EEEPT2_RT_PT0_S9_S5_, symObjAddr: 0x800C, symBinAddr: 0x1000761F8, symSize: 0x38 }
  - { offsetInCU: 0x5CDC, offset: 0x6AE2C, size: 0x8, addend: 0x0, symName: __ZNSt3__19make_pairB8ue170006IPfS1_EENS_4pairINS_18__unwrap_ref_decayIT_E4typeENS3_IT0_E4typeEEEOS4_OS7_, symObjAddr: 0x80B0, symBinAddr: 0x100076230, symSize: 0x20C }
  - { offsetInCU: 0x5E32, offset: 0x6AF82, size: 0x8, addend: 0x0, symName: __ZNSt3__14copyB8ue170006IPfS1_EET0_T_S3_S2_, symObjAddr: 0x8430, symBinAddr: 0x1000765B0, symSize: 0x26C }
  - { offsetInCU: 0x5E8F, offset: 0x6AFDF, size: 0x8, addend: 0x0, symName: __ZNSt3__16__copyB8ue170006INS_17_ClassicAlgPolicyEPfS2_S2_EENS_4pairIT0_T2_EES4_T1_S5_, symObjAddr: 0x869C, symBinAddr: 0x10007681C, symSize: 0x22C }
  - { offsetInCU: 0x5EFE, offset: 0x6B04E, size: 0x8, addend: 0x0, symName: __ZNSt3__123__dispatch_copy_or_moveB8ue170006INS_17_ClassicAlgPolicyENS_11__copy_loopIS1_EENS_14__copy_trivialEPfS5_S5_EENS_4pairIT2_T4_EES7_T3_S8_, symObjAddr: 0x88C8, symBinAddr: 0x100076A48, symSize: 0x22C }
  - { offsetInCU: 0x5F7F, offset: 0x6B0CF, size: 0x8, addend: 0x0, symName: __ZNSt3__121__unwrap_and_dispatchB8ue170006INS_10__overloadINS_11__copy_loopINS_17_ClassicAlgPolicyEEENS_14__copy_trivialEEEPfS7_S7_Li0EEENS_4pairIT0_T2_EES9_T1_SA_, symObjAddr: 0x8AF4, symBinAddr: 0x100076C74, symSize: 0x5A4 }
  - { offsetInCU: 0x6060, offset: 0x6B1B0, size: 0x8, addend: 0x0, symName: __ZNSt3__114__rewrap_rangeB8ue170006IPfS1_EET_S2_T0_, symObjAddr: 0x92C8, symBinAddr: 0x100077448, symSize: 0x2C }
  - { offsetInCU: 0x60AC, offset: 0x6B1FC, size: 0x8, addend: 0x0, symName: __ZNSt3__119__copy_trivial_implB8ue170006IffEENS_4pairIPT_PT0_EES3_S3_S5_, symObjAddr: 0x92F4, symBinAddr: 0x100077474, symSize: 0x3B4 }
  - { offsetInCU: 0x611B, offset: 0x6B26B, size: 0x8, addend: 0x0, symName: __ZNSt3__119__constexpr_memmoveB8ue170006IffLi0EEEPT_S2_PT0_NS_15__element_countE, symObjAddr: 0x96A8, symBinAddr: 0x100077828, symSize: 0x64 }
  - { offsetInCU: 0x618A, offset: 0x6B2DA, size: 0x8, addend: 0x0, symName: __ZNSt3__19make_pairB8ue170006IRPfS1_EENS_4pairINS_18__unwrap_ref_decayIT_E4typeENS4_IT0_E4typeEEEOS5_OS8_, symObjAddr: 0x970C, symBinAddr: 0x10007788C, symSize: 0x20C }
  - { offsetInCU: 0x61DB, offset: 0x6B32B, size: 0x8, addend: 0x0, symName: __ZNSt3__115allocate_sharedB8ue170006I4MeshNS_9allocatorIS1_EEJRNS_10shared_ptrI11VertexArrayEEP8MaterialEvEENS4_IT_EERKT0_DpOT1_, symObjAddr: 0xB200, symBinAddr: 0x100077C0C, symSize: 0x308 }
  - { offsetInCU: 0x909A, offset: 0x6E1EA, size: 0x8, addend: 0x0, symName: __ZN6SkyboxC2ENSt3__110shared_ptrI9Texture2DEENS1_I6ShaderEE, symObjAddr: 0x0, symBinAddr: 0x10007189C, symSize: 0x73C }
  - { offsetInCU: 0x9112, offset: 0x6E262, size: 0x8, addend: 0x0, symName: __ZNSt3__110shared_ptrI11CubeTextureEC1B8ue170006EDn, symObjAddr: 0x73C, symBinAddr: 0x100071FD8, symSize: 0x34 }
  - { offsetInCU: 0x9146, offset: 0x6E296, size: 0x8, addend: 0x0, symName: __ZNSt3__16vectorIfNS_9allocatorIfEEEC1ERKS3_, symObjAddr: 0x80C, symBinAddr: 0x10007200C, symSize: 0x34 }
  - { offsetInCU: 0x9180, offset: 0x6E2D0, size: 0x8, addend: 0x0, symName: __ZNSt3__110shared_ptrI4MeshEaSB8ue170006EOS2_, symObjAddr: 0xB0C, symBinAddr: 0x100072230, symSize: 0x1F4 }
  - { offsetInCU: 0x91B5, offset: 0x6E305, size: 0x8, addend: 0x0, symName: __ZNKSt3__110shared_ptrI4MeshEptB8ue170006Ev, symObjAddr: 0xD2C, symBinAddr: 0x100072424, symSize: 0x60 }
  - { offsetInCU: 0x91D9, offset: 0x6E329, size: 0x8, addend: 0x0, symName: __ZNK4Mesh11GetMaterialEv, symObjAddr: 0xD8C, symBinAddr: 0x100072484, symSize: 0x64 }
  - { offsetInCU: 0x91FD, offset: 0x6E34D, size: 0x8, addend: 0x0, symName: __ZNSt3__110shared_ptrI11CubeTextureEaSB8ue170006EOS2_, symObjAddr: 0xEE8, symBinAddr: 0x1000724E8, symSize: 0x1F4 }
  - { offsetInCU: 0x9232, offset: 0x6E382, size: 0x8, addend: 0x0, symName: __ZN6Skybox18PrepareFramebufferEv, symObjAddr: 0x1108, symBinAddr: 0x1000726DC, symSize: 0x368 }
  - { offsetInCU: 0x926B, offset: 0x6E3BB, size: 0x8, addend: 0x0, symName: __ZN6Skybox15PrepareTexturesEv, symObjAddr: 0x1470, symBinAddr: 0x100072A44, symSize: 0x22A4 }
  - { offsetInCU: 0x9342, offset: 0x6E492, size: 0x8, addend: 0x0, symName: __ZN6Skybox12ResetChangesEv, symObjAddr: 0x3714, symBinAddr: 0x100074CE8, symSize: 0x78 }
  - { offsetInCU: 0x9368, offset: 0x6E4B8, size: 0x8, addend: 0x0, symName: __ZN6SkyboxC1ENSt3__110shared_ptrI9Texture2DEENS1_I6ShaderEE, symObjAddr: 0x383C, symBinAddr: 0x100074D60, symSize: 0x3C }
  - { offsetInCU: 0x93B1, offset: 0x6E501, size: 0x8, addend: 0x0, symName: __ZN6SkyboxD2Ev, symObjAddr: 0x3878, symBinAddr: 0x100074D9C, symSize: 0x5C }
  - { offsetInCU: 0x93DC, offset: 0x6E52C, size: 0x8, addend: 0x0, symName: __ZN6SkyboxD1Ev, symObjAddr: 0x38D4, symBinAddr: 0x100074DF8, symSize: 0x2C }
  - { offsetInCU: 0x940B, offset: 0x6E55B, size: 0x8, addend: 0x0, symName: __ZNSt3__16vectorINS_10shared_ptrI9Texture2DEENS_9allocatorIS3_EEEixB8ue170006Em, symObjAddr: 0x3B5C, symBinAddr: 0x100074E24, symSize: 0x6C }
  - { offsetInCU: 0x9441, offset: 0x6E591, size: 0x8, addend: 0x0, symName: __ZNKSt3__110shared_ptrI9Texture2DEptB8ue170006Ev, symObjAddr: 0x3D34, symBinAddr: 0x100074F24, symSize: 0x60 }
  - { offsetInCU: 0x9465, offset: 0x6E5B5, size: 0x8, addend: 0x0, symName: __ZNKSt3__110shared_ptrI11CubeTextureEptB8ue170006Ev, symObjAddr: 0x3D94, symBinAddr: 0x100074F84, symSize: 0x60 }
  - { offsetInCU: 0x9489, offset: 0x6E5D9, size: 0x8, addend: 0x0, symName: __ZNK4Mesh6GetVAOEv, symObjAddr: 0x3E54, symBinAddr: 0x100074FE4, symSize: 0x3C }
  - { offsetInCU: 0x94AD, offset: 0x6E5FD, size: 0x8, addend: 0x0, symName: __ZNSt3__110shared_ptrI11CubeTextureEC2B8ue170006EDn, symObjAddr: 0x3EBC, symBinAddr: 0x100075020, symSize: 0xA0 }
  - { offsetInCU: 0x94E1, offset: 0x6E631, size: 0x8, addend: 0x0, symName: __ZNSt3__16vectorIfNS_9allocatorIfEEEC2ERKS3_, symObjAddr: 0x4EFC, symBinAddr: 0x1000750C0, symSize: 0x388 }
  - { offsetInCU: 0x9527, offset: 0x6E677, size: 0x8, addend: 0x0, symName: __ZNSt3__116allocator_traitsINS_9allocatorIfEEE37select_on_container_copy_constructionB8ue170006IS2_vvEES2_RKS2_, symObjAddr: 0x5284, symBinAddr: 0x100075448, symSize: 0x10 }
  - { offsetInCU: 0x9560, offset: 0x6E6B0, size: 0x8, addend: 0x0, symName: __ZNSt3__117__compressed_pairIPfNS_9allocatorIfEEEC1B8ue170006IDnS3_EEOT_OT0_, symObjAddr: 0x52BC, symBinAddr: 0x100075458, symSize: 0x3C }
  - { offsetInCU: 0x95B6, offset: 0x6E706, size: 0x8, addend: 0x0, symName: __ZNSt3__16vectorIfNS_9allocatorIfEEE16__init_with_sizeB8ue170006IPfS5_EEvT_T0_m, symObjAddr: 0x52F8, symBinAddr: 0x100075494, symSize: 0x35C }
  - { offsetInCU: 0x9631, offset: 0x6E781, size: 0x8, addend: 0x0, symName: __ZNSt3__117__compressed_pairIPfNS_9allocatorIfEEEC2B8ue170006IDnS3_EEOT_OT0_, symObjAddr: 0x573C, symBinAddr: 0x1000757F0, symSize: 0x44 }
  - { offsetInCU: 0x9687, offset: 0x6E7D7, size: 0x8, addend: 0x0, symName: __ZNSt3__122__compressed_pair_elemINS_9allocatorIfEELi1ELb1EEC2B8ue170006IS2_vEEOT_, symObjAddr: 0x57E4, symBinAddr: 0x100075834, symSize: 0x18 }
  - { offsetInCU: 0x96C7, offset: 0x6E817, size: 0x8, addend: 0x0, symName: __ZNSt3__16vectorIfNS_9allocatorIfEEE18__construct_at_endIPfS5_EEvT_T0_m, symObjAddr: 0x5EC8, symBinAddr: 0x10007584C, symSize: 0x380 }
  - { offsetInCU: 0x977C, offset: 0x6E8CC, size: 0x8, addend: 0x0, symName: __ZNSt3__14pairIPfS1_EC1B8ue170006IS1_S1_LPv0EEEOT_OT0_, symObjAddr: 0x82BC, symBinAddr: 0x10007643C, symSize: 0x3C }
  - { offsetInCU: 0x97D9, offset: 0x6E929, size: 0x8, addend: 0x0, symName: __ZNSt3__14pairIPfS1_EC2B8ue170006IS1_S1_LPv0EEEOT_OT0_, symObjAddr: 0x82F8, symBinAddr: 0x100076478, symSize: 0x138 }
  - { offsetInCU: 0x9840, offset: 0x6E990, size: 0x8, addend: 0x0, symName: __ZNKSt3__114__copy_trivialclB8ue170006IffLi0EEENS_4pairIPT_PT0_EES4_S4_S6_, symObjAddr: 0x9098, symBinAddr: 0x100077218, symSize: 0x230 }
  - { offsetInCU: 0x98AB, offset: 0x6E9FB, size: 0x8, addend: 0x0, symName: __ZNSt3__14pairIPfS1_EC1B8ue170006IRS1_S1_LPv0EEEOT_OT0_, symObjAddr: 0x9918, symBinAddr: 0x100077A98, symSize: 0x3C }
  - { offsetInCU: 0x9908, offset: 0x6EA58, size: 0x8, addend: 0x0, symName: __ZNSt3__14pairIPfS1_EC2B8ue170006IRS1_S1_LPv0EEEOT_OT0_, symObjAddr: 0x9954, symBinAddr: 0x100077AD4, symSize: 0x138 }
  - { offsetInCU: 0x9965, offset: 0x6EAB5, size: 0x8, addend: 0x0, symName: __ZNSt3__19allocatorI4MeshEC1B8ue170006Ev, symObjAddr: 0xB508, symBinAddr: 0x100077F14, symSize: 0x2C }
  - { offsetInCU: 0x99D8, offset: 0x6EB28, size: 0x8, addend: 0x0, symName: __ZNSt3__118__allocation_guardINS_9allocatorINS_20__shared_ptr_emplaceI4MeshNS1_IS3_EEEEEEEC1B8ue170006IS4_EET_m, symObjAddr: 0xB534, symBinAddr: 0x100077F40, symSize: 0x34 }
  - { offsetInCU: 0x9A25, offset: 0x6EB75, size: 0x8, addend: 0x0, symName: __ZNKSt3__118__allocation_guardINS_9allocatorINS_20__shared_ptr_emplaceI4MeshNS1_IS3_EEEEEEE5__getB8ue170006Ev, symObjAddr: 0xB568, symBinAddr: 0x100077F74, symSize: 0x64 }
  - { offsetInCU: 0x9A4E, offset: 0x6EB9E, size: 0x8, addend: 0x0, symName: __ZNSt3__120__shared_ptr_emplaceI4MeshNS_9allocatorIS1_EEEC1B8ue170006IJRNS_10shared_ptrI11VertexArrayEEP8MaterialEEES3_DpOT_, symObjAddr: 0xB5CC, symBinAddr: 0x100077FD8, symSize: 0x3C }
  - { offsetInCU: 0x9AB3, offset: 0x6EC03, size: 0x8, addend: 0x0, symName: __ZNSt3__118__allocation_guardINS_9allocatorINS_20__shared_ptr_emplaceI4MeshNS1_IS3_EEEEEEE13__release_ptrB8ue170006Ev, symObjAddr: 0xB608, symBinAddr: 0x100078014, symSize: 0xA8 }
  - { offsetInCU: 0x9AE5, offset: 0x6EC35, size: 0x8, addend: 0x0, symName: __ZNSt3__110shared_ptrI4MeshE27__create_with_control_blockB8ue170006IS1_NS_20__shared_ptr_emplaceIS1_NS_9allocatorIS1_EEEEEES2_PT_PT0_, symObjAddr: 0xB6B0, symBinAddr: 0x1000780BC, symSize: 0x188 }
  - { offsetInCU: 0x9B3B, offset: 0x6EC8B, size: 0x8, addend: 0x0, symName: __ZNSt3__120__shared_ptr_emplaceI4MeshNS_9allocatorIS1_EEE10__get_elemB8ue170006Ev, symObjAddr: 0xB838, symBinAddr: 0x100078244, symSize: 0x28 }
  - { offsetInCU: 0x9B5F, offset: 0x6ECAF, size: 0x8, addend: 0x0, symName: __ZNSt3__118__allocation_guardINS_9allocatorINS_20__shared_ptr_emplaceI4MeshNS1_IS3_EEEEEEED1B8ue170006Ev, symObjAddr: 0xB860, symBinAddr: 0x10007826C, symSize: 0x2C }
  - { offsetInCU: 0x9B87, offset: 0x6ECD7, size: 0x8, addend: 0x0, symName: __ZNSt3__118__allocation_guardINS_9allocatorINS_20__shared_ptr_emplaceI4MeshNS1_IS3_EEEEEEEC2B8ue170006IS4_EET_m, symObjAddr: 0xB88C, symBinAddr: 0x100078298, symSize: 0x28C }
  - { offsetInCU: 0x9BDA, offset: 0x6ED2A, size: 0x8, addend: 0x0, symName: __ZNSt3__19allocatorINS_20__shared_ptr_emplaceI4MeshNS0_IS2_EEEEEC1B8ue170006IS2_EERKNS0_IT_EE, symObjAddr: 0xBB18, symBinAddr: 0x100078524, symSize: 0x34 }
  - { offsetInCU: 0x9C16, offset: 0x6ED66, size: 0x8, addend: 0x0, symName: __ZNSt3__116allocator_traitsINS_9allocatorINS_20__shared_ptr_emplaceI4MeshNS1_IS3_EEEEEEE8allocateB8ue170006ERS6_m, symObjAddr: 0xBB4C, symBinAddr: 0x100078558, symSize: 0x2C }
  - { offsetInCU: 0x9C49, offset: 0x6ED99, size: 0x8, addend: 0x0, symName: __ZNSt3__19allocatorINS_20__shared_ptr_emplaceI4MeshNS0_IS2_EEEEEC2B8ue170006IS2_EERKNS0_IT_EE, symObjAddr: 0xBB78, symBinAddr: 0x100078584, symSize: 0x30 }
  - { offsetInCU: 0x9C85, offset: 0x6EDD5, size: 0x8, addend: 0x0, symName: __ZNSt3__116__non_trivial_ifILb1ENS_9allocatorINS_20__shared_ptr_emplaceI4MeshNS1_IS3_EEEEEEEC2B8ue170006Ev, symObjAddr: 0xBBA8, symBinAddr: 0x1000785B4, symSize: 0x14 }
  - { offsetInCU: 0x9CAE, offset: 0x6EDFE, size: 0x8, addend: 0x0, symName: __ZNSt3__19allocatorINS_20__shared_ptr_emplaceI4MeshNS0_IS2_EEEEE8allocateB8ue170006Em, symObjAddr: 0xBBBC, symBinAddr: 0x1000785C8, symSize: 0x5C }
  - { offsetInCU: 0x9CEA, offset: 0x6EE3A, size: 0x8, addend: 0x0, symName: __ZNSt3__116allocator_traitsINS_9allocatorINS_20__shared_ptr_emplaceI4MeshNS1_IS3_EEEEEEE8max_sizeB8ue170006IS6_vEEmRKS6_, symObjAddr: 0xBC18, symBinAddr: 0x100078624, symSize: 0x24 }
  - { offsetInCU: 0x9D18, offset: 0x6EE68, size: 0x8, addend: 0x0, symName: __ZNKSt3__19allocatorINS_20__shared_ptr_emplaceI4MeshNS0_IS2_EEEEE8max_sizeB8ue170006Ev, symObjAddr: 0xBC3C, symBinAddr: 0x100078648, symSize: 0x14 }
  - { offsetInCU: 0x9D3C, offset: 0x6EE8C, size: 0x8, addend: 0x0, symName: __ZNSt3__120__shared_ptr_emplaceI4MeshNS_9allocatorIS1_EEEC2B8ue170006IJRNS_10shared_ptrI11VertexArrayEEP8MaterialEEES3_DpOT_, symObjAddr: 0xBC50, symBinAddr: 0x10007865C, symSize: 0x338 }
  - { offsetInCU: 0x9DA8, offset: 0x6EEF8, size: 0x8, addend: 0x0, symName: __ZNSt3__120__shared_ptr_emplaceI4MeshNS_9allocatorIS1_EEE8_StorageC1B8ue170006EOS3_, symObjAddr: 0xC058, symBinAddr: 0x100078994, symSize: 0x34 }
  - { offsetInCU: 0x9DDF, offset: 0x6EF2F, size: 0x8, addend: 0x0, symName: __ZNSt3__120__shared_ptr_emplaceI4MeshNS_9allocatorIS1_EEE8_StorageD1B8ue170006Ev, symObjAddr: 0xC08C, symBinAddr: 0x1000789C8, symSize: 0x2C }
  - { offsetInCU: 0x9E07, offset: 0x6EF57, size: 0x8, addend: 0x0, symName: __ZNSt3__120__shared_ptr_emplaceI4MeshNS_9allocatorIS1_EEED1Ev, symObjAddr: 0xC0B8, symBinAddr: 0x1000789F4, symSize: 0x2C }
  - { offsetInCU: 0x9E33, offset: 0x6EF83, size: 0x8, addend: 0x0, symName: __ZNSt3__120__shared_ptr_emplaceI4MeshNS_9allocatorIS1_EEED0Ev, symObjAddr: 0xC0E4, symBinAddr: 0x100078A20, symSize: 0x30 }
  - { offsetInCU: 0x9E5F, offset: 0x6EFAF, size: 0x8, addend: 0x0, symName: __ZNSt3__120__shared_ptr_emplaceI4MeshNS_9allocatorIS1_EEE16__on_zero_sharedEv, symObjAddr: 0xC114, symBinAddr: 0x100078A50, symSize: 0x28 }
  - { offsetInCU: 0x9E83, offset: 0x6EFD3, size: 0x8, addend: 0x0, symName: __ZNSt3__120__shared_ptr_emplaceI4MeshNS_9allocatorIS1_EEE21__on_zero_shared_weakEv, symObjAddr: 0xC13C, symBinAddr: 0x100078A78, symSize: 0x208 }
  - { offsetInCU: 0x9EC8, offset: 0x6F018, size: 0x8, addend: 0x0, symName: __ZNSt3__120__shared_ptr_emplaceI4MeshNS_9allocatorIS1_EEE8_StorageC2B8ue170006EOS3_, symObjAddr: 0xC404, symBinAddr: 0x100078C80, symSize: 0x30 }
  - { offsetInCU: 0x9EFF, offset: 0x6F04F, size: 0x8, addend: 0x0, symName: __ZNSt3__120__shared_ptr_emplaceI4MeshNS_9allocatorIS1_EEE8_Storage11__get_allocB8ue170006Ev, symObjAddr: 0xC434, symBinAddr: 0x100078CB0, symSize: 0x3C }
  - { offsetInCU: 0x9F53, offset: 0x6F0A3, size: 0x8, addend: 0x0, symName: __ZNSt3__117__compressed_pairINS_9allocatorI4MeshEES2_E16__get_first_baseB8ue170006EPS4_, symObjAddr: 0xC470, symBinAddr: 0x100078CEC, symSize: 0x14 }
  - { offsetInCU: 0x9F76, offset: 0x6F0C6, size: 0x8, addend: 0x0, symName: __ZNSt3__120__shared_ptr_emplaceI4MeshNS_9allocatorIS1_EEE8_StorageD2B8ue170006Ev, symObjAddr: 0xC484, symBinAddr: 0x100078D00, symSize: 0x2C }
  - { offsetInCU: 0x9F9E, offset: 0x6F0EE, size: 0x8, addend: 0x0, symName: __ZNSt3__120__shared_ptr_emplaceI4MeshNS_9allocatorIS1_EEED2Ev, symObjAddr: 0xC4B0, symBinAddr: 0x100078D2C, symSize: 0x88 }
  - { offsetInCU: 0x9FCA, offset: 0x6F11A, size: 0x8, addend: 0x0, symName: __ZNSt3__120__shared_ptr_emplaceI4MeshNS_9allocatorIS1_EEE11__get_allocB8ue170006Ev, symObjAddr: 0xC5B0, symBinAddr: 0x100078DB4, symSize: 0x28 }
  - { offsetInCU: 0x9FEE, offset: 0x6F13E, size: 0x8, addend: 0x0, symName: __ZNSt3__116allocator_traitsINS_9allocatorINS_20__shared_ptr_emplaceI4MeshNS1_IS3_EEEEEEE10deallocateB8ue170006ERS6_PS5_m, symObjAddr: 0xC5D8, symBinAddr: 0x100078DDC, symSize: 0x34 }
  - { offsetInCU: 0xA030, offset: 0x6F180, size: 0x8, addend: 0x0, symName: __ZNSt3__114pointer_traitsIPNS_20__shared_ptr_emplaceI4MeshNS_9allocatorIS2_EEEEE10pointer_toB8ue170006ERS5_, symObjAddr: 0xC60C, symBinAddr: 0x100078E10, symSize: 0x14 }
  - { offsetInCU: 0xA053, offset: 0x6F1A3, size: 0x8, addend: 0x0, symName: __ZNSt3__19allocatorINS_20__shared_ptr_emplaceI4MeshNS0_IS2_EEEEE10deallocateB8ue170006EPS4_m, symObjAddr: 0xC620, symBinAddr: 0x100078E24, symSize: 0x4C }
  - { offsetInCU: 0xA093, offset: 0x6F1E3, size: 0x8, addend: 0x0, symName: __ZNSt3__110shared_ptrI4MeshEC1B8ue170006Ev, symObjAddr: 0xC66C, symBinAddr: 0x100078E70, symSize: 0x2C }
  - { offsetInCU: 0xA0BB, offset: 0x6F20B, size: 0x8, addend: 0x0, symName: __ZNSt3__110shared_ptrI4MeshE18__enable_weak_thisB8ue170006Ez, symObjAddr: 0xC698, symBinAddr: 0x100078E9C, symSize: 0x10 }
  - { offsetInCU: 0xA0E0, offset: 0x6F230, size: 0x8, addend: 0x0, symName: __ZNSt3__110shared_ptrI4MeshEC2B8ue170006Ev, symObjAddr: 0xC6A8, symBinAddr: 0x100078EAC, symSize: 0x9C }
  - { offsetInCU: 0xA108, offset: 0x6F258, size: 0x8, addend: 0x0, symName: __ZNSt3__120__shared_ptr_emplaceI4MeshNS_9allocatorIS1_EEE8_Storage10__get_elemB8ue170006Ev, symObjAddr: 0xC744, symBinAddr: 0x100078F48, symSize: 0x3C }
  - { offsetInCU: 0xA15C, offset: 0x6F2AC, size: 0x8, addend: 0x0, symName: __ZNSt3__117__compressed_pairINS_9allocatorI4MeshEES2_E17__get_second_baseB8ue170006EPS4_, symObjAddr: 0xC780, symBinAddr: 0x100078F84, symSize: 0x14 }
  - { offsetInCU: 0xA17F, offset: 0x6F2CF, size: 0x8, addend: 0x0, symName: __ZNSt3__118__allocation_guardINS_9allocatorINS_20__shared_ptr_emplaceI4MeshNS1_IS3_EEEEEEED2B8ue170006Ev, symObjAddr: 0xC794, symBinAddr: 0x100078F98, symSize: 0x2C }
  - { offsetInCU: 0xA1A7, offset: 0x6F2F7, size: 0x8, addend: 0x0, symName: __ZNSt3__118__allocation_guardINS_9allocatorINS_20__shared_ptr_emplaceI4MeshNS1_IS3_EEEEEEE9__destroyB8ue170006Ev, symObjAddr: 0xC7C0, symBinAddr: 0x100078FC4, symSize: 0xFC }
  - { offsetInCU: 0xA1CB, offset: 0x6F31B, size: 0x8, addend: 0x0, symName: __ZNSt3__110shared_ptrI4MeshEC1B8ue170006EOS2_, symObjAddr: 0xC8FC, symBinAddr: 0x1000790C0, symSize: 0x34 }
  - { offsetInCU: 0xA202, offset: 0x6F352, size: 0x8, addend: 0x0, symName: __ZNSt3__110shared_ptrI4MeshE4swapB8ue170006ERS2_, symObjAddr: 0xC930, symBinAddr: 0x1000790F4, symSize: 0x44 }
  - { offsetInCU: 0xA235, offset: 0x6F385, size: 0x8, addend: 0x0, symName: __ZNSt3__110shared_ptrI4MeshEC2B8ue170006EOS2_, symObjAddr: 0xC974, symBinAddr: 0x100079138, symSize: 0x1B8 }
  - { offsetInCU: 0xA285, offset: 0x6F3D5, size: 0x8, addend: 0x0, symName: __ZNSt3__110shared_ptrI11CubeTextureEC1B8ue170006EOS2_, symObjAddr: 0x12030, symBinAddr: 0x1000792F0, symSize: 0x34 }
  - { offsetInCU: 0xA2BC, offset: 0x6F40C, size: 0x8, addend: 0x0, symName: __ZNSt3__110shared_ptrI11CubeTextureEC2B8ue170006EOS2_, symObjAddr: 0x120A8, symBinAddr: 0x100079324, symSize: 0x1B8 }
  - { offsetInCU: 0xA2F3, offset: 0x6F443, size: 0x8, addend: 0x0, symName: __ZNSt3__114numeric_limitsIfE7epsilonB8ue170006Ev, symObjAddr: 0x12F08, symBinAddr: 0x10007988C, symSize: 0x14 }
  - { offsetInCU: 0xA305, offset: 0x6F455, size: 0x8, addend: 0x0, symName: __Z3tanB8ue170006f, symObjAddr: 0x12F1C, symBinAddr: 0x1000798A0, symSize: 0x24 }
  - { offsetInCU: 0xA334, offset: 0x6F484, size: 0x8, addend: 0x0, symName: __ZN3glm3matILi4ELi4EfLNS_9qualifierE0EEixEi, symObjAddr: 0x12F40, symBinAddr: 0x1000798C4, symSize: 0x7C }
  - { offsetInCU: 0xA36A, offset: 0x6F4BA, size: 0x8, addend: 0x0, symName: __ZN3glm3vecILi4EfLNS_9qualifierE0EEixEi, symObjAddr: 0x12FBC, symBinAddr: 0x100079940, symSize: 0x110 }
  - { offsetInCU: 0xA3A0, offset: 0x6F4F0, size: 0x8, addend: 0x0, symName: __ZN3glm6detail11compute_absIfLb1EE4callEf, symObjAddr: 0x130DC, symBinAddr: 0x100079A60, symSize: 0x44 }
  - { offsetInCU: 0xA3C3, offset: 0x6F513, size: 0x8, addend: 0x0, symName: __ZNSt3__123__libcpp_numeric_limitsIfLb1EE7epsilonB8ue170006Ev, symObjAddr: 0x13120, symBinAddr: 0x100079AA4, symSize: 0x8 }
  - { offsetInCU: 0xA3D7, offset: 0x6F527, size: 0x8, addend: 0x0, symName: __ZN3glm3matILi4ELi4EfLNS_9qualifierE0EE6lengthEv, symObjAddr: 0x13128, symBinAddr: 0x100079AAC, symSize: 0x8 }
  - { offsetInCU: 0xA3EB, offset: 0x6F53B, size: 0x8, addend: 0x0, symName: __ZN3glm3vecILi4EfLNS_9qualifierE0EE6lengthEv, symObjAddr: 0x13130, symBinAddr: 0x100079AB4, symSize: 0x8 }
  - { offsetInCU: 0xA3FF, offset: 0x6F54F, size: 0x8, addend: 0x0, symName: __ZN3glm6detail17compute_normalizeILi3EfLNS_9qualifierE0ELb0EE4callERKNS_3vecILi3EfLS2_0EEE, symObjAddr: 0x15240, symBinAddr: 0x10007BBC4, symSize: 0x3E0 }
  - { offsetInCU: 0xA422, offset: 0x6F572, size: 0x8, addend: 0x0, symName: __Z4sqrtB8ue170006f, symObjAddr: 0x15A40, symBinAddr: 0x10007BFD4, symSize: 0x18 }
  - { offsetInCU: 0xA452, offset: 0x6F5A2, size: 0x8, addend: 0x0, symName: __ZN3glm6detail13compute_crossIfLNS_9qualifierE0ELb0EE4callERKNS_3vecILi3EfLS2_0EEES7_, symObjAddr: 0x15A58, symBinAddr: 0x10007BFEC, symSize: 0x7D4 }
  - { offsetInCU: 0xA485, offset: 0x6F5D5, size: 0x8, addend: 0x0, symName: __ZN3glm6detail11compute_dotINS_3vecILi3EfLNS_9qualifierE0EEEfLb0EE4callERKS4_S7_, symObjAddr: 0x1622C, symBinAddr: 0x10007C7C0, symSize: 0x450 }
  - { offsetInCU: 0x3B, offset: 0x6F6B5, size: 0x8, addend: 0x0, symName: _.str, symObjAddr: 0x51E0, symBinAddr: 0x100491CC0, symSize: 0x0 }
  - { offsetInCU: 0x6C, offset: 0x6F6E6, size: 0x8, addend: 0x0, symName: _.str.1, symObjAddr: 0x5260, symBinAddr: 0x100491D40, symSize: 0x0 }
  - { offsetInCU: 0x8A, offset: 0x6F704, size: 0x8, addend: 0x0, symName: _.str.2, symObjAddr: 0x52E0, symBinAddr: 0x100491DC0, symSize: 0x0 }
  - { offsetInCU: 0xA8, offset: 0x6F722, size: 0x8, addend: 0x0, symName: _.str.3, symObjAddr: 0x5320, symBinAddr: 0x100491E00, symSize: 0x0 }
  - { offsetInCU: 0xC6, offset: 0x6F740, size: 0x8, addend: 0x0, symName: _.str.4, symObjAddr: 0x5360, symBinAddr: 0x100491E40, symSize: 0x0 }
  - { offsetInCU: 0xE4, offset: 0x6F75E, size: 0x8, addend: 0x0, symName: _.str.5, symObjAddr: 0x53A0, symBinAddr: 0x100491E80, symSize: 0x0 }
  - { offsetInCU: 0x102, offset: 0x6F77C, size: 0x8, addend: 0x0, symName: _.str.6, symObjAddr: 0x53E0, symBinAddr: 0x100491EC0, symSize: 0x0 }
  - { offsetInCU: 0x120, offset: 0x6F79A, size: 0x8, addend: 0x0, symName: _.str.7, symObjAddr: 0x5400, symBinAddr: 0x100491EE0, symSize: 0x0 }
  - { offsetInCU: 0x132, offset: 0x6F7AC, size: 0x8, addend: 0x0, symName: _.str.8, symObjAddr: 0x5420, symBinAddr: 0x100491F00, symSize: 0x0 }
  - { offsetInCU: 0x144, offset: 0x6F7BE, size: 0x8, addend: 0x0, symName: _.str.9, symObjAddr: 0x5440, symBinAddr: 0x100491F20, symSize: 0x0 }
  - { offsetInCU: 0x4CA2, offset: 0x7431C, size: 0x8, addend: 0x0, symName: __ZN6WindowC2ENSt3__112basic_stringIcNS0_11char_traitsIcEENS0_9allocatorIcEEEEtt, symObjAddr: 0x0, symBinAddr: 0x10007D1D8, symSize: 0x988 }
  - { offsetInCU: 0x4CFD, offset: 0x74377, size: 0x8, addend: 0x0, symName: __ZN11WindowPropsC1Ev, symObjAddr: 0x988, symBinAddr: 0x10007DB60, symSize: 0x2C }
  - { offsetInCU: 0x4D80, offset: 0x743FA, size: 0x8, addend: 0x0, symName: __ZN13OpenGLContextC1EP6Window, symObjAddr: 0xA40, symBinAddr: 0x10007DB8C, symSize: 0x34 }
  - { offsetInCU: 0x4DB7, offset: 0x74431, size: 0x8, addend: 0x0, symName: __ZL15on_key_callbackP10GLFWwindowiiii, symObjAddr: 0xBE0, symBinAddr: 0x10007DBC0, symSize: 0x204 }
  - { offsetInCU: 0x4E26, offset: 0x744A0, size: 0x8, addend: 0x0, symName: __ZL22on_mouse_move_callbackP10GLFWwindowdd, symObjAddr: 0xDE4, symBinAddr: 0x10007DDC4, symSize: 0x8AC }
  - { offsetInCU: 0x4EAD, offset: 0x74527, size: 0x8, addend: 0x0, symName: __ZL25on_window_resize_callbackP10GLFWwindowii, symObjAddr: 0x1690, symBinAddr: 0x10007E670, symSize: 0x504 }
  - { offsetInCU: 0x4F25, offset: 0x7459F, size: 0x8, addend: 0x0, symName: __ZL24on_window_close_callbackP10GLFWwindow, symObjAddr: 0x1B94, symBinAddr: 0x10007EB74, symSize: 0x38 }
  - { offsetInCU: 0x4F5B, offset: 0x745D5, size: 0x8, addend: 0x0, symName: __ZN6WindowC1ENSt3__112basic_stringIcNS0_11char_traitsIcEENS0_9allocatorIcEEEEtt, symObjAddr: 0x1BF8, symBinAddr: 0x10007EBAC, symSize: 0x44 }
  - { offsetInCU: 0x4FB2, offset: 0x7462C, size: 0x8, addend: 0x0, symName: __ZN6Window9PreRenderEv, symObjAddr: 0x1C3C, symBinAddr: 0x10007EBF0, symSize: 0x350 }
  - { offsetInCU: 0x4FEB, offset: 0x74665, size: 0x8, addend: 0x0, symName: __ZN6Window10PostRenderEv, symObjAddr: 0x1F8C, symBinAddr: 0x10007EF40, symSize: 0x1E8 }
  - { offsetInCU: 0x5011, offset: 0x7468B, size: 0x8, addend: 0x0, symName: __ZN6Window12HandleResizeEjj, symObjAddr: 0x2174, symBinAddr: 0x10007F128, symSize: 0x104 }
  - { offsetInCU: 0x5052, offset: 0x746CC, size: 0x8, addend: 0x0, symName: __ZN11WindowPropsC2Ev, symObjAddr: 0x2278, symBinAddr: 0x10007F22C, symSize: 0x2DC }
  - { offsetInCU: 0x507D, offset: 0x746F7, size: 0x8, addend: 0x0, symName: __ZNSt3__112basic_stringIcNS_11char_traitsIcEENS_9allocatorIcEEEC1B8ue170006Ev, symObjAddr: 0x2554, symBinAddr: 0x10007F508, symSize: 0x2C }
  - { offsetInCU: 0x50A5, offset: 0x7471F, size: 0x8, addend: 0x0, symName: __ZNSt3__112basic_stringIcNS_11char_traitsIcEENS_9allocatorIcEEEC2B8ue170006Ev, symObjAddr: 0x2580, symBinAddr: 0x10007F534, symSize: 0x20C }
  - { offsetInCU: 0x50CE, offset: 0x74748, size: 0x8, addend: 0x0, symName: __ZN13OpenGLContextC2EP6Window, symObjAddr: 0x2AF4, symBinAddr: 0x10007F740, symSize: 0xCC }
  - { offsetInCU: 0x5104, offset: 0x7477E, size: 0x8, addend: 0x0, symName: __ZN15GraphicsContextC2Ev, symObjAddr: 0x2BC0, symBinAddr: 0x10007F80C, symSize: 0x74 }
  - { offsetInCU: 0x512F, offset: 0x747A9, size: 0x8, addend: 0x0, symName: __ZN6Window9SetStatusEb, symObjAddr: 0x2C34, symBinAddr: 0x10007F880, symSize: 0xA4 }
  - { offsetInCU: 0x539C, offset: 0x74A16, size: 0x8, addend: 0x0, symName: __ZNK3App14GetFrameBufferEv, symObjAddr: 0x2E38, symBinAddr: 0x10007F924, symSize: 0x18 }
  - { offsetInCU: 0x3C, offset: 0x74A89, size: 0x8, addend: 0x0, symName: _.str, symObjAddr: 0x6BC0, symBinAddr: 0x100491FC0, symSize: 0x0 }
  - { offsetInCU: 0x1A07, offset: 0x76454, size: 0x8, addend: 0x0, symName: __ZNSt3__122__make_exception_guardB8ue170006INS_6vectorI6VertexNS_9allocatorIS2_EEE16__destroy_vectorEEENS_28__exception_guard_exceptionsIT_EES8_, symObjAddr: 0x17A0, symBinAddr: 0x100080FC8, symSize: 0x278 }
  - { offsetInCU: 0x1A40, offset: 0x7648D, size: 0x8, addend: 0x0, symName: __ZNSt3__130__uninitialized_allocator_copyB8ue170006INS_9allocatorI6VertexEEPS2_S4_S4_EET2_RT_T0_T1_S5_, symObjAddr: 0x36B0, symBinAddr: 0x100081F34, symSize: 0x2DC }
  - { offsetInCU: 0x1AE8, offset: 0x76535, size: 0x8, addend: 0x0, symName: __ZNSt3__114__unwrap_rangeB8ue170006IP6VertexS2_EENS_4pairIT0_S4_EET_S6_, symObjAddr: 0x3C60, symBinAddr: 0x100082210, symSize: 0x350 }
  - { offsetInCU: 0x1B36, offset: 0x76583, size: 0x8, addend: 0x0, symName: __ZNSt3__135__uninitialized_allocator_copy_implB8ue170006INS_9allocatorI6VertexEES2_S2_S2_LPv0EEEPT2_RT_PT0_SA_S6_, symObjAddr: 0x3FB0, symBinAddr: 0x100082560, symSize: 0x38 }
  - { offsetInCU: 0x1BB9, offset: 0x76606, size: 0x8, addend: 0x0, symName: __ZNSt3__113__unwrap_iterB8ue170006IP6VertexNS_18__unwrap_iter_implIS2_Lb1EEELi0EEEDTclsrT0_8__unwrapclsr3stdE7declvalIT_EEEES6_, symObjAddr: 0x3FE8, symBinAddr: 0x100082598, symSize: 0x24 }
  - { offsetInCU: 0x1BFE, offset: 0x7664B, size: 0x8, addend: 0x0, symName: __ZNSt3__113__rewrap_iterB8ue170006IP6VertexS2_NS_18__unwrap_iter_implIS2_Lb1EEEEET_S5_T0_, symObjAddr: 0x400C, symBinAddr: 0x1000825BC, symSize: 0x48 }
  - { offsetInCU: 0x1C53, offset: 0x766A0, size: 0x8, addend: 0x0, symName: __ZNSt3__19make_pairB8ue170006IP6VertexS2_EENS_4pairINS_18__unwrap_ref_decayIT_E4typeENS4_IT0_E4typeEEEOS5_OS8_, symObjAddr: 0x4054, symBinAddr: 0x100082604, symSize: 0x20C }
  - { offsetInCU: 0x1DA9, offset: 0x767F6, size: 0x8, addend: 0x0, symName: __ZNSt3__14copyB8ue170006IP6VertexS2_EET0_T_S4_S3_, symObjAddr: 0x43D4, symBinAddr: 0x100082984, symSize: 0x26C }
  - { offsetInCU: 0x1E06, offset: 0x76853, size: 0x8, addend: 0x0, symName: __ZNSt3__16__copyB8ue170006INS_17_ClassicAlgPolicyEP6VertexS3_S3_EENS_4pairIT0_T2_EES5_T1_S6_, symObjAddr: 0x4640, symBinAddr: 0x100082BF0, symSize: 0x22C }
  - { offsetInCU: 0x1E75, offset: 0x768C2, size: 0x8, addend: 0x0, symName: __ZNSt3__123__dispatch_copy_or_moveB8ue170006INS_17_ClassicAlgPolicyENS_11__copy_loopIS1_EENS_14__copy_trivialEP6VertexS6_S6_EENS_4pairIT2_T4_EES8_T3_S9_, symObjAddr: 0x486C, symBinAddr: 0x100082E1C, symSize: 0x22C }
  - { offsetInCU: 0x1EF6, offset: 0x76943, size: 0x8, addend: 0x0, symName: __ZNSt3__121__unwrap_and_dispatchB8ue170006INS_10__overloadINS_11__copy_loopINS_17_ClassicAlgPolicyEEENS_14__copy_trivialEEEP6VertexS8_S8_Li0EEENS_4pairIT0_T2_EESA_T1_SB_, symObjAddr: 0x4A98, symBinAddr: 0x100083048, symSize: 0x5A4 }
  - { offsetInCU: 0x1FD7, offset: 0x76A24, size: 0x8, addend: 0x0, symName: __ZNSt3__114__rewrap_rangeB8ue170006IP6VertexS2_EET_S3_T0_, symObjAddr: 0x526C, symBinAddr: 0x10008381C, symSize: 0x2C }
  - { offsetInCU: 0x2023, offset: 0x76A70, size: 0x8, addend: 0x0, symName: __ZNSt3__119__copy_trivial_implB8ue170006I6VertexS1_EENS_4pairIPT_PT0_EES4_S4_S6_, symObjAddr: 0x5298, symBinAddr: 0x100083848, symSize: 0x3B4 }
  - { offsetInCU: 0x2092, offset: 0x76ADF, size: 0x8, addend: 0x0, symName: __ZNSt3__119__constexpr_memmoveB8ue170006I6VertexS1_Li0EEEPT_S3_PT0_NS_15__element_countE, symObjAddr: 0x564C, symBinAddr: 0x100083BFC, symSize: 0x64 }
  - { offsetInCU: 0x2101, offset: 0x76B4E, size: 0x8, addend: 0x0, symName: __ZNSt3__19make_pairB8ue170006IRP6VertexS2_EENS_4pairINS_18__unwrap_ref_decayIT_E4typeENS5_IT0_E4typeEEEOS6_OS9_, symObjAddr: 0x56B0, symBinAddr: 0x100083C60, symSize: 0x20C }
  - { offsetInCU: 0x421F, offset: 0x78C6C, size: 0x8, addend: 0x0, symName: __ZN18OpenGLVertexBufferC2ERNSt3__16vectorI6VertexNS0_9allocatorIS2_EEEEj, symObjAddr: 0x0, symBinAddr: 0x10007F9D4, symSize: 0x2E8 }
  - { offsetInCU: 0x4266, offset: 0x78CB3, size: 0x8, addend: 0x0, symName: __ZN12VertexBufferC2Ev, symObjAddr: 0x2E8, symBinAddr: 0x10007FCBC, symSize: 0x74 }
  - { offsetInCU: 0x4291, offset: 0x78CDE, size: 0x8, addend: 0x0, symName: __ZNSt3__16vectorI6VertexNS_9allocatorIS1_EEEC1ERKS4_, symObjAddr: 0x35C, symBinAddr: 0x10007FD30, symSize: 0x34 }
  - { offsetInCU: 0x42CB, offset: 0x78D18, size: 0x8, addend: 0x0, symName: __ZNSt3__16vectorI6VertexNS_9allocatorIS1_EEE4dataB8ue170006Ev, symObjAddr: 0x390, symBinAddr: 0x10007FD64, symSize: 0x64 }
  - { offsetInCU: 0x42EF, offset: 0x78D3C, size: 0x8, addend: 0x0, symName: __ZN12VertexBufferD2Ev, symObjAddr: 0x420, symBinAddr: 0x10007FDC8, symSize: 0x14 }
  - { offsetInCU: 0x4318, offset: 0x78D65, size: 0x8, addend: 0x0, symName: __ZN18OpenGLVertexBufferC1ERNSt3__16vectorI6VertexNS0_9allocatorIS2_EEEEj, symObjAddr: 0x434, symBinAddr: 0x10007FDDC, symSize: 0x3C }
  - { offsetInCU: 0x435F, offset: 0x78DAC, size: 0x8, addend: 0x0, symName: __ZNK18OpenGLVertexBuffer4BindEv, symObjAddr: 0x470, symBinAddr: 0x10007FE18, symSize: 0xE4 }
  - { offsetInCU: 0x4385, offset: 0x78DD2, size: 0x8, addend: 0x0, symName: __ZNK18OpenGLVertexBuffer6UnbindEv, symObjAddr: 0x554, symBinAddr: 0x10007FEFC, symSize: 0x70 }
  - { offsetInCU: 0x43AB, offset: 0x78DF8, size: 0x8, addend: 0x0, symName: __ZN18OpenGLVertexBufferD2Ev, symObjAddr: 0x5C4, symBinAddr: 0x10007FF6C, symSize: 0xF8 }
  - { offsetInCU: 0x43D6, offset: 0x78E23, size: 0x8, addend: 0x0, symName: __ZN18OpenGLVertexBufferD1Ev, symObjAddr: 0x6C8, symBinAddr: 0x100080064, symSize: 0x2C }
  - { offsetInCU: 0x4401, offset: 0x78E4E, size: 0x8, addend: 0x0, symName: __ZN18OpenGLVertexBufferD0Ev, symObjAddr: 0x6F4, symBinAddr: 0x100080090, symSize: 0x30 }
  - { offsetInCU: 0x45C0, offset: 0x7900D, size: 0x8, addend: 0x0, symName: __ZN17OpenGLIndexBufferC2EPjj, symObjAddr: 0x724, symBinAddr: 0x1000800C0, symSize: 0x294 }
  - { offsetInCU: 0x4607, offset: 0x79054, size: 0x8, addend: 0x0, symName: __ZN11IndexBufferC2Ev, symObjAddr: 0x9B8, symBinAddr: 0x100080354, symSize: 0x74 }
  - { offsetInCU: 0x4632, offset: 0x7907F, size: 0x8, addend: 0x0, symName: __ZN11IndexBufferD2Ev, symObjAddr: 0xA2C, symBinAddr: 0x1000803C8, symSize: 0x14 }
  - { offsetInCU: 0x465B, offset: 0x790A8, size: 0x8, addend: 0x0, symName: __ZN17OpenGLIndexBufferC1EPjj, symObjAddr: 0xA40, symBinAddr: 0x1000803DC, symSize: 0x3C }
  - { offsetInCU: 0x46A2, offset: 0x790EF, size: 0x8, addend: 0x0, symName: __ZNK17OpenGLIndexBuffer4BindEv, symObjAddr: 0xA7C, symBinAddr: 0x100080418, symSize: 0xE4 }
  - { offsetInCU: 0x46C8, offset: 0x79115, size: 0x8, addend: 0x0, symName: __ZNK17OpenGLIndexBuffer6UnbindEv, symObjAddr: 0xB60, symBinAddr: 0x1000804FC, symSize: 0x70 }
  - { offsetInCU: 0x46EE, offset: 0x7913B, size: 0x8, addend: 0x0, symName: __ZN17OpenGLIndexBufferD2Ev, symObjAddr: 0xBD0, symBinAddr: 0x10008056C, symSize: 0xEC }
  - { offsetInCU: 0x4719, offset: 0x79166, size: 0x8, addend: 0x0, symName: __ZN17OpenGLIndexBufferD1Ev, symObjAddr: 0xCBC, symBinAddr: 0x100080658, symSize: 0x2C }
  - { offsetInCU: 0x4744, offset: 0x79191, size: 0x8, addend: 0x0, symName: __ZN17OpenGLIndexBufferD0Ev, symObjAddr: 0xCE8, symBinAddr: 0x100080684, symSize: 0x30 }
  - { offsetInCU: 0x476F, offset: 0x791BC, size: 0x8, addend: 0x0, symName: __ZNK18OpenGLVertexBuffer14GetNumVerticesEv, symObjAddr: 0xD18, symBinAddr: 0x1000806B4, symSize: 0x8C }
  - { offsetInCU: 0x4793, offset: 0x791E0, size: 0x8, addend: 0x0, symName: __ZNK17OpenGLIndexBuffer8GetCountEv, symObjAddr: 0xDA4, symBinAddr: 0x100080740, symSize: 0x8C }
  - { offsetInCU: 0x47B7, offset: 0x79204, size: 0x8, addend: 0x0, symName: __ZN12VertexBufferD1Ev, symObjAddr: 0xE30, symBinAddr: 0x1000807CC, symSize: 0x20 }
  - { offsetInCU: 0x47DF, offset: 0x7922C, size: 0x8, addend: 0x0, symName: __ZN12VertexBufferD0Ev, symObjAddr: 0xE50, symBinAddr: 0x1000807EC, symSize: 0x18 }
  - { offsetInCU: 0x4807, offset: 0x79254, size: 0x8, addend: 0x0, symName: __ZN11IndexBufferD1Ev, symObjAddr: 0xE68, symBinAddr: 0x100080804, symSize: 0x20 }
  - { offsetInCU: 0x482F, offset: 0x7927C, size: 0x8, addend: 0x0, symName: __ZN11IndexBufferD0Ev, symObjAddr: 0xE88, symBinAddr: 0x100080824, symSize: 0x18 }
  - { offsetInCU: 0x4857, offset: 0x792A4, size: 0x8, addend: 0x0, symName: __ZNSt3__16vectorI6VertexNS_9allocatorIS1_EEEC2ERKS4_, symObjAddr: 0xEA0, symBinAddr: 0x10008083C, symSize: 0x388 }
  - { offsetInCU: 0x489E, offset: 0x792EB, size: 0x8, addend: 0x0, symName: __ZNSt3__116allocator_traitsINS_9allocatorI6VertexEEE37select_on_container_copy_constructionB8ue170006IS3_vvEES3_RKS3_, symObjAddr: 0x1228, symBinAddr: 0x100080BC4, symSize: 0x10 }
  - { offsetInCU: 0x48D6, offset: 0x79323, size: 0x8, addend: 0x0, symName: __ZNSt3__117__compressed_pairIP6VertexNS_9allocatorIS1_EEEC1B8ue170006IDnS4_EEOT_OT0_, symObjAddr: 0x1260, symBinAddr: 0x100080BD4, symSize: 0x3C }
  - { offsetInCU: 0x492C, offset: 0x79379, size: 0x8, addend: 0x0, symName: __ZNSt3__16vectorI6VertexNS_9allocatorIS1_EEE16__init_with_sizeB8ue170006IPS1_S6_EEvT_T0_m, symObjAddr: 0x129C, symBinAddr: 0x100080C10, symSize: 0x35C }
  - { offsetInCU: 0x49A7, offset: 0x793F4, size: 0x8, addend: 0x0, symName: __ZNSt3__117__compressed_pairIP6VertexNS_9allocatorIS1_EEEC2B8ue170006IDnS4_EEOT_OT0_, symObjAddr: 0x16E0, symBinAddr: 0x100080F6C, symSize: 0x44 }
  - { offsetInCU: 0x49FD, offset: 0x7944A, size: 0x8, addend: 0x0, symName: __ZNSt3__122__compressed_pair_elemINS_9allocatorI6VertexEELi1ELb1EEC2B8ue170006IS3_vEEOT_, symObjAddr: 0x1788, symBinAddr: 0x100080FB0, symSize: 0x18 }
  - { offsetInCU: 0x4A3E, offset: 0x7948B, size: 0x8, addend: 0x0, symName: __ZNSt3__16vectorI6VertexNS_9allocatorIS1_EEE11__vallocateB8ue170006Em, symObjAddr: 0x1A4C, symBinAddr: 0x100081240, symSize: 0x420 }
  - { offsetInCU: 0x4A88, offset: 0x794D5, size: 0x8, addend: 0x0, symName: __ZNSt3__16vectorI6VertexNS_9allocatorIS1_EEE18__construct_at_endIPS1_S6_EEvT_T0_m, symObjAddr: 0x1E6C, symBinAddr: 0x100081660, symSize: 0x380 }
  - { offsetInCU: 0x4B04, offset: 0x79551, size: 0x8, addend: 0x0, symName: __ZNSt3__128__exception_guard_exceptionsINS_6vectorI6VertexNS_9allocatorIS2_EEE16__destroy_vectorEE10__completeB8ue170006Ev, symObjAddr: 0x21EC, symBinAddr: 0x1000819E0, symSize: 0x8C }
  - { offsetInCU: 0x4B28, offset: 0x79575, size: 0x8, addend: 0x0, symName: __ZNSt3__128__exception_guard_exceptionsINS_6vectorI6VertexNS_9allocatorIS2_EEE16__destroy_vectorEED1B8ue170006Ev, symObjAddr: 0x2278, symBinAddr: 0x100081A6C, symSize: 0x2C }
  - { offsetInCU: 0x4B50, offset: 0x7959D, size: 0x8, addend: 0x0, symName: __ZNSt3__128__exception_guard_exceptionsINS_6vectorI6VertexNS_9allocatorIS2_EEE16__destroy_vectorEEC1B8ue170006ES6_, symObjAddr: 0x22A4, symBinAddr: 0x100081A98, symSize: 0x238 }
  - { offsetInCU: 0x4B8B, offset: 0x795D8, size: 0x8, addend: 0x0, symName: __ZNSt3__128__exception_guard_exceptionsINS_6vectorI6VertexNS_9allocatorIS2_EEE16__destroy_vectorEEC2B8ue170006ES6_, symObjAddr: 0x24DC, symBinAddr: 0x100081CD0, symSize: 0x264 }
  - { offsetInCU: 0x4BFD, offset: 0x7964A, size: 0x8, addend: 0x0, symName: __ZNSt3__14pairIP6VertexS2_EC1B8ue170006IS2_S2_LPv0EEEOT_OT0_, symObjAddr: 0x4260, symBinAddr: 0x100082810, symSize: 0x3C }
  - { offsetInCU: 0x4C5A, offset: 0x796A7, size: 0x8, addend: 0x0, symName: __ZNSt3__14pairIP6VertexS2_EC2B8ue170006IS2_S2_LPv0EEEOT_OT0_, symObjAddr: 0x429C, symBinAddr: 0x10008284C, symSize: 0x138 }
  - { offsetInCU: 0x4CC1, offset: 0x7970E, size: 0x8, addend: 0x0, symName: __ZNKSt3__114__copy_trivialclB8ue170006I6VertexS2_Li0EEENS_4pairIPT_PT0_EES5_S5_S7_, symObjAddr: 0x503C, symBinAddr: 0x1000835EC, symSize: 0x230 }
  - { offsetInCU: 0x4D2C, offset: 0x79779, size: 0x8, addend: 0x0, symName: __ZNSt3__14pairIP6VertexS2_EC1B8ue170006IRS2_S2_LPv0EEEOT_OT0_, symObjAddr: 0x58BC, symBinAddr: 0x100083E6C, symSize: 0x3C }
  - { offsetInCU: 0x4D89, offset: 0x797D6, size: 0x8, addend: 0x0, symName: __ZNSt3__14pairIP6VertexS2_EC2B8ue170006IRS2_S2_LPv0EEEOT_OT0_, symObjAddr: 0x58F8, symBinAddr: 0x100083EA8, symSize: 0x138 }
  - { offsetInCU: 0x4DE7, offset: 0x79834, size: 0x8, addend: 0x0, symName: __ZNSt3__118__unwrap_iter_implIP6VertexLb1EE8__unwrapB8ue170006ES2_, symObjAddr: 0x5A30, symBinAddr: 0x100083FE0, symSize: 0x24 }
  - { offsetInCU: 0x4E0A, offset: 0x79857, size: 0x8, addend: 0x0, symName: __ZNSt3__118__unwrap_iter_implIP6VertexLb1EE8__rewrapB8ue170006ES2_S2_, symObjAddr: 0x5A54, symBinAddr: 0x100084004, symSize: 0x50 }
  - { offsetInCU: 0x4E3A, offset: 0x79887, size: 0x8, addend: 0x0, symName: __ZNSt3__128__exception_guard_exceptionsINS_6vectorI6VertexNS_9allocatorIS2_EEE16__destroy_vectorEED2B8ue170006Ev, symObjAddr: 0x5DE4, symBinAddr: 0x100084054, symSize: 0xBC }
  - { offsetInCU: 0x26, offset: 0x798FD, size: 0x8, addend: 0x0, symName: __ZN13OpenGLContext4InitEv, symObjAddr: 0x0, symBinAddr: 0x1000841A8, symSize: 0x64 }
  - { offsetInCU: 0x4975, offset: 0x7E24C, size: 0x8, addend: 0x0, symName: __ZN13OpenGLContext4InitEv, symObjAddr: 0x0, symBinAddr: 0x1000841A8, symSize: 0x64 }
  - { offsetInCU: 0x3B, offset: 0x7E2B2, size: 0x8, addend: 0x0, symName: _.str, symObjAddr: 0xE320, symBinAddr: 0x100492000, symSize: 0x0 }
  - { offsetInCU: 0x6C, offset: 0x7E2E3, size: 0x8, addend: 0x0, symName: _.str.1, symObjAddr: 0xE380, symBinAddr: 0x100492060, symSize: 0x0 }
  - { offsetInCU: 0x8A, offset: 0x7E301, size: 0x8, addend: 0x0, symName: _.str.2, symObjAddr: 0xE3A0, symBinAddr: 0x100492080, symSize: 0x0 }
  - { offsetInCU: 0xA8, offset: 0x7E31F, size: 0x8, addend: 0x0, symName: _.str.3, symObjAddr: 0xE3E0, symBinAddr: 0x1004920C0, symSize: 0x0 }
  - { offsetInCU: 0xBB, offset: 0x7E332, size: 0x8, addend: 0x0, symName: _.str.4, symObjAddr: 0xE460, symBinAddr: 0x100492140, symSize: 0x0 }
  - { offsetInCU: 0x35F5, offset: 0x8186C, size: 0x8, addend: 0x0, symName: __ZNSt3__14swapB8ue170006IP11VertexArrayEENS_9enable_ifIXaasr21is_move_constructibleIT_EE5valuesr18is_move_assignableIS4_EE5valueEvE4typeERS4_S7_, symObjAddr: 0xBB8C, symBinAddr: 0x100086AA4, symSize: 0x134 }
  - { offsetInCU: 0x41ED, offset: 0x82464, size: 0x8, addend: 0x0, symName: __ZNSt3__14swapB8ue170006IP6ShaderEENS_9enable_ifIXaasr21is_move_constructibleIT_EE5valuesr18is_move_assignableIS4_EE5valueEvE4typeERS4_S7_, symObjAddr: 0xDB64, symBinAddr: 0x1000883BC, symSize: 0x134 }
  - { offsetInCU: 0x6796, offset: 0x84A0D, size: 0x8, addend: 0x0, symName: __ZN17OpenGLFramebufferC2ER17FramebufferConfig15FramebufferTypeb, symObjAddr: 0x0, symBinAddr: 0x1000842A4, symSize: 0x1FC }
  - { offsetInCU: 0x67EB, offset: 0x84A62, size: 0x8, addend: 0x0, symName: __ZN11FramebufferC2Ev, symObjAddr: 0x1FC, symBinAddr: 0x1000844A0, symSize: 0x74 }
  - { offsetInCU: 0x6816, offset: 0x84A8D, size: 0x8, addend: 0x0, symName: __ZNSt3__110shared_ptrI11VertexArrayEC1B8ue170006EDn, symObjAddr: 0x270, symBinAddr: 0x100084514, symSize: 0x34 }
  - { offsetInCU: 0x684A, offset: 0x84AC1, size: 0x8, addend: 0x0, symName: __ZNSt3__110shared_ptrI6ShaderEC1B8ue170006EDn, symObjAddr: 0x2A4, symBinAddr: 0x100084548, symSize: 0x34 }
  - { offsetInCU: 0x687E, offset: 0x84AF5, size: 0x8, addend: 0x0, symName: __ZN17OpenGLFramebuffer14CreateSkeletonEv, symObjAddr: 0x2D8, symBinAddr: 0x10008457C, symSize: 0x4BC }
  - { offsetInCU: 0x68A4, offset: 0x84B1B, size: 0x8, addend: 0x0, symName: __ZN17OpenGLFramebuffer6CreateEv, symObjAddr: 0x794, symBinAddr: 0x100084A38, symSize: 0x958 }
  - { offsetInCU: 0x68CA, offset: 0x84B41, size: 0x8, addend: 0x0, symName: __ZN17OpenGLFramebuffer8InitQuadEv, symObjAddr: 0x10EC, symBinAddr: 0x100085390, symSize: 0x610 }
  - { offsetInCU: 0x6934, offset: 0x84BAB, size: 0x8, addend: 0x0, symName: __ZN17OpenGLFramebufferC1ER17FramebufferConfig15FramebufferTypeb, symObjAddr: 0x1754, symBinAddr: 0x1000859A0, symSize: 0x50 }
  - { offsetInCU: 0x6989, offset: 0x84C00, size: 0x8, addend: 0x0, symName: __ZN17OpenGLFramebufferD2Ev, symObjAddr: 0x17A4, symBinAddr: 0x1000859F0, symSize: 0xFC }
  - { offsetInCU: 0x69B4, offset: 0x84C2B, size: 0x8, addend: 0x0, symName: __ZN17OpenGLFramebufferD1Ev, symObjAddr: 0x18AC, symBinAddr: 0x100085AEC, symSize: 0x2C }
  - { offsetInCU: 0x69DF, offset: 0x84C56, size: 0x8, addend: 0x0, symName: __ZN17OpenGLFramebufferD0Ev, symObjAddr: 0x18D8, symBinAddr: 0x100085B18, symSize: 0x30 }
  - { offsetInCU: 0x6A0A, offset: 0x84C81, size: 0x8, addend: 0x0, symName: __ZNSt3__110shared_ptrI11VertexArrayEaSB8ue170006EOS2_, symObjAddr: 0x1B60, symBinAddr: 0x100085B48, symSize: 0x1F4 }
  - { offsetInCU: 0x6C99, offset: 0x84F10, size: 0x8, addend: 0x0, symName: __ZN12OpenGLShaderC1ENSt3__112basic_stringIcNS0_11char_traitsIcEENS0_9allocatorIcEEEEPKcS8_S8_, symObjAddr: 0x1D88, symBinAddr: 0x100085D3C, symSize: 0x4C }
  - { offsetInCU: 0x6CFF, offset: 0x84F76, size: 0x8, addend: 0x0, symName: __ZNSt3__110shared_ptrI6ShaderEC1B8ue170006I12OpenGLShadervEEPT_, symObjAddr: 0x1DD4, symBinAddr: 0x100085D88, symSize: 0x34 }
  - { offsetInCU: 0x6D40, offset: 0x84FB7, size: 0x8, addend: 0x0, symName: __ZNSt3__110shared_ptrI6ShaderEaSB8ue170006EOS2_, symObjAddr: 0x1E08, symBinAddr: 0x100085DBC, symSize: 0x1F4 }
  - { offsetInCU: 0x6D75, offset: 0x84FEC, size: 0x8, addend: 0x0, symName: __ZN17OpenGLFramebuffer4BindEv, symObjAddr: 0x2028, symBinAddr: 0x100085FB0, symSize: 0x130 }
  - { offsetInCU: 0x6D9B, offset: 0x85012, size: 0x8, addend: 0x0, symName: __ZN17OpenGLFramebuffer6UnbindEv, symObjAddr: 0x2158, symBinAddr: 0x1000860E0, symSize: 0xC0 }
  - { offsetInCU: 0x6DC1, offset: 0x85038, size: 0x8, addend: 0x0, symName: __ZN17OpenGLFramebuffer9SetConfigE17FramebufferConfig, symObjAddr: 0x2218, symBinAddr: 0x1000861A0, symSize: 0x30C }
  - { offsetInCU: 0x6DFA, offset: 0x85071, size: 0x8, addend: 0x0, symName: __ZNK17OpenGLFramebuffer9GetConfigEv, symObjAddr: 0x2524, symBinAddr: 0x1000864AC, symSize: 0x18 }
  - { offsetInCU: 0x6E1E, offset: 0x85095, size: 0x8, addend: 0x0, symName: __ZNK17OpenGLFramebuffer20GetColorAttachmentIDEv, symObjAddr: 0x253C, symBinAddr: 0x1000864C4, symSize: 0x18 }
  - { offsetInCU: 0x6E42, offset: 0x850B9, size: 0x8, addend: 0x0, symName: __ZNK17OpenGLFramebuffer5GetIDEv, symObjAddr: 0x2554, symBinAddr: 0x1000864DC, symSize: 0x18 }
  - { offsetInCU: 0x6E66, offset: 0x850DD, size: 0x8, addend: 0x0, symName: __ZNK17OpenGLFramebuffer14GetVertexArrayEv, symObjAddr: 0x256C, symBinAddr: 0x1000864F4, symSize: 0x3C }
  - { offsetInCU: 0x6E8A, offset: 0x85101, size: 0x8, addend: 0x0, symName: __ZNK17OpenGLFramebuffer9GetShaderEv, symObjAddr: 0x25A8, symBinAddr: 0x100086530, symSize: 0x3C }
  - { offsetInCU: 0x6EAE, offset: 0x85125, size: 0x8, addend: 0x0, symName: __ZNK11Framebuffer14GetVertexArrayEv, symObjAddr: 0x25E4, symBinAddr: 0x10008656C, symSize: 0x38 }
  - { offsetInCU: 0x6ED2, offset: 0x85149, size: 0x8, addend: 0x0, symName: __ZNK11Framebuffer9GetShaderEv, symObjAddr: 0x261C, symBinAddr: 0x1000865A4, symSize: 0x38 }
  - { offsetInCU: 0x6EF6, offset: 0x8516D, size: 0x8, addend: 0x0, symName: __ZNSt3__110shared_ptrI11VertexArrayEC2B8ue170006EDn, symObjAddr: 0x2654, symBinAddr: 0x1000865DC, symSize: 0xA0 }
  - { offsetInCU: 0x6F2A, offset: 0x851A1, size: 0x8, addend: 0x0, symName: __ZNSt3__110shared_ptrI6ShaderEC2B8ue170006EDn, symObjAddr: 0x26F4, symBinAddr: 0x10008667C, symSize: 0xA0 }
  - { offsetInCU: 0x6F5E, offset: 0x851D5, size: 0x8, addend: 0x0, symName: __ZN12OpenGLShaderC2ENSt3__112basic_stringIcNS0_11char_traitsIcEENS0_9allocatorIcEEEEPKcS8_S8_, symObjAddr: 0x2794, symBinAddr: 0x10008671C, symSize: 0x174 }
  - { offsetInCU: 0x6FBF, offset: 0x85236, size: 0x8, addend: 0x0, symName: __ZN6ShaderC2Ev, symObjAddr: 0x2908, symBinAddr: 0x100086890, symSize: 0x80 }
  - { offsetInCU: 0x6FEA, offset: 0x85261, size: 0x8, addend: 0x0, symName: __ZN6ShaderD2Ev, symObjAddr: 0x2988, symBinAddr: 0x100086910, symSize: 0x150 }
  - { offsetInCU: 0x7012, offset: 0x85289, size: 0x8, addend: 0x0, symName: __ZNSt3__110shared_ptrI11VertexArrayE4swapB8ue170006ERS2_, symObjAddr: 0xB990, symBinAddr: 0x100086A60, symSize: 0x44 }
  - { offsetInCU: 0x7045, offset: 0x852BC, size: 0x8, addend: 0x0, symName: __ZNSt3__110shared_ptrI6ShaderEC2B8ue170006I12OpenGLShadervEEPT_, symObjAddr: 0xC004, symBinAddr: 0x100086BD8, symSize: 0x3B8 }
  - { offsetInCU: 0x7139, offset: 0x853B0, size: 0x8, addend: 0x0, symName: __ZNSt3__110unique_ptrI12OpenGLShaderNS_14default_deleteIS1_EEEC1B8ue170006ILb1EvEEPS1_, symObjAddr: 0xC3BC, symBinAddr: 0x100086F90, symSize: 0x34 }
  - { offsetInCU: 0x719D, offset: 0x85414, size: 0x8, addend: 0x0, symName: __ZNSt3__19allocatorI12OpenGLShaderEC1B8ue170006Ev, symObjAddr: 0xC3F0, symBinAddr: 0x100086FC4, symSize: 0x2C }
  - { offsetInCU: 0x7260, offset: 0x854D7, size: 0x8, addend: 0x0, symName: __ZNSt3__120__shared_ptr_pointerIP12OpenGLShaderNS_10shared_ptrI6ShaderE27__shared_ptr_default_deleteIS4_S1_EENS_9allocatorIS1_EEEC1B8ue170006ES2_S7_S9_, symObjAddr: 0xC41C, symBinAddr: 0x100086FF0, symSize: 0x34 }
  - { offsetInCU: 0x72B2, offset: 0x85529, size: 0x8, addend: 0x0, symName: __ZNSt3__110unique_ptrI12OpenGLShaderNS_14default_deleteIS1_EEE7releaseB8ue170006Ev, symObjAddr: 0xC450, symBinAddr: 0x100087024, symSize: 0xB8 }
  - { offsetInCU: 0x72E6, offset: 0x8555D, size: 0x8, addend: 0x0, symName: __ZNSt3__110shared_ptrI6ShaderE18__enable_weak_thisB8ue170006Ez, symObjAddr: 0xC508, symBinAddr: 0x1000870DC, symSize: 0x10 }
  - { offsetInCU: 0x730B, offset: 0x85582, size: 0x8, addend: 0x0, symName: __ZNSt3__110unique_ptrI12OpenGLShaderNS_14default_deleteIS1_EEED1B8ue170006Ev, symObjAddr: 0xC518, symBinAddr: 0x1000870EC, symSize: 0x2C }
  - { offsetInCU: 0x7333, offset: 0x855AA, size: 0x8, addend: 0x0, symName: __ZNSt3__110unique_ptrI12OpenGLShaderNS_14default_deleteIS1_EEEC2B8ue170006ILb1EvEEPS1_, symObjAddr: 0xC544, symBinAddr: 0x100087118, symSize: 0x260 }
  - { offsetInCU: 0x737E, offset: 0x855F5, size: 0x8, addend: 0x0, symName: __ZNSt3__117__compressed_pairIP12OpenGLShaderNS_14default_deleteIS1_EEEC1B8ue170006IRS2_NS_16__value_init_tagEEEOT_OT0_, symObjAddr: 0xC7A4, symBinAddr: 0x100087378, symSize: 0x3C }
  - { offsetInCU: 0x73D4, offset: 0x8564B, size: 0x8, addend: 0x0, symName: __ZNSt3__117__compressed_pairIP12OpenGLShaderNS_14default_deleteIS1_EEEC2B8ue170006IRS2_NS_16__value_init_tagEEEOT_OT0_, symObjAddr: 0xC7E0, symBinAddr: 0x1000873B4, symSize: 0x40 }
  - { offsetInCU: 0x742A, offset: 0x856A1, size: 0x8, addend: 0x0, symName: __ZNSt3__122__compressed_pair_elemIP12OpenGLShaderLi0ELb0EEC2B8ue170006IRS2_vEEOT_, symObjAddr: 0xC820, symBinAddr: 0x1000873F4, symSize: 0xB0 }
  - { offsetInCU: 0x746A, offset: 0x856E1, size: 0x8, addend: 0x0, symName: __ZNSt3__122__compressed_pair_elemINS_14default_deleteI12OpenGLShaderEELi1ELb1EEC2B8ue170006ENS_16__value_init_tagE, symObjAddr: 0xC8D0, symBinAddr: 0x1000874A4, symSize: 0x14 }
  - { offsetInCU: 0x749E, offset: 0x85715, size: 0x8, addend: 0x0, symName: __ZNSt3__19allocatorI12OpenGLShaderEC2B8ue170006Ev, symObjAddr: 0xC8E4, symBinAddr: 0x1000874B8, symSize: 0x2C }
  - { offsetInCU: 0x74C6, offset: 0x8573D, size: 0x8, addend: 0x0, symName: __ZNSt3__116__non_trivial_ifILb1ENS_9allocatorI12OpenGLShaderEEEC2B8ue170006Ev, symObjAddr: 0xC910, symBinAddr: 0x1000874E4, symSize: 0x14 }
  - { offsetInCU: 0x74EF, offset: 0x85766, size: 0x8, addend: 0x0, symName: __ZNSt3__120__shared_ptr_pointerIP12OpenGLShaderNS_10shared_ptrI6ShaderE27__shared_ptr_default_deleteIS4_S1_EENS_9allocatorIS1_EEEC2B8ue170006ES2_S7_S9_, symObjAddr: 0xC924, symBinAddr: 0x1000874F8, symSize: 0x3B4 }
  - { offsetInCU: 0x7553, offset: 0x857CA, size: 0x8, addend: 0x0, symName: __ZNSt3__117__compressed_pairIP12OpenGLShaderNS_10shared_ptrI6ShaderE27__shared_ptr_default_deleteIS4_S1_EEEC1B8ue170006IRS2_S7_EEOT_OT0_, symObjAddr: 0xCDA8, symBinAddr: 0x1000878AC, symSize: 0x3C }
  - { offsetInCU: 0x75B3, offset: 0x8582A, size: 0x8, addend: 0x0, symName: __ZNSt3__117__compressed_pairINS0_IP12OpenGLShaderNS_10shared_ptrI6ShaderE27__shared_ptr_default_deleteIS4_S1_EEEENS_9allocatorIS1_EEEC1B8ue170006IS8_SA_EEOT_OT0_, symObjAddr: 0xCDE4, symBinAddr: 0x1000878E8, symSize: 0x3C }
  - { offsetInCU: 0x7609, offset: 0x85880, size: 0x8, addend: 0x0, symName: __ZNSt3__120__shared_ptr_pointerIP12OpenGLShaderNS_10shared_ptrI6ShaderE27__shared_ptr_default_deleteIS4_S1_EENS_9allocatorIS1_EEED1Ev, symObjAddr: 0xCE20, symBinAddr: 0x100087924, symSize: 0x2C }
  - { offsetInCU: 0x7634, offset: 0x858AB, size: 0x8, addend: 0x0, symName: __ZNSt3__120__shared_ptr_pointerIP12OpenGLShaderNS_10shared_ptrI6ShaderE27__shared_ptr_default_deleteIS4_S1_EENS_9allocatorIS1_EEED0Ev, symObjAddr: 0xCE4C, symBinAddr: 0x100087950, symSize: 0x30 }
  - { offsetInCU: 0x765F, offset: 0x858D6, size: 0x8, addend: 0x0, symName: __ZNSt3__120__shared_ptr_pointerIP12OpenGLShaderNS_10shared_ptrI6ShaderE27__shared_ptr_default_deleteIS4_S1_EENS_9allocatorIS1_EEE16__on_zero_sharedEv, symObjAddr: 0xCE7C, symBinAddr: 0x100087980, symSize: 0xA4 }
  - { offsetInCU: 0x7685, offset: 0x858FC, size: 0x8, addend: 0x0, symName: __ZNKSt3__120__shared_ptr_pointerIP12OpenGLShaderNS_10shared_ptrI6ShaderE27__shared_ptr_default_deleteIS4_S1_EENS_9allocatorIS1_EEE13__get_deleterERKSt9type_info, symObjAddr: 0xCF20, symBinAddr: 0x100087A24, symSize: 0x68 }
  - { offsetInCU: 0x76B9, offset: 0x85930, size: 0x8, addend: 0x0, symName: __ZNSt3__120__shared_ptr_pointerIP12OpenGLShaderNS_10shared_ptrI6ShaderE27__shared_ptr_default_deleteIS4_S1_EENS_9allocatorIS1_EEE21__on_zero_shared_weakEv, symObjAddr: 0xCF88, symBinAddr: 0x100087A8C, symSize: 0x20C }
  - { offsetInCU: 0x7700, offset: 0x85977, size: 0x8, addend: 0x0, symName: __ZNSt3__117__compressed_pairIP12OpenGLShaderNS_10shared_ptrI6ShaderE27__shared_ptr_default_deleteIS4_S1_EEEC2B8ue170006IRS2_S7_EEOT_OT0_, symObjAddr: 0xD254, symBinAddr: 0x100087C98, symSize: 0x44 }
  - { offsetInCU: 0x7756, offset: 0x859CD, size: 0x8, addend: 0x0, symName: __ZNSt3__122__compressed_pair_elemINS_10shared_ptrI6ShaderE27__shared_ptr_default_deleteIS2_12OpenGLShaderEELi1ELb1EEC2B8ue170006IS6_vEEOT_, symObjAddr: 0xD298, symBinAddr: 0x100087CDC, symSize: 0x18 }
  - { offsetInCU: 0x7797, offset: 0x85A0E, size: 0x8, addend: 0x0, symName: __ZNSt3__117__compressed_pairINS0_IP12OpenGLShaderNS_10shared_ptrI6ShaderE27__shared_ptr_default_deleteIS4_S1_EEEENS_9allocatorIS1_EEEC2B8ue170006IS8_SA_EEOT_OT0_, symObjAddr: 0xD2B0, symBinAddr: 0x100087CF4, symSize: 0x44 }
  - { offsetInCU: 0x77ED, offset: 0x85A64, size: 0x8, addend: 0x0, symName: __ZNSt3__122__compressed_pair_elemINS_17__compressed_pairIP12OpenGLShaderNS_10shared_ptrI6ShaderE27__shared_ptr_default_deleteIS5_S2_EEEELi0ELb0EEC2B8ue170006IS9_vEEOT_, symObjAddr: 0xD2F4, symBinAddr: 0x100087D38, symSize: 0x38 }
  - { offsetInCU: 0x782D, offset: 0x85AA4, size: 0x8, addend: 0x0, symName: __ZNSt3__122__compressed_pair_elemINS_9allocatorI12OpenGLShaderEELi1ELb1EEC2B8ue170006IS3_vEEOT_, symObjAddr: 0xD32C, symBinAddr: 0x100087D70, symSize: 0x18 }
  - { offsetInCU: 0x786E, offset: 0x85AE5, size: 0x8, addend: 0x0, symName: __ZNSt3__120__shared_ptr_pointerIP12OpenGLShaderNS_10shared_ptrI6ShaderE27__shared_ptr_default_deleteIS4_S1_EENS_9allocatorIS1_EEED2Ev, symObjAddr: 0xD344, symBinAddr: 0x100087D88, symSize: 0x2C }
  - { offsetInCU: 0x7899, offset: 0x85B10, size: 0x8, addend: 0x0, symName: __ZNSt3__117__compressed_pairINS0_IP12OpenGLShaderNS_10shared_ptrI6ShaderE27__shared_ptr_default_deleteIS4_S1_EEEENS_9allocatorIS1_EEE5firstB8ue170006Ev, symObjAddr: 0xD370, symBinAddr: 0x100087DB4, symSize: 0x24 }
  - { offsetInCU: 0x78BD, offset: 0x85B34, size: 0x8, addend: 0x0, symName: __ZNSt3__117__compressed_pairIP12OpenGLShaderNS_10shared_ptrI6ShaderE27__shared_ptr_default_deleteIS4_S1_EEE6secondB8ue170006Ev, symObjAddr: 0xD394, symBinAddr: 0x100087DD8, symSize: 0x24 }
  - { offsetInCU: 0x78E1, offset: 0x85B58, size: 0x8, addend: 0x0, symName: __ZNKSt3__114default_deleteI12OpenGLShaderEclB8ue170006EPS1_, symObjAddr: 0xD3B8, symBinAddr: 0x100087DFC, symSize: 0x4C }
  - { offsetInCU: 0x7913, offset: 0x85B8A, size: 0x8, addend: 0x0, symName: __ZNSt3__117__compressed_pairIP12OpenGLShaderNS_10shared_ptrI6ShaderE27__shared_ptr_default_deleteIS4_S1_EEE5firstB8ue170006Ev, symObjAddr: 0xD404, symBinAddr: 0x100087E48, symSize: 0x24 }
  - { offsetInCU: 0x7937, offset: 0x85BAE, size: 0x8, addend: 0x0, symName: __ZNSt3__122__compressed_pair_elemINS_17__compressed_pairIP12OpenGLShaderNS_10shared_ptrI6ShaderE27__shared_ptr_default_deleteIS5_S2_EEEELi0ELb0EE5__getB8ue170006Ev, symObjAddr: 0xD428, symBinAddr: 0x100087E6C, symSize: 0x14 }
  - { offsetInCU: 0x795B, offset: 0x85BD2, size: 0x8, addend: 0x0, symName: __ZNSt3__122__compressed_pair_elemINS_10shared_ptrI6ShaderE27__shared_ptr_default_deleteIS2_12OpenGLShaderEELi1ELb1EE5__getB8ue170006Ev, symObjAddr: 0xD43C, symBinAddr: 0x100087E80, symSize: 0x14 }
  - { offsetInCU: 0x797F, offset: 0x85BF6, size: 0x8, addend: 0x0, symName: __ZN12OpenGLShaderD1Ev, symObjAddr: 0xD450, symBinAddr: 0x100087E94, symSize: 0x2C }
  - { offsetInCU: 0x79AA, offset: 0x85C21, size: 0x8, addend: 0x0, symName: __ZN12OpenGLShaderD2Ev, symObjAddr: 0xD47C, symBinAddr: 0x100087EC0, symSize: 0x2C }
  - { offsetInCU: 0x79D5, offset: 0x85C4C, size: 0x8, addend: 0x0, symName: __ZNSt3__122__compressed_pair_elemIP12OpenGLShaderLi0ELb0EE5__getB8ue170006Ev, symObjAddr: 0xD4A8, symBinAddr: 0x100087EEC, symSize: 0x14 }
  - { offsetInCU: 0x7A2F, offset: 0x85CA6, size: 0x8, addend: 0x0, symName: __ZNKSt9type_infoeqB8ue170006ERKS_, symObjAddr: 0xD4BC, symBinAddr: 0x100087F00, symSize: 0x160 }
  - { offsetInCU: 0x7ACB, offset: 0x85D42, size: 0x8, addend: 0x0, symName: __ZNKSt3__117__compressed_pairINS0_IP12OpenGLShaderNS_10shared_ptrI6ShaderE27__shared_ptr_default_deleteIS4_S1_EEEENS_9allocatorIS1_EEE5firstB8ue170006Ev, symObjAddr: 0xD61C, symBinAddr: 0x100088060, symSize: 0x24 }
  - { offsetInCU: 0x7AEF, offset: 0x85D66, size: 0x8, addend: 0x0, symName: __ZNKSt3__117__compressed_pairIP12OpenGLShaderNS_10shared_ptrI6ShaderE27__shared_ptr_default_deleteIS4_S1_EEE6secondB8ue170006Ev, symObjAddr: 0xD640, symBinAddr: 0x100088084, symSize: 0x24 }
  - { offsetInCU: 0x7B13, offset: 0x85D8A, size: 0x8, addend: 0x0, symName: __ZNSt27__type_info_implementations30__non_unique_arm_rtti_bit_impl21__is_type_name_uniqueB8ue170006Em, symObjAddr: 0xD664, symBinAddr: 0x1000880A8, symSize: 0x20 }
  - { offsetInCU: 0x7B37, offset: 0x85DAE, size: 0x8, addend: 0x0, symName: __ZNKSt3__122__compressed_pair_elemINS_17__compressed_pairIP12OpenGLShaderNS_10shared_ptrI6ShaderE27__shared_ptr_default_deleteIS5_S2_EEEELi0ELb0EE5__getB8ue170006Ev, symObjAddr: 0xD684, symBinAddr: 0x1000880C8, symSize: 0x14 }
  - { offsetInCU: 0x7B5B, offset: 0x85DD2, size: 0x8, addend: 0x0, symName: __ZNKSt3__122__compressed_pair_elemINS_10shared_ptrI6ShaderE27__shared_ptr_default_deleteIS2_12OpenGLShaderEELi1ELb1EE5__getB8ue170006Ev, symObjAddr: 0xD698, symBinAddr: 0x1000880DC, symSize: 0x14 }
  - { offsetInCU: 0x7B7F, offset: 0x85DF6, size: 0x8, addend: 0x0, symName: __ZNSt3__117__compressed_pairINS0_IP12OpenGLShaderNS_10shared_ptrI6ShaderE27__shared_ptr_default_deleteIS4_S1_EEEENS_9allocatorIS1_EEE6secondB8ue170006Ev, symObjAddr: 0xD6AC, symBinAddr: 0x1000880F0, symSize: 0x24 }
  - { offsetInCU: 0x7BCB, offset: 0x85E42, size: 0x8, addend: 0x0, symName: __ZNSt3__19allocatorINS_20__shared_ptr_pointerIP12OpenGLShaderNS_10shared_ptrI6ShaderE27__shared_ptr_default_deleteIS5_S2_EENS0_IS2_EEEEEC1B8ue170006IS2_EERKNS0_IT_EE, symObjAddr: 0xD6D0, symBinAddr: 0x100088114, symSize: 0x34 }
  - { offsetInCU: 0x7C07, offset: 0x85E7E, size: 0x8, addend: 0x0, symName: __ZNSt3__19allocatorINS_20__shared_ptr_pointerIP12OpenGLShaderNS_10shared_ptrI6ShaderE27__shared_ptr_default_deleteIS5_S2_EENS0_IS2_EEEEE10deallocateB8ue170006EPSA_m, symObjAddr: 0xD704, symBinAddr: 0x100088148, symSize: 0x4C }
  - { offsetInCU: 0x7C47, offset: 0x85EBE, size: 0x8, addend: 0x0, symName: __ZNSt3__114pointer_traitsIPNS_20__shared_ptr_pointerIP12OpenGLShaderNS_10shared_ptrI6ShaderE27__shared_ptr_default_deleteIS5_S2_EENS_9allocatorIS2_EEEEE10pointer_toB8ue170006ERSB_, symObjAddr: 0xD750, symBinAddr: 0x100088194, symSize: 0x14 }
  - { offsetInCU: 0x7C6A, offset: 0x85EE1, size: 0x8, addend: 0x0, symName: __ZNSt3__122__compressed_pair_elemINS_9allocatorI12OpenGLShaderEELi1ELb1EE5__getB8ue170006Ev, symObjAddr: 0xD764, symBinAddr: 0x1000881A8, symSize: 0x14 }
  - { offsetInCU: 0x7C8E, offset: 0x85F05, size: 0x8, addend: 0x0, symName: __ZNSt3__19allocatorINS_20__shared_ptr_pointerIP12OpenGLShaderNS_10shared_ptrI6ShaderE27__shared_ptr_default_deleteIS5_S2_EENS0_IS2_EEEEEC2B8ue170006IS2_EERKNS0_IT_EE, symObjAddr: 0xD778, symBinAddr: 0x1000881BC, symSize: 0x30 }
  - { offsetInCU: 0x7CCA, offset: 0x85F41, size: 0x8, addend: 0x0, symName: __ZNSt3__116__non_trivial_ifILb1ENS_9allocatorINS_20__shared_ptr_pointerIP12OpenGLShaderNS_10shared_ptrI6ShaderE27__shared_ptr_default_deleteIS6_S3_EENS1_IS3_EEEEEEEC2B8ue170006Ev, symObjAddr: 0xD7A8, symBinAddr: 0x1000881EC, symSize: 0x14 }
  - { offsetInCU: 0x7CF3, offset: 0x85F6A, size: 0x8, addend: 0x0, symName: __ZNSt3__117__compressed_pairIP12OpenGLShaderNS_14default_deleteIS1_EEE5firstB8ue170006Ev, symObjAddr: 0xD7BC, symBinAddr: 0x100088200, symSize: 0x24 }
  - { offsetInCU: 0x7D17, offset: 0x85F8E, size: 0x8, addend: 0x0, symName: __ZNSt3__110unique_ptrI12OpenGLShaderNS_14default_deleteIS1_EEED2B8ue170006Ev, symObjAddr: 0xD7E0, symBinAddr: 0x100088224, symSize: 0x30 }
  - { offsetInCU: 0x7D3F, offset: 0x85FB6, size: 0x8, addend: 0x0, symName: __ZNSt3__110unique_ptrI12OpenGLShaderNS_14default_deleteIS1_EEE5resetB8ue170006EPS1_, symObjAddr: 0xD810, symBinAddr: 0x100088254, symSize: 0xEC }
  - { offsetInCU: 0x7D82, offset: 0x85FF9, size: 0x8, addend: 0x0, symName: __ZNSt3__117__compressed_pairIP12OpenGLShaderNS_14default_deleteIS1_EEE6secondB8ue170006Ev, symObjAddr: 0xD8FC, symBinAddr: 0x100088340, symSize: 0x24 }
  - { offsetInCU: 0x7DA6, offset: 0x8601D, size: 0x8, addend: 0x0, symName: __ZNSt3__122__compressed_pair_elemINS_14default_deleteI12OpenGLShaderEELi1ELb1EE5__getB8ue170006Ev, symObjAddr: 0xD920, symBinAddr: 0x100088364, symSize: 0x14 }
  - { offsetInCU: 0x7DCA, offset: 0x86041, size: 0x8, addend: 0x0, symName: __ZNSt3__110shared_ptrI6ShaderE4swapB8ue170006ERS2_, symObjAddr: 0xD968, symBinAddr: 0x100088378, symSize: 0x44 }
  - { offsetInCU: 0x26, offset: 0x86102, size: 0x8, addend: 0x0, symName: __ZN17OpenGLRendererAPI13SetClearColorERN3glm3vecILi4EfLNS0_9qualifierE0EEE, symObjAddr: 0x0, symBinAddr: 0x100088588, symSize: 0x22C }
  - { offsetInCU: 0x2A6F, offset: 0x88B4B, size: 0x8, addend: 0x0, symName: __ZN17OpenGLRendererAPI13SetClearColorERN3glm3vecILi4EfLNS0_9qualifierE0EEE, symObjAddr: 0x0, symBinAddr: 0x100088588, symSize: 0x22C }
  - { offsetInCU: 0x2AA3, offset: 0x88B7F, size: 0x8, addend: 0x0, symName: __ZN17OpenGLRendererAPI21SetViewportDimensionsEjj, symObjAddr: 0x22C, symBinAddr: 0x1000887B4, symSize: 0x80 }
  - { offsetInCU: 0x2AE5, offset: 0x88BC1, size: 0x8, addend: 0x0, symName: __ZN17OpenGLRendererAPI14ListenToEventsEv, symObjAddr: 0x2AC, symBinAddr: 0x100088834, symSize: 0x20 }
  - { offsetInCU: 0x2B0B, offset: 0x88BE7, size: 0x8, addend: 0x0, symName: __ZN17OpenGLRendererAPI11SwapBuffersEP10GLFWwindow, symObjAddr: 0x2CC, symBinAddr: 0x100088854, symSize: 0x28 }
  - { offsetInCU: 0x2B3F, offset: 0x88C1B, size: 0x8, addend: 0x0, symName: __ZN17OpenGLRendererAPI5FlushEv, symObjAddr: 0x2F4, symBinAddr: 0x10008887C, symSize: 0x6C }
  - { offsetInCU: 0x2B65, offset: 0x88C41, size: 0x8, addend: 0x0, symName: __ZN17OpenGLRendererAPI4DrawERKNSt3__110shared_ptrI11VertexArrayEE, symObjAddr: 0x360, symBinAddr: 0x1000888E8, symSize: 0x184 }
  - { offsetInCU: 0x2B99, offset: 0x88C75, size: 0x8, addend: 0x0, symName: __ZNKSt3__110shared_ptrI11VertexArrayEptB8ue170006Ev, symObjAddr: 0x4E4, symBinAddr: 0x100088A6C, symSize: 0x60 }
  - { offsetInCU: 0x2BBD, offset: 0x88C99, size: 0x8, addend: 0x0, symName: __ZN17OpenGLRendererAPI11DrawIndexedERKNSt3__110shared_ptrI11VertexArrayEE, symObjAddr: 0x544, symBinAddr: 0x100088ACC, symSize: 0x188 }
  - { offsetInCU: 0x3B, offset: 0x88D12, size: 0x8, addend: 0x0, symName: _.str, symObjAddr: 0x8680, symBinAddr: 0x1004921A0, symSize: 0x0 }
  - { offsetInCU: 0x6C, offset: 0x88D43, size: 0x8, addend: 0x0, symName: _.str.1, symObjAddr: 0x86E0, symBinAddr: 0x100492200, symSize: 0x0 }
  - { offsetInCU: 0x8A, offset: 0x88D61, size: 0x8, addend: 0x0, symName: _.str.2, symObjAddr: 0x8700, symBinAddr: 0x100492220, symSize: 0x0 }
  - { offsetInCU: 0xA8, offset: 0x88D7F, size: 0x8, addend: 0x0, symName: _.str.3, symObjAddr: 0x8720, symBinAddr: 0x100492240, symSize: 0x0 }
  - { offsetInCU: 0xBA, offset: 0x88D91, size: 0x8, addend: 0x0, symName: _.str.4, symObjAddr: 0x8740, symBinAddr: 0x100492260, symSize: 0x0 }
  - { offsetInCU: 0xD8, offset: 0x88DAF, size: 0x8, addend: 0x0, symName: _.str.5, symObjAddr: 0x8760, symBinAddr: 0x100492280, symSize: 0x0 }
  - { offsetInCU: 0xF6, offset: 0x88DCD, size: 0x8, addend: 0x0, symName: _.str.6, symObjAddr: 0x87C0, symBinAddr: 0x1004922E0, symSize: 0x0 }
  - { offsetInCU: 0x114, offset: 0x88DEB, size: 0x8, addend: 0x0, symName: _.str.7, symObjAddr: 0x87E0, symBinAddr: 0x100492300, symSize: 0x0 }
  - { offsetInCU: 0x132, offset: 0x88E09, size: 0x8, addend: 0x0, symName: _.str.8, symObjAddr: 0x8840, symBinAddr: 0x100492360, symSize: 0x0 }
  - { offsetInCU: 0x151, offset: 0x88E28, size: 0x8, addend: 0x0, symName: ___func__._ZNK3glm3matILi4ELi4EfLNS_9qualifierE0EEixEi, symObjAddr: 0x88C0, symBinAddr: 0x1004923E0, symSize: 0x0 }
  - { offsetInCU: 0x170, offset: 0x88E47, size: 0x8, addend: 0x0, symName: _.str.9, symObjAddr: 0x88E0, symBinAddr: 0x100492400, symSize: 0x0 }
  - { offsetInCU: 0x18F, offset: 0x88E66, size: 0x8, addend: 0x0, symName: _.str.10, symObjAddr: 0x8900, symBinAddr: 0x100492420, symSize: 0x0 }
  - { offsetInCU: 0x1C2, offset: 0x88E99, size: 0x8, addend: 0x0, symName: __ZN3glm9value_ptrIfLNS_9qualifierE0EEEPKT_RKNS_3matILi4ELi4ES2_XT0_EEE, symObjAddr: 0x3C68, symBinAddr: 0x10008C748, symSize: 0x28 }
  - { offsetInCU: 0xC522, offset: 0x951F9, size: 0x8, addend: 0x0, symName: __ZNSt3__1neB8ue170006IcNS_11char_traitsIcEENS_9allocatorIcEEEEbRKNS_12basic_stringIT_T0_T1_EEPKS6_, symObjAddr: 0x4198, symBinAddr: 0x10008CC78, symSize: 0x34 }
  - { offsetInCU: 0xC57A, offset: 0x95251, size: 0x8, addend: 0x0, symName: __ZNSt3__1lsB8ue170006IcNS_11char_traitsIcEENS_9allocatorIcEEEERNS_13basic_ostreamIT_T0_EES9_RKNS_12basic_stringIS6_S7_T1_EE, symObjAddr: 0x41CC, symBinAddr: 0x10008CCAC, symSize: 0x4C }
  - { offsetInCU: 0xC5D2, offset: 0x952A9, size: 0x8, addend: 0x0, symName: __ZNSt3__1eqB8ue170006IcNS_11char_traitsIcEENS_9allocatorIcEEEEbRKNS_12basic_stringIT_T0_T1_EEPKS6_, symObjAddr: 0x8144, symBinAddr: 0x10008DCF4, symSize: 0xC8 }
  - { offsetInCU: 0xECEF, offset: 0x979C6, size: 0x8, addend: 0x0, symName: __ZN12OpenGLShader3UseEv, symObjAddr: 0x0, symBinAddr: 0x100088CEC, symSize: 0xE0 }
  - { offsetInCU: 0xED15, offset: 0x979EC, size: 0x8, addend: 0x0, symName: __ZN12OpenGLShader7ReleaseEv, symObjAddr: 0xE0, symBinAddr: 0x100088DCC, symSize: 0x6C }
  - { offsetInCU: 0xED3B, offset: 0x97A12, size: 0x8, addend: 0x0, symName: __ZN12OpenGLShader12LoadFromFileEPKcS1_S1_, symObjAddr: 0x14C, symBinAddr: 0x100088E38, symSize: 0xF14 }
  - { offsetInCU: 0xEF3D, offset: 0x97C14, size: 0x8, addend: 0x0, symName: __ZNSt3__114basic_ifstreamIcNS_11char_traitsIcEEEC1EPKcj, symObjAddr: 0x108C, symBinAddr: 0x100089D4C, symSize: 0x2AC }
  - { offsetInCU: 0xEFE5, offset: 0x97CBC, size: 0x8, addend: 0x0, symName: __ZNSt3__118basic_stringstreamIcNS_11char_traitsIcEENS_9allocatorIcEEEC1B8ue170006Ev, symObjAddr: 0x1338, symBinAddr: 0x100089FF8, symSize: 0x240 }
  - { offsetInCU: 0xF00D, offset: 0x97CE4, size: 0x8, addend: 0x0, symName: __ZNKSt3__114basic_ifstreamIcNS_11char_traitsIcEEE5rdbufEv, symObjAddr: 0x1578, symBinAddr: 0x10008A238, symSize: 0x18 }
  - { offsetInCU: 0xF034, offset: 0x97D0B, size: 0x8, addend: 0x0, symName: __ZNSt3__114basic_ifstreamIcNS_11char_traitsIcEEE5closeEv, symObjAddr: 0x1590, symBinAddr: 0x10008A250, symSize: 0xD4 }
  - { offsetInCU: 0xF05A, offset: 0x97D31, size: 0x8, addend: 0x0, symName: __ZNKSt3__118basic_stringstreamIcNS_11char_traitsIcEENS_9allocatorIcEEE3strB8ue170006Ev, symObjAddr: 0x1664, symBinAddr: 0x10008A324, symSize: 0x30 }
  - { offsetInCU: 0xF083, offset: 0x97D5A, size: 0x8, addend: 0x0, symName: __ZNSt3__118basic_stringstreamIcNS_11char_traitsIcEENS_9allocatorIcEEED1Ev, symObjAddr: 0x16C8, symBinAddr: 0x10008A354, symSize: 0x40 }
  - { offsetInCU: 0xF0B4, offset: 0x97D8B, size: 0x8, addend: 0x0, symName: __ZNSt3__114basic_ifstreamIcNS_11char_traitsIcEEED1Ev, symObjAddr: 0x1708, symBinAddr: 0x10008A394, symSize: 0x40 }
  - { offsetInCU: 0xF0EA, offset: 0x97DC1, size: 0x8, addend: 0x0, symName: __ZNSt9exceptionC1B8ue170006ERKS_, symObjAddr: 0x1748, symBinAddr: 0x10008A3D4, symSize: 0x34 }
  - { offsetInCU: 0xF11D, offset: 0x97DF4, size: 0x8, addend: 0x0, symName: __ZN12OpenGLShader7CompileEPKcS1_S1_, symObjAddr: 0x18F4, symBinAddr: 0x10008A408, symSize: 0xEEC }
  - { offsetInCU: 0xF1AC, offset: 0x97E83, size: 0x8, addend: 0x0, symName: __ZN12OpenGLShader8SetFloatENSt3__112basic_stringIcNS0_11char_traitsIcEENS0_9allocatorIcEEEEf, symObjAddr: 0x2814, symBinAddr: 0x10008B2F4, symSize: 0x1CC }
  - { offsetInCU: 0xF1EF, offset: 0x97EC6, size: 0x8, addend: 0x0, symName: __ZN12OpenGLShader6SetIntENSt3__112basic_stringIcNS0_11char_traitsIcEENS0_9allocatorIcEEEEi, symObjAddr: 0x29E0, symBinAddr: 0x10008B4C0, symSize: 0x1CC }
  - { offsetInCU: 0xF232, offset: 0x97F09, size: 0x8, addend: 0x0, symName: __ZN12OpenGLShader8SetVec2fENSt3__112basic_stringIcNS0_11char_traitsIcEENS0_9allocatorIcEEEEff, symObjAddr: 0x2BAC, symBinAddr: 0x10008B68C, symSize: 0x1D4 }
  - { offsetInCU: 0xF283, offset: 0x97F5A, size: 0x8, addend: 0x0, symName: __ZN12OpenGLShader8SetVec2fENSt3__112basic_stringIcNS0_11char_traitsIcEENS0_9allocatorIcEEEERKN3glm3vecILi2EfLNS7_9qualifierE0EEE, symObjAddr: 0x2D80, symBinAddr: 0x10008B860, symSize: 0x2A4 }
  - { offsetInCU: 0xF2C6, offset: 0x97F9D, size: 0x8, addend: 0x0, symName: __ZN12OpenGLShader8SetVec3fENSt3__112basic_stringIcNS0_11char_traitsIcEENS0_9allocatorIcEEEEfff, symObjAddr: 0x3024, symBinAddr: 0x10008BB04, symSize: 0x1DC }
  - { offsetInCU: 0xF325, offset: 0x97FFC, size: 0x8, addend: 0x0, symName: __ZN12OpenGLShader8SetVec3fENSt3__112basic_stringIcNS0_11char_traitsIcEENS0_9allocatorIcEEEERKN3glm3vecILi3EfLNS7_9qualifierE0EEE, symObjAddr: 0x3200, symBinAddr: 0x10008BCE0, symSize: 0x314 }
  - { offsetInCU: 0xF368, offset: 0x9803F, size: 0x8, addend: 0x0, symName: __ZN12OpenGLShader8SetVec4fENSt3__112basic_stringIcNS0_11char_traitsIcEENS0_9allocatorIcEEEEffff, symObjAddr: 0x3514, symBinAddr: 0x10008BFF4, symSize: 0x1E4 }
  - { offsetInCU: 0xF3D5, offset: 0x980AC, size: 0x8, addend: 0x0, symName: __ZN12OpenGLShader8SetVec4fENSt3__112basic_stringIcNS0_11char_traitsIcEENS0_9allocatorIcEEEERKN3glm3vecILi4EfLNS7_9qualifierE0EEE, symObjAddr: 0x36F8, symBinAddr: 0x10008C1D8, symSize: 0x38C }
  - { offsetInCU: 0xF418, offset: 0x980EF, size: 0x8, addend: 0x0, symName: __ZN12OpenGLShader8SetMat4fENSt3__112basic_stringIcNS0_11char_traitsIcEENS0_9allocatorIcEEEERKN3glm3matILi4ELi4EfLNS7_9qualifierE0EEE, symObjAddr: 0x3A84, symBinAddr: 0x10008C564, symSize: 0x1E4 }
  - { offsetInCU: 0xF45B, offset: 0x98132, size: 0x8, addend: 0x0, symName: __ZN12OpenGLShader22CheckCompilationErrorsEjNSt3__112basic_stringIcNS0_11char_traitsIcEENS0_9allocatorIcEEEE, symObjAddr: 0x3C90, symBinAddr: 0x10008C770, symSize: 0x508 }
  - { offsetInCU: 0xF4C5, offset: 0x9819C, size: 0x8, addend: 0x0, symName: __ZNSt3__118basic_stringstreamIcNS_11char_traitsIcEENS_9allocatorIcEEED2Ev, symObjAddr: 0x4218, symBinAddr: 0x10008CCF8, symSize: 0x214 }
  - { offsetInCU: 0xF4FD, offset: 0x981D4, size: 0x8, addend: 0x0, symName: __ZThn16_NSt3__118basic_stringstreamIcNS_11char_traitsIcEENS_9allocatorIcEEED1Ev, symObjAddr: 0x442C, symBinAddr: 0x10008CF0C, symSize: 0x1C }
  - { offsetInCU: 0xF514, offset: 0x981EB, size: 0x8, addend: 0x0, symName: __ZTv0_n24_NSt3__118basic_stringstreamIcNS_11char_traitsIcEENS_9allocatorIcEEED1Ev, symObjAddr: 0x4448, symBinAddr: 0x10008CF28, symSize: 0xB0 }
  - { offsetInCU: 0xF530, offset: 0x98207, size: 0x8, addend: 0x0, symName: __ZNSt3__115basic_stringbufIcNS_11char_traitsIcEENS_9allocatorIcEEED1Ev, symObjAddr: 0x44F8, symBinAddr: 0x10008CFD8, symSize: 0x2C }
  - { offsetInCU: 0xF55C, offset: 0x98233, size: 0x8, addend: 0x0, symName: __ZNSt3__115basic_stringbufIcNS_11char_traitsIcEENS_9allocatorIcEEED2Ev, symObjAddr: 0x4524, symBinAddr: 0x10008D004, symSize: 0x88 }
  - { offsetInCU: 0xF588, offset: 0x9825F, size: 0x8, addend: 0x0, symName: __ZNSt3__114basic_ifstreamIcNS_11char_traitsIcEEED2Ev, symObjAddr: 0x45AC, symBinAddr: 0x10008D08C, symSize: 0x198 }
  - { offsetInCU: 0xF5C0, offset: 0x98297, size: 0x8, addend: 0x0, symName: __ZTv0_n24_NSt3__114basic_ifstreamIcNS_11char_traitsIcEEED1Ev, symObjAddr: 0x4744, symBinAddr: 0x10008D224, symSize: 0xB0 }
  - { offsetInCU: 0xF5D7, offset: 0x982AE, size: 0x8, addend: 0x0, symName: __ZNSt9exceptionC2B8ue170006ERKS_, symObjAddr: 0x47F4, symBinAddr: 0x10008D2D4, symSize: 0x78 }
  - { offsetInCU: 0xF60A, offset: 0x982E1, size: 0x8, addend: 0x0, symName: __ZNSt3__19basic_iosIcNS_11char_traitsIcEEEC2B8ue170006Ev, symObjAddr: 0x5864, symBinAddr: 0x10008D34C, symSize: 0x84 }
  - { offsetInCU: 0xF632, offset: 0x98309, size: 0x8, addend: 0x0, symName: __ZNSt3__113basic_istreamIcNS_11char_traitsIcEEEC2B8ue170006EPNS_15basic_streambufIcS2_EE, symObjAddr: 0x58E8, symBinAddr: 0x10008D3D0, symSize: 0x20C }
  - { offsetInCU: 0xF674, offset: 0x9834B, size: 0x8, addend: 0x0, symName: __ZNSt3__18ios_baseC2B8ue170006Ev, symObjAddr: 0x5B20, symBinAddr: 0x10008D5DC, symSize: 0x74 }
  - { offsetInCU: 0xF69C, offset: 0x98373, size: 0x8, addend: 0x0, symName: __ZNSt3__19basic_iosIcNS_11char_traitsIcEEE4initB8ue170006EPNS_15basic_streambufIcS2_EE, symObjAddr: 0x5B94, symBinAddr: 0x10008D650, symSize: 0xEC }
  - { offsetInCU: 0xF6D1, offset: 0x983A8, size: 0x8, addend: 0x0, symName: __ZNSt3__114basic_iostreamIcNS_11char_traitsIcEEEC2B8ue170006EPNS_15basic_streambufIcS2_EE, symObjAddr: 0x5D24, symBinAddr: 0x10008D73C, symSize: 0x254 }
  - { offsetInCU: 0xF714, offset: 0x983EB, size: 0x8, addend: 0x0, symName: __ZNSt3__115basic_stringbufIcNS_11char_traitsIcEENS_9allocatorIcEEEC1B8ue170006Ej, symObjAddr: 0x5F78, symBinAddr: 0x10008D990, symSize: 0x34 }
  - { offsetInCU: 0xF74B, offset: 0x98422, size: 0x8, addend: 0x0, symName: __ZNSt3__113basic_ostreamIcNS_11char_traitsIcEEEC2B8ue170006Ev, symObjAddr: 0x5FAC, symBinAddr: 0x10008D9C4, symSize: 0x17C }
  - { offsetInCU: 0xF77F, offset: 0x98456, size: 0x8, addend: 0x0, symName: __ZNSt3__115basic_stringbufIcNS_11char_traitsIcEENS_9allocatorIcEEEC2B8ue170006Ej, symObjAddr: 0x6128, symBinAddr: 0x10008DB40, symSize: 0x138 }
  - { offsetInCU: 0xF7D4, offset: 0x984AB, size: 0x8, addend: 0x0, symName: __ZNK3glm3matILi4ELi4EfLNS_9qualifierE0EEixEi, symObjAddr: 0x80C0, symBinAddr: 0x10008DC78, symSize: 0x7C }
  - { offsetInCU: 0x3C, offset: 0x9856B, size: 0x8, addend: 0x0, symName: _.str, symObjAddr: 0x596C0, symBinAddr: 0x100492460, symSize: 0x0 }
  - { offsetInCU: 0x6E, offset: 0x9859D, size: 0x8, addend: 0x0, symName: _.str.1, symObjAddr: 0x596E0, symBinAddr: 0x100492480, symSize: 0x0 }
  - { offsetInCU: 0x8C, offset: 0x985BB, size: 0x8, addend: 0x0, symName: _.str.2, symObjAddr: 0x59700, symBinAddr: 0x1004924A0, symSize: 0x0 }
  - { offsetInCU: 0xAA, offset: 0x985D9, size: 0x8, addend: 0x0, symName: _.str.3, symObjAddr: 0x59720, symBinAddr: 0x1004924C0, symSize: 0x0 }
  - { offsetInCU: 0xC8, offset: 0x985F7, size: 0x8, addend: 0x0, symName: _.str.4, symObjAddr: 0x59740, symBinAddr: 0x1004924E0, symSize: 0x0 }
  - { offsetInCU: 0xF0, offset: 0x9861F, size: 0x8, addend: 0x0, symName: __ZL36stbi__vertically_flip_on_load_global, symObjAddr: 0xB5CA0, symBinAddr: 0x1005AE780, symSize: 0x0 }
  - { offsetInCU: 0x112, offset: 0x98641, size: 0x8, addend: 0x0, symName: __ZL21stbi__stdio_callbacks, symObjAddr: 0x5AFA0, symBinAddr: 0x1005359A0, symSize: 0x0 }
  - { offsetInCU: 0x1A6, offset: 0x986D5, size: 0x8, addend: 0x0, symName: ___func__._ZL31stbi__load_and_postprocess_8bitP13stbi__contextPiS1_S1_i, symObjAddr: 0x597A0, symBinAddr: 0x100492540, symSize: 0x0 }
  - { offsetInCU: 0x1C5, offset: 0x986F4, size: 0x8, addend: 0x0, symName: _.str.5, symObjAddr: 0x597E0, symBinAddr: 0x100492580, symSize: 0x0 }
  - { offsetInCU: 0x1D8, offset: 0x98707, size: 0x8, addend: 0x0, symName: _.str.6, symObjAddr: 0x59800, symBinAddr: 0x1004925A0, symSize: 0x0 }
  - { offsetInCU: 0x1F7, offset: 0x98726, size: 0x8, addend: 0x0, symName: _.str.7, symObjAddr: 0x59860, symBinAddr: 0x100492600, symSize: 0x0 }
  - { offsetInCU: 0x20D, offset: 0x9873C, size: 0x8, addend: 0x0, symName: __ZL22stbi__check_png_headerP13stbi__context, symObjAddr: 0x161AC, symBinAddr: 0x1000A3AE0, symSize: 0x118 }
  - { offsetInCU: 0x239, offset: 0x98768, size: 0x8, addend: 0x0, symName: __ZZL22stbi__check_png_headerP13stbi__contextE7png_sig, symObjAddr: 0x5B2A0, symBinAddr: 0x1004869E0, symSize: 0x0 }
  - { offsetInCU: 0x290, offset: 0x987BF, size: 0x8, addend: 0x0, symName: _.str.8, symObjAddr: 0x598A0, symBinAddr: 0x100492640, symSize: 0x0 }
  - { offsetInCU: 0x2A3, offset: 0x987D2, size: 0x8, addend: 0x0, symName: _.str.9, symObjAddr: 0x598C0, symBinAddr: 0x100492660, symSize: 0x0 }
  - { offsetInCU: 0x2C2, offset: 0x987F1, size: 0x8, addend: 0x0, symName: _.str.10, symObjAddr: 0x598E0, symBinAddr: 0x100492680, symSize: 0x0 }
  - { offsetInCU: 0x2E1, offset: 0x98810, size: 0x8, addend: 0x0, symName: _.str.11, symObjAddr: 0x59920, symBinAddr: 0x1004926C0, symSize: 0x0 }
  - { offsetInCU: 0x300, offset: 0x9882F, size: 0x8, addend: 0x0, symName: _.str.12, symObjAddr: 0x59940, symBinAddr: 0x1004926E0, symSize: 0x0 }
  - { offsetInCU: 0x313, offset: 0x98842, size: 0x8, addend: 0x0, symName: _.str.13, symObjAddr: 0x59960, symBinAddr: 0x100492700, symSize: 0x0 }
  - { offsetInCU: 0x332, offset: 0x98861, size: 0x8, addend: 0x0, symName: _.str.14, symObjAddr: 0x59980, symBinAddr: 0x100492720, symSize: 0x0 }
  - { offsetInCU: 0x351, offset: 0x98880, size: 0x8, addend: 0x0, symName: _.str.15, symObjAddr: 0x599C0, symBinAddr: 0x100492760, symSize: 0x0 }
  - { offsetInCU: 0x364, offset: 0x98893, size: 0x8, addend: 0x0, symName: _.str.16, symObjAddr: 0x599E0, symBinAddr: 0x100492780, symSize: 0x0 }
  - { offsetInCU: 0x383, offset: 0x988B2, size: 0x8, addend: 0x0, symName: _.str.17, symObjAddr: 0x59A00, symBinAddr: 0x1004927A0, symSize: 0x0 }
  - { offsetInCU: 0x3A2, offset: 0x988D1, size: 0x8, addend: 0x0, symName: _.str.18, symObjAddr: 0x59A40, symBinAddr: 0x1004927E0, symSize: 0x0 }
  - { offsetInCU: 0x3B5, offset: 0x988E4, size: 0x8, addend: 0x0, symName: _.str.19, symObjAddr: 0x59A80, symBinAddr: 0x100492820, symSize: 0x0 }
  - { offsetInCU: 0x3C8, offset: 0x988F7, size: 0x8, addend: 0x0, symName: _.str.20, symObjAddr: 0x59AA0, symBinAddr: 0x100492840, symSize: 0x0 }
  - { offsetInCU: 0x3E7, offset: 0x98916, size: 0x8, addend: 0x0, symName: _.str.21, symObjAddr: 0x59AC0, symBinAddr: 0x100492860, symSize: 0x0 }
  - { offsetInCU: 0x3FA, offset: 0x98929, size: 0x8, addend: 0x0, symName: _.str.22, symObjAddr: 0x59AE0, symBinAddr: 0x100492880, symSize: 0x0 }
  - { offsetInCU: 0x40D, offset: 0x9893C, size: 0x8, addend: 0x0, symName: _.str.23, symObjAddr: 0x59B00, symBinAddr: 0x1004928A0, symSize: 0x0 }
